
LIS2DS12.elf:     file format elf32-littlearm

Sections:
Idx Name          Size      VMA       LMA       File off  Algn
  0 .isr_vector   00000194  08000000  08000000  00010000  2**0
                  CONTENTS, ALLOC, LOAD, READONLY, DATA
  1 .text         00007c00  080001a0  080001a0  000101a0  2**4
                  CONTENTS, ALLOC, LOAD, READONLY, CODE
  2 .rodata       0000079c  08007da0  08007da0  00017da0  2**3
                  CONTENTS, ALLOC, LOAD, READONLY, DATA
  3 .ARM.extab    00000000  0800853c  0800853c  000201e0  2**0
                  CONTENTS
  4 .ARM          00000008  0800853c  0800853c  0001853c  2**2
                  CONTENTS, ALLOC, LOAD, READONLY, DATA
  5 .preinit_array 00000000  08008544  08008544  000201e0  2**0
                  CONTENTS, ALLOC, LOAD, DATA
  6 .init_array   00000004  08008544  08008544  00018544  2**2
                  CONTENTS, ALLOC, LOAD, DATA
  7 .fini_array   00000004  08008548  08008548  00018548  2**2
                  CONTENTS, ALLOC, LOAD, DATA
  8 .data         000001e0  20000000  0800854c  00020000  2**2
                  CONTENTS, ALLOC, LOAD, DATA
  9 .bss          0000013c  200001e0  0800872c  000201e0  2**2
                  ALLOC
 10 ._user_heap_stack 00006004  2000031c  0800872c  0002031c  2**0
                  ALLOC
 11 .ARM.attributes 00000030  00000000  00000000  000201e0  2**0
                  CONTENTS, READONLY
 12 .comment      00000053  00000000  00000000  00020210  2**0
                  CONTENTS, READONLY
 13 .debug_frame  000016b0  00000000  00000000  00020264  2**2
                  CONTENTS, READONLY, DEBUGGING, OCTETS

Disassembly of section .text:

080001a0 <__do_global_dtors_aux>:
 80001a0:	b510      	push	{r4, lr}
 80001a2:	4c05      	ldr	r4, [pc, #20]	; (80001b8 <__do_global_dtors_aux+0x18>)
 80001a4:	7823      	ldrb	r3, [r4, #0]
 80001a6:	b933      	cbnz	r3, 80001b6 <__do_global_dtors_aux+0x16>
 80001a8:	4b04      	ldr	r3, [pc, #16]	; (80001bc <__do_global_dtors_aux+0x1c>)
 80001aa:	b113      	cbz	r3, 80001b2 <__do_global_dtors_aux+0x12>
 80001ac:	4804      	ldr	r0, [pc, #16]	; (80001c0 <__do_global_dtors_aux+0x20>)
 80001ae:	f3af 8000 	nop.w
 80001b2:	2301      	movs	r3, #1
 80001b4:	7023      	strb	r3, [r4, #0]
 80001b6:	bd10      	pop	{r4, pc}
 80001b8:	200001e0 	.word	0x200001e0
 80001bc:	00000000 	.word	0x00000000
 80001c0:	08007d88 	.word	0x08007d88

080001c4 <frame_dummy>:
 80001c4:	b508      	push	{r3, lr}
 80001c6:	4b03      	ldr	r3, [pc, #12]	; (80001d4 <frame_dummy+0x10>)
 80001c8:	b11b      	cbz	r3, 80001d2 <frame_dummy+0xe>
 80001ca:	4903      	ldr	r1, [pc, #12]	; (80001d8 <frame_dummy+0x14>)
 80001cc:	4803      	ldr	r0, [pc, #12]	; (80001dc <frame_dummy+0x18>)
 80001ce:	f3af 8000 	nop.w
 80001d2:	bd08      	pop	{r3, pc}
 80001d4:	00000000 	.word	0x00000000
 80001d8:	200001e4 	.word	0x200001e4
 80001dc:	08007d88 	.word	0x08007d88

080001e0 <strlen>:
 80001e0:	4603      	mov	r3, r0
 80001e2:	f813 2b01 	ldrb.w	r2, [r3], #1
 80001e6:	2a00      	cmp	r2, #0
 80001e8:	d1fb      	bne.n	80001e2 <strlen+0x2>
 80001ea:	1a18      	subs	r0, r3, r0
 80001ec:	3801      	subs	r0, #1
 80001ee:	4770      	bx	lr

080001f0 <memchr>:
 80001f0:	f001 01ff 	and.w	r1, r1, #255	; 0xff
 80001f4:	2a10      	cmp	r2, #16
 80001f6:	db2b      	blt.n	8000250 <memchr+0x60>
 80001f8:	f010 0f07 	tst.w	r0, #7
 80001fc:	d008      	beq.n	8000210 <memchr+0x20>
 80001fe:	f810 3b01 	ldrb.w	r3, [r0], #1
 8000202:	3a01      	subs	r2, #1
 8000204:	428b      	cmp	r3, r1
 8000206:	d02d      	beq.n	8000264 <memchr+0x74>
 8000208:	f010 0f07 	tst.w	r0, #7
 800020c:	b342      	cbz	r2, 8000260 <memchr+0x70>
 800020e:	d1f6      	bne.n	80001fe <memchr+0xe>
 8000210:	b4f0      	push	{r4, r5, r6, r7}
 8000212:	ea41 2101 	orr.w	r1, r1, r1, lsl #8
 8000216:	ea41 4101 	orr.w	r1, r1, r1, lsl #16
 800021a:	f022 0407 	bic.w	r4, r2, #7
 800021e:	f07f 0700 	mvns.w	r7, #0
 8000222:	2300      	movs	r3, #0
 8000224:	e8f0 5602 	ldrd	r5, r6, [r0], #8
 8000228:	3c08      	subs	r4, #8
 800022a:	ea85 0501 	eor.w	r5, r5, r1
 800022e:	ea86 0601 	eor.w	r6, r6, r1
 8000232:	fa85 f547 	uadd8	r5, r5, r7
 8000236:	faa3 f587 	sel	r5, r3, r7
 800023a:	fa86 f647 	uadd8	r6, r6, r7
 800023e:	faa5 f687 	sel	r6, r5, r7
 8000242:	b98e      	cbnz	r6, 8000268 <memchr+0x78>
 8000244:	d1ee      	bne.n	8000224 <memchr+0x34>
 8000246:	bcf0      	pop	{r4, r5, r6, r7}
 8000248:	f001 01ff 	and.w	r1, r1, #255	; 0xff
 800024c:	f002 0207 	and.w	r2, r2, #7
 8000250:	b132      	cbz	r2, 8000260 <memchr+0x70>
 8000252:	f810 3b01 	ldrb.w	r3, [r0], #1
 8000256:	3a01      	subs	r2, #1
 8000258:	ea83 0301 	eor.w	r3, r3, r1
 800025c:	b113      	cbz	r3, 8000264 <memchr+0x74>
 800025e:	d1f8      	bne.n	8000252 <memchr+0x62>
 8000260:	2000      	movs	r0, #0
 8000262:	4770      	bx	lr
 8000264:	3801      	subs	r0, #1
 8000266:	4770      	bx	lr
 8000268:	2d00      	cmp	r5, #0
 800026a:	bf06      	itte	eq
 800026c:	4635      	moveq	r5, r6
 800026e:	3803      	subeq	r0, #3
 8000270:	3807      	subne	r0, #7
 8000272:	f015 0f01 	tst.w	r5, #1
 8000276:	d107      	bne.n	8000288 <memchr+0x98>
 8000278:	3001      	adds	r0, #1
 800027a:	f415 7f80 	tst.w	r5, #256	; 0x100
 800027e:	bf02      	ittt	eq
 8000280:	3001      	addeq	r0, #1
 8000282:	f415 3fc0 	tsteq.w	r5, #98304	; 0x18000
 8000286:	3001      	addeq	r0, #1
 8000288:	bcf0      	pop	{r4, r5, r6, r7}
 800028a:	3801      	subs	r0, #1
 800028c:	4770      	bx	lr
 800028e:	bf00      	nop

08000290 <__aeabi_drsub>:
 8000290:	f081 4100 	eor.w	r1, r1, #2147483648	; 0x80000000
 8000294:	e002      	b.n	800029c <__adddf3>
 8000296:	bf00      	nop

08000298 <__aeabi_dsub>:
 8000298:	f083 4300 	eor.w	r3, r3, #2147483648	; 0x80000000

0800029c <__adddf3>:
 800029c:	b530      	push	{r4, r5, lr}
 800029e:	ea4f 0441 	mov.w	r4, r1, lsl #1
 80002a2:	ea4f 0543 	mov.w	r5, r3, lsl #1
 80002a6:	ea94 0f05 	teq	r4, r5
 80002aa:	bf08      	it	eq
 80002ac:	ea90 0f02 	teqeq	r0, r2
 80002b0:	bf1f      	itttt	ne
 80002b2:	ea54 0c00 	orrsne.w	ip, r4, r0
 80002b6:	ea55 0c02 	orrsne.w	ip, r5, r2
 80002ba:	ea7f 5c64 	mvnsne.w	ip, r4, asr #21
 80002be:	ea7f 5c65 	mvnsne.w	ip, r5, asr #21
 80002c2:	f000 80e2 	beq.w	800048a <__adddf3+0x1ee>
 80002c6:	ea4f 5454 	mov.w	r4, r4, lsr #21
 80002ca:	ebd4 5555 	rsbs	r5, r4, r5, lsr #21
 80002ce:	bfb8      	it	lt
 80002d0:	426d      	neglt	r5, r5
 80002d2:	dd0c      	ble.n	80002ee <__adddf3+0x52>
 80002d4:	442c      	add	r4, r5
 80002d6:	ea80 0202 	eor.w	r2, r0, r2
 80002da:	ea81 0303 	eor.w	r3, r1, r3
 80002de:	ea82 0000 	eor.w	r0, r2, r0
 80002e2:	ea83 0101 	eor.w	r1, r3, r1
 80002e6:	ea80 0202 	eor.w	r2, r0, r2
 80002ea:	ea81 0303 	eor.w	r3, r1, r3
 80002ee:	2d36      	cmp	r5, #54	; 0x36
 80002f0:	bf88      	it	hi
 80002f2:	bd30      	pophi	{r4, r5, pc}
 80002f4:	f011 4f00 	tst.w	r1, #2147483648	; 0x80000000
 80002f8:	ea4f 3101 	mov.w	r1, r1, lsl #12
 80002fc:	f44f 1c80 	mov.w	ip, #1048576	; 0x100000
 8000300:	ea4c 3111 	orr.w	r1, ip, r1, lsr #12
 8000304:	d002      	beq.n	800030c <__adddf3+0x70>
 8000306:	4240      	negs	r0, r0
 8000308:	eb61 0141 	sbc.w	r1, r1, r1, lsl #1
 800030c:	f013 4f00 	tst.w	r3, #2147483648	; 0x80000000
 8000310:	ea4f 3303 	mov.w	r3, r3, lsl #12
 8000314:	ea4c 3313 	orr.w	r3, ip, r3, lsr #12
 8000318:	d002      	beq.n	8000320 <__adddf3+0x84>
 800031a:	4252      	negs	r2, r2
 800031c:	eb63 0343 	sbc.w	r3, r3, r3, lsl #1
 8000320:	ea94 0f05 	teq	r4, r5
 8000324:	f000 80a7 	beq.w	8000476 <__adddf3+0x1da>
 8000328:	f1a4 0401 	sub.w	r4, r4, #1
 800032c:	f1d5 0e20 	rsbs	lr, r5, #32
 8000330:	db0d      	blt.n	800034e <__adddf3+0xb2>
 8000332:	fa02 fc0e 	lsl.w	ip, r2, lr
 8000336:	fa22 f205 	lsr.w	r2, r2, r5
 800033a:	1880      	adds	r0, r0, r2
 800033c:	f141 0100 	adc.w	r1, r1, #0
 8000340:	fa03 f20e 	lsl.w	r2, r3, lr
 8000344:	1880      	adds	r0, r0, r2
 8000346:	fa43 f305 	asr.w	r3, r3, r5
 800034a:	4159      	adcs	r1, r3
 800034c:	e00e      	b.n	800036c <__adddf3+0xd0>
 800034e:	f1a5 0520 	sub.w	r5, r5, #32
 8000352:	f10e 0e20 	add.w	lr, lr, #32
 8000356:	2a01      	cmp	r2, #1
 8000358:	fa03 fc0e 	lsl.w	ip, r3, lr
 800035c:	bf28      	it	cs
 800035e:	f04c 0c02 	orrcs.w	ip, ip, #2
 8000362:	fa43 f305 	asr.w	r3, r3, r5
 8000366:	18c0      	adds	r0, r0, r3
 8000368:	eb51 71e3 	adcs.w	r1, r1, r3, asr #31
 800036c:	f001 4500 	and.w	r5, r1, #2147483648	; 0x80000000
 8000370:	d507      	bpl.n	8000382 <__adddf3+0xe6>
 8000372:	f04f 0e00 	mov.w	lr, #0
 8000376:	f1dc 0c00 	rsbs	ip, ip, #0
 800037a:	eb7e 0000 	sbcs.w	r0, lr, r0
 800037e:	eb6e 0101 	sbc.w	r1, lr, r1
 8000382:	f5b1 1f80 	cmp.w	r1, #1048576	; 0x100000
 8000386:	d31b      	bcc.n	80003c0 <__adddf3+0x124>
 8000388:	f5b1 1f00 	cmp.w	r1, #2097152	; 0x200000
 800038c:	d30c      	bcc.n	80003a8 <__adddf3+0x10c>
 800038e:	0849      	lsrs	r1, r1, #1
 8000390:	ea5f 0030 	movs.w	r0, r0, rrx
 8000394:	ea4f 0c3c 	mov.w	ip, ip, rrx
 8000398:	f104 0401 	add.w	r4, r4, #1
 800039c:	ea4f 5244 	mov.w	r2, r4, lsl #21
 80003a0:	f512 0f80 	cmn.w	r2, #4194304	; 0x400000
 80003a4:	f080 809a 	bcs.w	80004dc <__adddf3+0x240>
 80003a8:	f1bc 4f00 	cmp.w	ip, #2147483648	; 0x80000000
 80003ac:	bf08      	it	eq
 80003ae:	ea5f 0c50 	movseq.w	ip, r0, lsr #1
 80003b2:	f150 0000 	adcs.w	r0, r0, #0
 80003b6:	eb41 5104 	adc.w	r1, r1, r4, lsl #20
 80003ba:	ea41 0105 	orr.w	r1, r1, r5
 80003be:	bd30      	pop	{r4, r5, pc}
 80003c0:	ea5f 0c4c 	movs.w	ip, ip, lsl #1
 80003c4:	4140      	adcs	r0, r0
 80003c6:	eb41 0101 	adc.w	r1, r1, r1
 80003ca:	3c01      	subs	r4, #1
 80003cc:	bf28      	it	cs
 80003ce:	f5b1 1f80 	cmpcs.w	r1, #1048576	; 0x100000
 80003d2:	d2e9      	bcs.n	80003a8 <__adddf3+0x10c>
 80003d4:	f091 0f00 	teq	r1, #0
 80003d8:	bf04      	itt	eq
 80003da:	4601      	moveq	r1, r0
 80003dc:	2000      	moveq	r0, #0
 80003de:	fab1 f381 	clz	r3, r1
 80003e2:	bf08      	it	eq
 80003e4:	3320      	addeq	r3, #32
 80003e6:	f1a3 030b 	sub.w	r3, r3, #11
 80003ea:	f1b3 0220 	subs.w	r2, r3, #32
 80003ee:	da0c      	bge.n	800040a <__adddf3+0x16e>
 80003f0:	320c      	adds	r2, #12
 80003f2:	dd08      	ble.n	8000406 <__adddf3+0x16a>
 80003f4:	f102 0c14 	add.w	ip, r2, #20
 80003f8:	f1c2 020c 	rsb	r2, r2, #12
 80003fc:	fa01 f00c 	lsl.w	r0, r1, ip
 8000400:	fa21 f102 	lsr.w	r1, r1, r2
 8000404:	e00c      	b.n	8000420 <__adddf3+0x184>
 8000406:	f102 0214 	add.w	r2, r2, #20
 800040a:	bfd8      	it	le
 800040c:	f1c2 0c20 	rsble	ip, r2, #32
 8000410:	fa01 f102 	lsl.w	r1, r1, r2
 8000414:	fa20 fc0c 	lsr.w	ip, r0, ip
 8000418:	bfdc      	itt	le
 800041a:	ea41 010c 	orrle.w	r1, r1, ip
 800041e:	4090      	lslle	r0, r2
 8000420:	1ae4      	subs	r4, r4, r3
 8000422:	bfa2      	ittt	ge
 8000424:	eb01 5104 	addge.w	r1, r1, r4, lsl #20
 8000428:	4329      	orrge	r1, r5
 800042a:	bd30      	popge	{r4, r5, pc}
 800042c:	ea6f 0404 	mvn.w	r4, r4
 8000430:	3c1f      	subs	r4, #31
 8000432:	da1c      	bge.n	800046e <__adddf3+0x1d2>
 8000434:	340c      	adds	r4, #12
 8000436:	dc0e      	bgt.n	8000456 <__adddf3+0x1ba>
 8000438:	f104 0414 	add.w	r4, r4, #20
 800043c:	f1c4 0220 	rsb	r2, r4, #32
 8000440:	fa20 f004 	lsr.w	r0, r0, r4
 8000444:	fa01 f302 	lsl.w	r3, r1, r2
 8000448:	ea40 0003 	orr.w	r0, r0, r3
 800044c:	fa21 f304 	lsr.w	r3, r1, r4
 8000450:	ea45 0103 	orr.w	r1, r5, r3
 8000454:	bd30      	pop	{r4, r5, pc}
 8000456:	f1c4 040c 	rsb	r4, r4, #12
 800045a:	f1c4 0220 	rsb	r2, r4, #32
 800045e:	fa20 f002 	lsr.w	r0, r0, r2
 8000462:	fa01 f304 	lsl.w	r3, r1, r4
 8000466:	ea40 0003 	orr.w	r0, r0, r3
 800046a:	4629      	mov	r1, r5
 800046c:	bd30      	pop	{r4, r5, pc}
 800046e:	fa21 f004 	lsr.w	r0, r1, r4
 8000472:	4629      	mov	r1, r5
 8000474:	bd30      	pop	{r4, r5, pc}
 8000476:	f094 0f00 	teq	r4, #0
 800047a:	f483 1380 	eor.w	r3, r3, #1048576	; 0x100000
 800047e:	bf06      	itte	eq
 8000480:	f481 1180 	eoreq.w	r1, r1, #1048576	; 0x100000
 8000484:	3401      	addeq	r4, #1
 8000486:	3d01      	subne	r5, #1
 8000488:	e74e      	b.n	8000328 <__adddf3+0x8c>
 800048a:	ea7f 5c64 	mvns.w	ip, r4, asr #21
 800048e:	bf18      	it	ne
 8000490:	ea7f 5c65 	mvnsne.w	ip, r5, asr #21
 8000494:	d029      	beq.n	80004ea <__adddf3+0x24e>
 8000496:	ea94 0f05 	teq	r4, r5
 800049a:	bf08      	it	eq
 800049c:	ea90 0f02 	teqeq	r0, r2
 80004a0:	d005      	beq.n	80004ae <__adddf3+0x212>
 80004a2:	ea54 0c00 	orrs.w	ip, r4, r0
 80004a6:	bf04      	itt	eq
 80004a8:	4619      	moveq	r1, r3
 80004aa:	4610      	moveq	r0, r2
 80004ac:	bd30      	pop	{r4, r5, pc}
 80004ae:	ea91 0f03 	teq	r1, r3
 80004b2:	bf1e      	ittt	ne
 80004b4:	2100      	movne	r1, #0
 80004b6:	2000      	movne	r0, #0
 80004b8:	bd30      	popne	{r4, r5, pc}
 80004ba:	ea5f 5c54 	movs.w	ip, r4, lsr #21
 80004be:	d105      	bne.n	80004cc <__adddf3+0x230>
 80004c0:	0040      	lsls	r0, r0, #1
 80004c2:	4149      	adcs	r1, r1
 80004c4:	bf28      	it	cs
 80004c6:	f041 4100 	orrcs.w	r1, r1, #2147483648	; 0x80000000
 80004ca:	bd30      	pop	{r4, r5, pc}
 80004cc:	f514 0480 	adds.w	r4, r4, #4194304	; 0x400000
 80004d0:	bf3c      	itt	cc
 80004d2:	f501 1180 	addcc.w	r1, r1, #1048576	; 0x100000
 80004d6:	bd30      	popcc	{r4, r5, pc}
 80004d8:	f001 4500 	and.w	r5, r1, #2147483648	; 0x80000000
 80004dc:	f045 41fe 	orr.w	r1, r5, #2130706432	; 0x7f000000
 80004e0:	f441 0170 	orr.w	r1, r1, #15728640	; 0xf00000
 80004e4:	f04f 0000 	mov.w	r0, #0
 80004e8:	bd30      	pop	{r4, r5, pc}
 80004ea:	ea7f 5c64 	mvns.w	ip, r4, asr #21
 80004ee:	bf1a      	itte	ne
 80004f0:	4619      	movne	r1, r3
 80004f2:	4610      	movne	r0, r2
 80004f4:	ea7f 5c65 	mvnseq.w	ip, r5, asr #21
 80004f8:	bf1c      	itt	ne
 80004fa:	460b      	movne	r3, r1
 80004fc:	4602      	movne	r2, r0
 80004fe:	ea50 3401 	orrs.w	r4, r0, r1, lsl #12
 8000502:	bf06      	itte	eq
 8000504:	ea52 3503 	orrseq.w	r5, r2, r3, lsl #12
 8000508:	ea91 0f03 	teqeq	r1, r3
 800050c:	f441 2100 	orrne.w	r1, r1, #524288	; 0x80000
 8000510:	bd30      	pop	{r4, r5, pc}
 8000512:	bf00      	nop

08000514 <__aeabi_ui2d>:
 8000514:	f090 0f00 	teq	r0, #0
 8000518:	bf04      	itt	eq
 800051a:	2100      	moveq	r1, #0
 800051c:	4770      	bxeq	lr
 800051e:	b530      	push	{r4, r5, lr}
 8000520:	f44f 6480 	mov.w	r4, #1024	; 0x400
 8000524:	f104 0432 	add.w	r4, r4, #50	; 0x32
 8000528:	f04f 0500 	mov.w	r5, #0
 800052c:	f04f 0100 	mov.w	r1, #0
 8000530:	e750      	b.n	80003d4 <__adddf3+0x138>
 8000532:	bf00      	nop

08000534 <__aeabi_i2d>:
 8000534:	f090 0f00 	teq	r0, #0
 8000538:	bf04      	itt	eq
 800053a:	2100      	moveq	r1, #0
 800053c:	4770      	bxeq	lr
 800053e:	b530      	push	{r4, r5, lr}
 8000540:	f44f 6480 	mov.w	r4, #1024	; 0x400
 8000544:	f104 0432 	add.w	r4, r4, #50	; 0x32
 8000548:	f010 4500 	ands.w	r5, r0, #2147483648	; 0x80000000
 800054c:	bf48      	it	mi
 800054e:	4240      	negmi	r0, r0
 8000550:	f04f 0100 	mov.w	r1, #0
 8000554:	e73e      	b.n	80003d4 <__adddf3+0x138>
 8000556:	bf00      	nop

08000558 <__aeabi_f2d>:
 8000558:	0042      	lsls	r2, r0, #1
 800055a:	ea4f 01e2 	mov.w	r1, r2, asr #3
 800055e:	ea4f 0131 	mov.w	r1, r1, rrx
 8000562:	ea4f 7002 	mov.w	r0, r2, lsl #28
 8000566:	bf1f      	itttt	ne
 8000568:	f012 437f 	andsne.w	r3, r2, #4278190080	; 0xff000000
 800056c:	f093 4f7f 	teqne	r3, #4278190080	; 0xff000000
 8000570:	f081 5160 	eorne.w	r1, r1, #939524096	; 0x38000000
 8000574:	4770      	bxne	lr
 8000576:	f032 427f 	bics.w	r2, r2, #4278190080	; 0xff000000
 800057a:	bf08      	it	eq
 800057c:	4770      	bxeq	lr
 800057e:	f093 4f7f 	teq	r3, #4278190080	; 0xff000000
 8000582:	bf04      	itt	eq
 8000584:	f441 2100 	orreq.w	r1, r1, #524288	; 0x80000
 8000588:	4770      	bxeq	lr
 800058a:	b530      	push	{r4, r5, lr}
 800058c:	f44f 7460 	mov.w	r4, #896	; 0x380
 8000590:	f001 4500 	and.w	r5, r1, #2147483648	; 0x80000000
 8000594:	f021 4100 	bic.w	r1, r1, #2147483648	; 0x80000000
 8000598:	e71c      	b.n	80003d4 <__adddf3+0x138>
 800059a:	bf00      	nop

0800059c <__aeabi_ul2d>:
 800059c:	ea50 0201 	orrs.w	r2, r0, r1
 80005a0:	bf08      	it	eq
 80005a2:	4770      	bxeq	lr
 80005a4:	b530      	push	{r4, r5, lr}
 80005a6:	f04f 0500 	mov.w	r5, #0
 80005aa:	e00a      	b.n	80005c2 <__aeabi_l2d+0x16>

080005ac <__aeabi_l2d>:
 80005ac:	ea50 0201 	orrs.w	r2, r0, r1
 80005b0:	bf08      	it	eq
 80005b2:	4770      	bxeq	lr
 80005b4:	b530      	push	{r4, r5, lr}
 80005b6:	f011 4500 	ands.w	r5, r1, #2147483648	; 0x80000000
 80005ba:	d502      	bpl.n	80005c2 <__aeabi_l2d+0x16>
 80005bc:	4240      	negs	r0, r0
 80005be:	eb61 0141 	sbc.w	r1, r1, r1, lsl #1
 80005c2:	f44f 6480 	mov.w	r4, #1024	; 0x400
 80005c6:	f104 0432 	add.w	r4, r4, #50	; 0x32
 80005ca:	ea5f 5c91 	movs.w	ip, r1, lsr #22
 80005ce:	f43f aed8 	beq.w	8000382 <__adddf3+0xe6>
 80005d2:	f04f 0203 	mov.w	r2, #3
 80005d6:	ea5f 0cdc 	movs.w	ip, ip, lsr #3
 80005da:	bf18      	it	ne
 80005dc:	3203      	addne	r2, #3
 80005de:	ea5f 0cdc 	movs.w	ip, ip, lsr #3
 80005e2:	bf18      	it	ne
 80005e4:	3203      	addne	r2, #3
 80005e6:	eb02 02dc 	add.w	r2, r2, ip, lsr #3
 80005ea:	f1c2 0320 	rsb	r3, r2, #32
 80005ee:	fa00 fc03 	lsl.w	ip, r0, r3
 80005f2:	fa20 f002 	lsr.w	r0, r0, r2
 80005f6:	fa01 fe03 	lsl.w	lr, r1, r3
 80005fa:	ea40 000e 	orr.w	r0, r0, lr
 80005fe:	fa21 f102 	lsr.w	r1, r1, r2
 8000602:	4414      	add	r4, r2
 8000604:	e6bd      	b.n	8000382 <__adddf3+0xe6>
 8000606:	bf00      	nop

08000608 <__aeabi_dmul>:
 8000608:	b570      	push	{r4, r5, r6, lr}
 800060a:	f04f 0cff 	mov.w	ip, #255	; 0xff
 800060e:	f44c 6ce0 	orr.w	ip, ip, #1792	; 0x700
 8000612:	ea1c 5411 	ands.w	r4, ip, r1, lsr #20
 8000616:	bf1d      	ittte	ne
 8000618:	ea1c 5513 	andsne.w	r5, ip, r3, lsr #20
 800061c:	ea94 0f0c 	teqne	r4, ip
 8000620:	ea95 0f0c 	teqne	r5, ip
 8000624:	f000 f8de 	bleq	80007e4 <__aeabi_dmul+0x1dc>
 8000628:	442c      	add	r4, r5
 800062a:	ea81 0603 	eor.w	r6, r1, r3
 800062e:	ea21 514c 	bic.w	r1, r1, ip, lsl #21
 8000632:	ea23 534c 	bic.w	r3, r3, ip, lsl #21
 8000636:	ea50 3501 	orrs.w	r5, r0, r1, lsl #12
 800063a:	bf18      	it	ne
 800063c:	ea52 3503 	orrsne.w	r5, r2, r3, lsl #12
 8000640:	f441 1180 	orr.w	r1, r1, #1048576	; 0x100000
 8000644:	f443 1380 	orr.w	r3, r3, #1048576	; 0x100000
 8000648:	d038      	beq.n	80006bc <__aeabi_dmul+0xb4>
 800064a:	fba0 ce02 	umull	ip, lr, r0, r2
 800064e:	f04f 0500 	mov.w	r5, #0
 8000652:	fbe1 e502 	umlal	lr, r5, r1, r2
 8000656:	f006 4200 	and.w	r2, r6, #2147483648	; 0x80000000
 800065a:	fbe0 e503 	umlal	lr, r5, r0, r3
 800065e:	f04f 0600 	mov.w	r6, #0
 8000662:	fbe1 5603 	umlal	r5, r6, r1, r3
 8000666:	f09c 0f00 	teq	ip, #0
 800066a:	bf18      	it	ne
 800066c:	f04e 0e01 	orrne.w	lr, lr, #1
 8000670:	f1a4 04ff 	sub.w	r4, r4, #255	; 0xff
 8000674:	f5b6 7f00 	cmp.w	r6, #512	; 0x200
 8000678:	f564 7440 	sbc.w	r4, r4, #768	; 0x300
 800067c:	d204      	bcs.n	8000688 <__aeabi_dmul+0x80>
 800067e:	ea5f 0e4e 	movs.w	lr, lr, lsl #1
 8000682:	416d      	adcs	r5, r5
 8000684:	eb46 0606 	adc.w	r6, r6, r6
 8000688:	ea42 21c6 	orr.w	r1, r2, r6, lsl #11
 800068c:	ea41 5155 	orr.w	r1, r1, r5, lsr #21
 8000690:	ea4f 20c5 	mov.w	r0, r5, lsl #11
 8000694:	ea40 505e 	orr.w	r0, r0, lr, lsr #21
 8000698:	ea4f 2ece 	mov.w	lr, lr, lsl #11
 800069c:	f1b4 0cfd 	subs.w	ip, r4, #253	; 0xfd
 80006a0:	bf88      	it	hi
 80006a2:	f5bc 6fe0 	cmphi.w	ip, #1792	; 0x700
 80006a6:	d81e      	bhi.n	80006e6 <__aeabi_dmul+0xde>
 80006a8:	f1be 4f00 	cmp.w	lr, #2147483648	; 0x80000000
 80006ac:	bf08      	it	eq
 80006ae:	ea5f 0e50 	movseq.w	lr, r0, lsr #1
 80006b2:	f150 0000 	adcs.w	r0, r0, #0
 80006b6:	eb41 5104 	adc.w	r1, r1, r4, lsl #20
 80006ba:	bd70      	pop	{r4, r5, r6, pc}
 80006bc:	f006 4600 	and.w	r6, r6, #2147483648	; 0x80000000
 80006c0:	ea46 0101 	orr.w	r1, r6, r1
 80006c4:	ea40 0002 	orr.w	r0, r0, r2
 80006c8:	ea81 0103 	eor.w	r1, r1, r3
 80006cc:	ebb4 045c 	subs.w	r4, r4, ip, lsr #1
 80006d0:	bfc2      	ittt	gt
 80006d2:	ebd4 050c 	rsbsgt	r5, r4, ip
 80006d6:	ea41 5104 	orrgt.w	r1, r1, r4, lsl #20
 80006da:	bd70      	popgt	{r4, r5, r6, pc}
 80006dc:	f441 1180 	orr.w	r1, r1, #1048576	; 0x100000
 80006e0:	f04f 0e00 	mov.w	lr, #0
 80006e4:	3c01      	subs	r4, #1
 80006e6:	f300 80ab 	bgt.w	8000840 <__aeabi_dmul+0x238>
 80006ea:	f114 0f36 	cmn.w	r4, #54	; 0x36
 80006ee:	bfde      	ittt	le
 80006f0:	2000      	movle	r0, #0
 80006f2:	f001 4100 	andle.w	r1, r1, #2147483648	; 0x80000000
 80006f6:	bd70      	pople	{r4, r5, r6, pc}
 80006f8:	f1c4 0400 	rsb	r4, r4, #0
 80006fc:	3c20      	subs	r4, #32
 80006fe:	da35      	bge.n	800076c <__aeabi_dmul+0x164>
 8000700:	340c      	adds	r4, #12
 8000702:	dc1b      	bgt.n	800073c <__aeabi_dmul+0x134>
 8000704:	f104 0414 	add.w	r4, r4, #20
 8000708:	f1c4 0520 	rsb	r5, r4, #32
 800070c:	fa00 f305 	lsl.w	r3, r0, r5
 8000710:	fa20 f004 	lsr.w	r0, r0, r4
 8000714:	fa01 f205 	lsl.w	r2, r1, r5
 8000718:	ea40 0002 	orr.w	r0, r0, r2
 800071c:	f001 4200 	and.w	r2, r1, #2147483648	; 0x80000000
 8000720:	f021 4100 	bic.w	r1, r1, #2147483648	; 0x80000000
 8000724:	eb10 70d3 	adds.w	r0, r0, r3, lsr #31
 8000728:	fa21 f604 	lsr.w	r6, r1, r4
 800072c:	eb42 0106 	adc.w	r1, r2, r6
 8000730:	ea5e 0e43 	orrs.w	lr, lr, r3, lsl #1
 8000734:	bf08      	it	eq
 8000736:	ea20 70d3 	biceq.w	r0, r0, r3, lsr #31
 800073a:	bd70      	pop	{r4, r5, r6, pc}
 800073c:	f1c4 040c 	rsb	r4, r4, #12
 8000740:	f1c4 0520 	rsb	r5, r4, #32
 8000744:	fa00 f304 	lsl.w	r3, r0, r4
 8000748:	fa20 f005 	lsr.w	r0, r0, r5
 800074c:	fa01 f204 	lsl.w	r2, r1, r4
 8000750:	ea40 0002 	orr.w	r0, r0, r2
 8000754:	f001 4100 	and.w	r1, r1, #2147483648	; 0x80000000
 8000758:	eb10 70d3 	adds.w	r0, r0, r3, lsr #31
 800075c:	f141 0100 	adc.w	r1, r1, #0
 8000760:	ea5e 0e43 	orrs.w	lr, lr, r3, lsl #1
 8000764:	bf08      	it	eq
 8000766:	ea20 70d3 	biceq.w	r0, r0, r3, lsr #31
 800076a:	bd70      	pop	{r4, r5, r6, pc}
 800076c:	f1c4 0520 	rsb	r5, r4, #32
 8000770:	fa00 f205 	lsl.w	r2, r0, r5
 8000774:	ea4e 0e02 	orr.w	lr, lr, r2
 8000778:	fa20 f304 	lsr.w	r3, r0, r4
 800077c:	fa01 f205 	lsl.w	r2, r1, r5
 8000780:	ea43 0302 	orr.w	r3, r3, r2
 8000784:	fa21 f004 	lsr.w	r0, r1, r4
 8000788:	f001 4100 	and.w	r1, r1, #2147483648	; 0x80000000
 800078c:	fa21 f204 	lsr.w	r2, r1, r4
 8000790:	ea20 0002 	bic.w	r0, r0, r2
 8000794:	eb00 70d3 	add.w	r0, r0, r3, lsr #31
 8000798:	ea5e 0e43 	orrs.w	lr, lr, r3, lsl #1
 800079c:	bf08      	it	eq
 800079e:	ea20 70d3 	biceq.w	r0, r0, r3, lsr #31
 80007a2:	bd70      	pop	{r4, r5, r6, pc}
 80007a4:	f094 0f00 	teq	r4, #0
 80007a8:	d10f      	bne.n	80007ca <__aeabi_dmul+0x1c2>
 80007aa:	f001 4600 	and.w	r6, r1, #2147483648	; 0x80000000
 80007ae:	0040      	lsls	r0, r0, #1
 80007b0:	eb41 0101 	adc.w	r1, r1, r1
 80007b4:	f411 1f80 	tst.w	r1, #1048576	; 0x100000
 80007b8:	bf08      	it	eq
 80007ba:	3c01      	subeq	r4, #1
 80007bc:	d0f7      	beq.n	80007ae <__aeabi_dmul+0x1a6>
 80007be:	ea41 0106 	orr.w	r1, r1, r6
 80007c2:	f095 0f00 	teq	r5, #0
 80007c6:	bf18      	it	ne
 80007c8:	4770      	bxne	lr
 80007ca:	f003 4600 	and.w	r6, r3, #2147483648	; 0x80000000
 80007ce:	0052      	lsls	r2, r2, #1
 80007d0:	eb43 0303 	adc.w	r3, r3, r3
 80007d4:	f413 1f80 	tst.w	r3, #1048576	; 0x100000
 80007d8:	bf08      	it	eq
 80007da:	3d01      	subeq	r5, #1
 80007dc:	d0f7      	beq.n	80007ce <__aeabi_dmul+0x1c6>
 80007de:	ea43 0306 	orr.w	r3, r3, r6
 80007e2:	4770      	bx	lr
 80007e4:	ea94 0f0c 	teq	r4, ip
 80007e8:	ea0c 5513 	and.w	r5, ip, r3, lsr #20
 80007ec:	bf18      	it	ne
 80007ee:	ea95 0f0c 	teqne	r5, ip
 80007f2:	d00c      	beq.n	800080e <__aeabi_dmul+0x206>
 80007f4:	ea50 0641 	orrs.w	r6, r0, r1, lsl #1
 80007f8:	bf18      	it	ne
 80007fa:	ea52 0643 	orrsne.w	r6, r2, r3, lsl #1
 80007fe:	d1d1      	bne.n	80007a4 <__aeabi_dmul+0x19c>
 8000800:	ea81 0103 	eor.w	r1, r1, r3
 8000804:	f001 4100 	and.w	r1, r1, #2147483648	; 0x80000000
 8000808:	f04f 0000 	mov.w	r0, #0
 800080c:	bd70      	pop	{r4, r5, r6, pc}
 800080e:	ea50 0641 	orrs.w	r6, r0, r1, lsl #1
 8000812:	bf06      	itte	eq
 8000814:	4610      	moveq	r0, r2
 8000816:	4619      	moveq	r1, r3
 8000818:	ea52 0643 	orrsne.w	r6, r2, r3, lsl #1
 800081c:	d019      	beq.n	8000852 <__aeabi_dmul+0x24a>
 800081e:	ea94 0f0c 	teq	r4, ip
 8000822:	d102      	bne.n	800082a <__aeabi_dmul+0x222>
 8000824:	ea50 3601 	orrs.w	r6, r0, r1, lsl #12
 8000828:	d113      	bne.n	8000852 <__aeabi_dmul+0x24a>
 800082a:	ea95 0f0c 	teq	r5, ip
 800082e:	d105      	bne.n	800083c <__aeabi_dmul+0x234>
 8000830:	ea52 3603 	orrs.w	r6, r2, r3, lsl #12
 8000834:	bf1c      	itt	ne
 8000836:	4610      	movne	r0, r2
 8000838:	4619      	movne	r1, r3
 800083a:	d10a      	bne.n	8000852 <__aeabi_dmul+0x24a>
 800083c:	ea81 0103 	eor.w	r1, r1, r3
 8000840:	f001 4100 	and.w	r1, r1, #2147483648	; 0x80000000
 8000844:	f041 41fe 	orr.w	r1, r1, #2130706432	; 0x7f000000
 8000848:	f441 0170 	orr.w	r1, r1, #15728640	; 0xf00000
 800084c:	f04f 0000 	mov.w	r0, #0
 8000850:	bd70      	pop	{r4, r5, r6, pc}
 8000852:	f041 41fe 	orr.w	r1, r1, #2130706432	; 0x7f000000
 8000856:	f441 0178 	orr.w	r1, r1, #16252928	; 0xf80000
 800085a:	bd70      	pop	{r4, r5, r6, pc}

0800085c <__aeabi_ddiv>:
 800085c:	b570      	push	{r4, r5, r6, lr}
 800085e:	f04f 0cff 	mov.w	ip, #255	; 0xff
 8000862:	f44c 6ce0 	orr.w	ip, ip, #1792	; 0x700
 8000866:	ea1c 5411 	ands.w	r4, ip, r1, lsr #20
 800086a:	bf1d      	ittte	ne
 800086c:	ea1c 5513 	andsne.w	r5, ip, r3, lsr #20
 8000870:	ea94 0f0c 	teqne	r4, ip
 8000874:	ea95 0f0c 	teqne	r5, ip
 8000878:	f000 f8a7 	bleq	80009ca <__aeabi_ddiv+0x16e>
 800087c:	eba4 0405 	sub.w	r4, r4, r5
 8000880:	ea81 0e03 	eor.w	lr, r1, r3
 8000884:	ea52 3503 	orrs.w	r5, r2, r3, lsl #12
 8000888:	ea4f 3101 	mov.w	r1, r1, lsl #12
 800088c:	f000 8088 	beq.w	80009a0 <__aeabi_ddiv+0x144>
 8000890:	ea4f 3303 	mov.w	r3, r3, lsl #12
 8000894:	f04f 5580 	mov.w	r5, #268435456	; 0x10000000
 8000898:	ea45 1313 	orr.w	r3, r5, r3, lsr #4
 800089c:	ea43 6312 	orr.w	r3, r3, r2, lsr #24
 80008a0:	ea4f 2202 	mov.w	r2, r2, lsl #8
 80008a4:	ea45 1511 	orr.w	r5, r5, r1, lsr #4
 80008a8:	ea45 6510 	orr.w	r5, r5, r0, lsr #24
 80008ac:	ea4f 2600 	mov.w	r6, r0, lsl #8
 80008b0:	f00e 4100 	and.w	r1, lr, #2147483648	; 0x80000000
 80008b4:	429d      	cmp	r5, r3
 80008b6:	bf08      	it	eq
 80008b8:	4296      	cmpeq	r6, r2
 80008ba:	f144 04fd 	adc.w	r4, r4, #253	; 0xfd
 80008be:	f504 7440 	add.w	r4, r4, #768	; 0x300
 80008c2:	d202      	bcs.n	80008ca <__aeabi_ddiv+0x6e>
 80008c4:	085b      	lsrs	r3, r3, #1
 80008c6:	ea4f 0232 	mov.w	r2, r2, rrx
 80008ca:	1ab6      	subs	r6, r6, r2
 80008cc:	eb65 0503 	sbc.w	r5, r5, r3
 80008d0:	085b      	lsrs	r3, r3, #1
 80008d2:	ea4f 0232 	mov.w	r2, r2, rrx
 80008d6:	f44f 1080 	mov.w	r0, #1048576	; 0x100000
 80008da:	f44f 2c00 	mov.w	ip, #524288	; 0x80000
 80008de:	ebb6 0e02 	subs.w	lr, r6, r2
 80008e2:	eb75 0e03 	sbcs.w	lr, r5, r3
 80008e6:	bf22      	ittt	cs
 80008e8:	1ab6      	subcs	r6, r6, r2
 80008ea:	4675      	movcs	r5, lr
 80008ec:	ea40 000c 	orrcs.w	r0, r0, ip
 80008f0:	085b      	lsrs	r3, r3, #1
 80008f2:	ea4f 0232 	mov.w	r2, r2, rrx
 80008f6:	ebb6 0e02 	subs.w	lr, r6, r2
 80008fa:	eb75 0e03 	sbcs.w	lr, r5, r3
 80008fe:	bf22      	ittt	cs
 8000900:	1ab6      	subcs	r6, r6, r2
 8000902:	4675      	movcs	r5, lr
 8000904:	ea40 005c 	orrcs.w	r0, r0, ip, lsr #1
 8000908:	085b      	lsrs	r3, r3, #1
 800090a:	ea4f 0232 	mov.w	r2, r2, rrx
 800090e:	ebb6 0e02 	subs.w	lr, r6, r2
 8000912:	eb75 0e03 	sbcs.w	lr, r5, r3
 8000916:	bf22      	ittt	cs
 8000918:	1ab6      	subcs	r6, r6, r2
 800091a:	4675      	movcs	r5, lr
 800091c:	ea40 009c 	orrcs.w	r0, r0, ip, lsr #2
 8000920:	085b      	lsrs	r3, r3, #1
 8000922:	ea4f 0232 	mov.w	r2, r2, rrx
 8000926:	ebb6 0e02 	subs.w	lr, r6, r2
 800092a:	eb75 0e03 	sbcs.w	lr, r5, r3
 800092e:	bf22      	ittt	cs
 8000930:	1ab6      	subcs	r6, r6, r2
 8000932:	4675      	movcs	r5, lr
 8000934:	ea40 00dc 	orrcs.w	r0, r0, ip, lsr #3
 8000938:	ea55 0e06 	orrs.w	lr, r5, r6
 800093c:	d018      	beq.n	8000970 <__aeabi_ddiv+0x114>
 800093e:	ea4f 1505 	mov.w	r5, r5, lsl #4
 8000942:	ea45 7516 	orr.w	r5, r5, r6, lsr #28
 8000946:	ea4f 1606 	mov.w	r6, r6, lsl #4
 800094a:	ea4f 03c3 	mov.w	r3, r3, lsl #3
 800094e:	ea43 7352 	orr.w	r3, r3, r2, lsr #29
 8000952:	ea4f 02c2 	mov.w	r2, r2, lsl #3
 8000956:	ea5f 1c1c 	movs.w	ip, ip, lsr #4
 800095a:	d1c0      	bne.n	80008de <__aeabi_ddiv+0x82>
 800095c:	f411 1f80 	tst.w	r1, #1048576	; 0x100000
 8000960:	d10b      	bne.n	800097a <__aeabi_ddiv+0x11e>
 8000962:	ea41 0100 	orr.w	r1, r1, r0
 8000966:	f04f 0000 	mov.w	r0, #0
 800096a:	f04f 4c00 	mov.w	ip, #2147483648	; 0x80000000
 800096e:	e7b6      	b.n	80008de <__aeabi_ddiv+0x82>
 8000970:	f411 1f80 	tst.w	r1, #1048576	; 0x100000
 8000974:	bf04      	itt	eq
 8000976:	4301      	orreq	r1, r0
 8000978:	2000      	moveq	r0, #0
 800097a:	f1b4 0cfd 	subs.w	ip, r4, #253	; 0xfd
 800097e:	bf88      	it	hi
 8000980:	f5bc 6fe0 	cmphi.w	ip, #1792	; 0x700
 8000984:	f63f aeaf 	bhi.w	80006e6 <__aeabi_dmul+0xde>
 8000988:	ebb5 0c03 	subs.w	ip, r5, r3
 800098c:	bf04      	itt	eq
 800098e:	ebb6 0c02 	subseq.w	ip, r6, r2
 8000992:	ea5f 0c50 	movseq.w	ip, r0, lsr #1
 8000996:	f150 0000 	adcs.w	r0, r0, #0
 800099a:	eb41 5104 	adc.w	r1, r1, r4, lsl #20
 800099e:	bd70      	pop	{r4, r5, r6, pc}
 80009a0:	f00e 4e00 	and.w	lr, lr, #2147483648	; 0x80000000
 80009a4:	ea4e 3111 	orr.w	r1, lr, r1, lsr #12
 80009a8:	eb14 045c 	adds.w	r4, r4, ip, lsr #1
 80009ac:	bfc2      	ittt	gt
 80009ae:	ebd4 050c 	rsbsgt	r5, r4, ip
 80009b2:	ea41 5104 	orrgt.w	r1, r1, r4, lsl #20
 80009b6:	bd70      	popgt	{r4, r5, r6, pc}
 80009b8:	f441 1180 	orr.w	r1, r1, #1048576	; 0x100000
 80009bc:	f04f 0e00 	mov.w	lr, #0
 80009c0:	3c01      	subs	r4, #1
 80009c2:	e690      	b.n	80006e6 <__aeabi_dmul+0xde>
 80009c4:	ea45 0e06 	orr.w	lr, r5, r6
 80009c8:	e68d      	b.n	80006e6 <__aeabi_dmul+0xde>
 80009ca:	ea0c 5513 	and.w	r5, ip, r3, lsr #20
 80009ce:	ea94 0f0c 	teq	r4, ip
 80009d2:	bf08      	it	eq
 80009d4:	ea95 0f0c 	teqeq	r5, ip
 80009d8:	f43f af3b 	beq.w	8000852 <__aeabi_dmul+0x24a>
 80009dc:	ea94 0f0c 	teq	r4, ip
 80009e0:	d10a      	bne.n	80009f8 <__aeabi_ddiv+0x19c>
 80009e2:	ea50 3401 	orrs.w	r4, r0, r1, lsl #12
 80009e6:	f47f af34 	bne.w	8000852 <__aeabi_dmul+0x24a>
 80009ea:	ea95 0f0c 	teq	r5, ip
 80009ee:	f47f af25 	bne.w	800083c <__aeabi_dmul+0x234>
 80009f2:	4610      	mov	r0, r2
 80009f4:	4619      	mov	r1, r3
 80009f6:	e72c      	b.n	8000852 <__aeabi_dmul+0x24a>
 80009f8:	ea95 0f0c 	teq	r5, ip
 80009fc:	d106      	bne.n	8000a0c <__aeabi_ddiv+0x1b0>
 80009fe:	ea52 3503 	orrs.w	r5, r2, r3, lsl #12
 8000a02:	f43f aefd 	beq.w	8000800 <__aeabi_dmul+0x1f8>
 8000a06:	4610      	mov	r0, r2
 8000a08:	4619      	mov	r1, r3
 8000a0a:	e722      	b.n	8000852 <__aeabi_dmul+0x24a>
 8000a0c:	ea50 0641 	orrs.w	r6, r0, r1, lsl #1
 8000a10:	bf18      	it	ne
 8000a12:	ea52 0643 	orrsne.w	r6, r2, r3, lsl #1
 8000a16:	f47f aec5 	bne.w	80007a4 <__aeabi_dmul+0x19c>
 8000a1a:	ea50 0441 	orrs.w	r4, r0, r1, lsl #1
 8000a1e:	f47f af0d 	bne.w	800083c <__aeabi_dmul+0x234>
 8000a22:	ea52 0543 	orrs.w	r5, r2, r3, lsl #1
 8000a26:	f47f aeeb 	bne.w	8000800 <__aeabi_dmul+0x1f8>
 8000a2a:	e712      	b.n	8000852 <__aeabi_dmul+0x24a>

08000a2c <__gedf2>:
 8000a2c:	f04f 3cff 	mov.w	ip, #4294967295
 8000a30:	e006      	b.n	8000a40 <__cmpdf2+0x4>
 8000a32:	bf00      	nop

08000a34 <__ledf2>:
 8000a34:	f04f 0c01 	mov.w	ip, #1
 8000a38:	e002      	b.n	8000a40 <__cmpdf2+0x4>
 8000a3a:	bf00      	nop

08000a3c <__cmpdf2>:
 8000a3c:	f04f 0c01 	mov.w	ip, #1
 8000a40:	f84d cd04 	str.w	ip, [sp, #-4]!
 8000a44:	ea4f 0c41 	mov.w	ip, r1, lsl #1
 8000a48:	ea7f 5c6c 	mvns.w	ip, ip, asr #21
 8000a4c:	ea4f 0c43 	mov.w	ip, r3, lsl #1
 8000a50:	bf18      	it	ne
 8000a52:	ea7f 5c6c 	mvnsne.w	ip, ip, asr #21
 8000a56:	d01b      	beq.n	8000a90 <__cmpdf2+0x54>
 8000a58:	b001      	add	sp, #4
 8000a5a:	ea50 0c41 	orrs.w	ip, r0, r1, lsl #1
 8000a5e:	bf0c      	ite	eq
 8000a60:	ea52 0c43 	orrseq.w	ip, r2, r3, lsl #1
 8000a64:	ea91 0f03 	teqne	r1, r3
 8000a68:	bf02      	ittt	eq
 8000a6a:	ea90 0f02 	teqeq	r0, r2
 8000a6e:	2000      	moveq	r0, #0
 8000a70:	4770      	bxeq	lr
 8000a72:	f110 0f00 	cmn.w	r0, #0
 8000a76:	ea91 0f03 	teq	r1, r3
 8000a7a:	bf58      	it	pl
 8000a7c:	4299      	cmppl	r1, r3
 8000a7e:	bf08      	it	eq
 8000a80:	4290      	cmpeq	r0, r2
 8000a82:	bf2c      	ite	cs
 8000a84:	17d8      	asrcs	r0, r3, #31
 8000a86:	ea6f 70e3 	mvncc.w	r0, r3, asr #31
 8000a8a:	f040 0001 	orr.w	r0, r0, #1
 8000a8e:	4770      	bx	lr
 8000a90:	ea4f 0c41 	mov.w	ip, r1, lsl #1
 8000a94:	ea7f 5c6c 	mvns.w	ip, ip, asr #21
 8000a98:	d102      	bne.n	8000aa0 <__cmpdf2+0x64>
 8000a9a:	ea50 3c01 	orrs.w	ip, r0, r1, lsl #12
 8000a9e:	d107      	bne.n	8000ab0 <__cmpdf2+0x74>
 8000aa0:	ea4f 0c43 	mov.w	ip, r3, lsl #1
 8000aa4:	ea7f 5c6c 	mvns.w	ip, ip, asr #21
 8000aa8:	d1d6      	bne.n	8000a58 <__cmpdf2+0x1c>
 8000aaa:	ea52 3c03 	orrs.w	ip, r2, r3, lsl #12
 8000aae:	d0d3      	beq.n	8000a58 <__cmpdf2+0x1c>
 8000ab0:	f85d 0b04 	ldr.w	r0, [sp], #4
 8000ab4:	4770      	bx	lr
 8000ab6:	bf00      	nop

08000ab8 <__aeabi_cdrcmple>:
 8000ab8:	4684      	mov	ip, r0
 8000aba:	4610      	mov	r0, r2
 8000abc:	4662      	mov	r2, ip
 8000abe:	468c      	mov	ip, r1
 8000ac0:	4619      	mov	r1, r3
 8000ac2:	4663      	mov	r3, ip
 8000ac4:	e000      	b.n	8000ac8 <__aeabi_cdcmpeq>
 8000ac6:	bf00      	nop

08000ac8 <__aeabi_cdcmpeq>:
 8000ac8:	b501      	push	{r0, lr}
 8000aca:	f7ff ffb7 	bl	8000a3c <__cmpdf2>
 8000ace:	2800      	cmp	r0, #0
 8000ad0:	bf48      	it	mi
 8000ad2:	f110 0f00 	cmnmi.w	r0, #0
 8000ad6:	bd01      	pop	{r0, pc}

08000ad8 <__aeabi_dcmpeq>:
 8000ad8:	f84d ed08 	str.w	lr, [sp, #-8]!
 8000adc:	f7ff fff4 	bl	8000ac8 <__aeabi_cdcmpeq>
 8000ae0:	bf0c      	ite	eq
 8000ae2:	2001      	moveq	r0, #1
 8000ae4:	2000      	movne	r0, #0
 8000ae6:	f85d fb08 	ldr.w	pc, [sp], #8
 8000aea:	bf00      	nop

08000aec <__aeabi_dcmplt>:
 8000aec:	f84d ed08 	str.w	lr, [sp, #-8]!
 8000af0:	f7ff ffea 	bl	8000ac8 <__aeabi_cdcmpeq>
 8000af4:	bf34      	ite	cc
 8000af6:	2001      	movcc	r0, #1
 8000af8:	2000      	movcs	r0, #0
 8000afa:	f85d fb08 	ldr.w	pc, [sp], #8
 8000afe:	bf00      	nop

08000b00 <__aeabi_dcmple>:
 8000b00:	f84d ed08 	str.w	lr, [sp, #-8]!
 8000b04:	f7ff ffe0 	bl	8000ac8 <__aeabi_cdcmpeq>
 8000b08:	bf94      	ite	ls
 8000b0a:	2001      	movls	r0, #1
 8000b0c:	2000      	movhi	r0, #0
 8000b0e:	f85d fb08 	ldr.w	pc, [sp], #8
 8000b12:	bf00      	nop

08000b14 <__aeabi_dcmpge>:
 8000b14:	f84d ed08 	str.w	lr, [sp, #-8]!
 8000b18:	f7ff ffce 	bl	8000ab8 <__aeabi_cdrcmple>
 8000b1c:	bf94      	ite	ls
 8000b1e:	2001      	movls	r0, #1
 8000b20:	2000      	movhi	r0, #0
 8000b22:	f85d fb08 	ldr.w	pc, [sp], #8
 8000b26:	bf00      	nop

08000b28 <__aeabi_dcmpgt>:
 8000b28:	f84d ed08 	str.w	lr, [sp, #-8]!
 8000b2c:	f7ff ffc4 	bl	8000ab8 <__aeabi_cdrcmple>
 8000b30:	bf34      	ite	cc
 8000b32:	2001      	movcc	r0, #1
 8000b34:	2000      	movcs	r0, #0
 8000b36:	f85d fb08 	ldr.w	pc, [sp], #8
 8000b3a:	bf00      	nop

08000b3c <__aeabi_dcmpun>:
 8000b3c:	ea4f 0c41 	mov.w	ip, r1, lsl #1
 8000b40:	ea7f 5c6c 	mvns.w	ip, ip, asr #21
 8000b44:	d102      	bne.n	8000b4c <__aeabi_dcmpun+0x10>
 8000b46:	ea50 3c01 	orrs.w	ip, r0, r1, lsl #12
 8000b4a:	d10a      	bne.n	8000b62 <__aeabi_dcmpun+0x26>
 8000b4c:	ea4f 0c43 	mov.w	ip, r3, lsl #1
 8000b50:	ea7f 5c6c 	mvns.w	ip, ip, asr #21
 8000b54:	d102      	bne.n	8000b5c <__aeabi_dcmpun+0x20>
 8000b56:	ea52 3c03 	orrs.w	ip, r2, r3, lsl #12
 8000b5a:	d102      	bne.n	8000b62 <__aeabi_dcmpun+0x26>
 8000b5c:	f04f 0000 	mov.w	r0, #0
 8000b60:	4770      	bx	lr
 8000b62:	f04f 0001 	mov.w	r0, #1
 8000b66:	4770      	bx	lr

08000b68 <__aeabi_d2iz>:
 8000b68:	ea4f 0241 	mov.w	r2, r1, lsl #1
 8000b6c:	f512 1200 	adds.w	r2, r2, #2097152	; 0x200000
 8000b70:	d215      	bcs.n	8000b9e <__aeabi_d2iz+0x36>
 8000b72:	d511      	bpl.n	8000b98 <__aeabi_d2iz+0x30>
 8000b74:	f46f 7378 	mvn.w	r3, #992	; 0x3e0
 8000b78:	ebb3 5262 	subs.w	r2, r3, r2, asr #21
 8000b7c:	d912      	bls.n	8000ba4 <__aeabi_d2iz+0x3c>
 8000b7e:	ea4f 23c1 	mov.w	r3, r1, lsl #11
 8000b82:	f043 4300 	orr.w	r3, r3, #2147483648	; 0x80000000
 8000b86:	ea43 5350 	orr.w	r3, r3, r0, lsr #21
 8000b8a:	f011 4f00 	tst.w	r1, #2147483648	; 0x80000000
 8000b8e:	fa23 f002 	lsr.w	r0, r3, r2
 8000b92:	bf18      	it	ne
 8000b94:	4240      	negne	r0, r0
 8000b96:	4770      	bx	lr
 8000b98:	f04f 0000 	mov.w	r0, #0
 8000b9c:	4770      	bx	lr
 8000b9e:	ea50 3001 	orrs.w	r0, r0, r1, lsl #12
 8000ba2:	d105      	bne.n	8000bb0 <__aeabi_d2iz+0x48>
 8000ba4:	f011 4000 	ands.w	r0, r1, #2147483648	; 0x80000000
 8000ba8:	bf08      	it	eq
 8000baa:	f06f 4000 	mvneq.w	r0, #2147483648	; 0x80000000
 8000bae:	4770      	bx	lr
 8000bb0:	f04f 0000 	mov.w	r0, #0
 8000bb4:	4770      	bx	lr
 8000bb6:	bf00      	nop

08000bb8 <__aeabi_d2uiz>:
 8000bb8:	004a      	lsls	r2, r1, #1
 8000bba:	d211      	bcs.n	8000be0 <__aeabi_d2uiz+0x28>
 8000bbc:	f512 1200 	adds.w	r2, r2, #2097152	; 0x200000
 8000bc0:	d211      	bcs.n	8000be6 <__aeabi_d2uiz+0x2e>
 8000bc2:	d50d      	bpl.n	8000be0 <__aeabi_d2uiz+0x28>
 8000bc4:	f46f 7378 	mvn.w	r3, #992	; 0x3e0
 8000bc8:	ebb3 5262 	subs.w	r2, r3, r2, asr #21
 8000bcc:	d40e      	bmi.n	8000bec <__aeabi_d2uiz+0x34>
 8000bce:	ea4f 23c1 	mov.w	r3, r1, lsl #11
 8000bd2:	f043 4300 	orr.w	r3, r3, #2147483648	; 0x80000000
 8000bd6:	ea43 5350 	orr.w	r3, r3, r0, lsr #21
 8000bda:	fa23 f002 	lsr.w	r0, r3, r2
 8000bde:	4770      	bx	lr
 8000be0:	f04f 0000 	mov.w	r0, #0
 8000be4:	4770      	bx	lr
 8000be6:	ea50 3001 	orrs.w	r0, r0, r1, lsl #12
 8000bea:	d102      	bne.n	8000bf2 <__aeabi_d2uiz+0x3a>
 8000bec:	f04f 30ff 	mov.w	r0, #4294967295
 8000bf0:	4770      	bx	lr
 8000bf2:	f04f 0000 	mov.w	r0, #0
 8000bf6:	4770      	bx	lr

08000bf8 <__aeabi_d2f>:
 8000bf8:	ea4f 0241 	mov.w	r2, r1, lsl #1
 8000bfc:	f1b2 43e0 	subs.w	r3, r2, #1879048192	; 0x70000000
 8000c00:	bf24      	itt	cs
 8000c02:	f5b3 1c00 	subscs.w	ip, r3, #2097152	; 0x200000
 8000c06:	f1dc 5cfe 	rsbscs	ip, ip, #532676608	; 0x1fc00000
 8000c0a:	d90d      	bls.n	8000c28 <__aeabi_d2f+0x30>
 8000c0c:	f001 4c00 	and.w	ip, r1, #2147483648	; 0x80000000
 8000c10:	ea4f 02c0 	mov.w	r2, r0, lsl #3
 8000c14:	ea4c 7050 	orr.w	r0, ip, r0, lsr #29
 8000c18:	f1b2 4f00 	cmp.w	r2, #2147483648	; 0x80000000
 8000c1c:	eb40 0083 	adc.w	r0, r0, r3, lsl #2
 8000c20:	bf08      	it	eq
 8000c22:	f020 0001 	biceq.w	r0, r0, #1
 8000c26:	4770      	bx	lr
 8000c28:	f011 4f80 	tst.w	r1, #1073741824	; 0x40000000
 8000c2c:	d121      	bne.n	8000c72 <__aeabi_d2f+0x7a>
 8000c2e:	f113 7238 	adds.w	r2, r3, #48234496	; 0x2e00000
 8000c32:	bfbc      	itt	lt
 8000c34:	f001 4000 	andlt.w	r0, r1, #2147483648	; 0x80000000
 8000c38:	4770      	bxlt	lr
 8000c3a:	f441 1180 	orr.w	r1, r1, #1048576	; 0x100000
 8000c3e:	ea4f 5252 	mov.w	r2, r2, lsr #21
 8000c42:	f1c2 0218 	rsb	r2, r2, #24
 8000c46:	f1c2 0c20 	rsb	ip, r2, #32
 8000c4a:	fa10 f30c 	lsls.w	r3, r0, ip
 8000c4e:	fa20 f002 	lsr.w	r0, r0, r2
 8000c52:	bf18      	it	ne
 8000c54:	f040 0001 	orrne.w	r0, r0, #1
 8000c58:	ea4f 23c1 	mov.w	r3, r1, lsl #11
 8000c5c:	ea4f 23d3 	mov.w	r3, r3, lsr #11
 8000c60:	fa03 fc0c 	lsl.w	ip, r3, ip
 8000c64:	ea40 000c 	orr.w	r0, r0, ip
 8000c68:	fa23 f302 	lsr.w	r3, r3, r2
 8000c6c:	ea4f 0343 	mov.w	r3, r3, lsl #1
 8000c70:	e7cc      	b.n	8000c0c <__aeabi_d2f+0x14>
 8000c72:	ea7f 5362 	mvns.w	r3, r2, asr #21
 8000c76:	d107      	bne.n	8000c88 <__aeabi_d2f+0x90>
 8000c78:	ea50 3301 	orrs.w	r3, r0, r1, lsl #12
 8000c7c:	bf1e      	ittt	ne
 8000c7e:	f04f 40fe 	movne.w	r0, #2130706432	; 0x7f000000
 8000c82:	f440 0040 	orrne.w	r0, r0, #12582912	; 0xc00000
 8000c86:	4770      	bxne	lr
 8000c88:	f001 4000 	and.w	r0, r1, #2147483648	; 0x80000000
 8000c8c:	f040 40fe 	orr.w	r0, r0, #2130706432	; 0x7f000000
 8000c90:	f440 0000 	orr.w	r0, r0, #8388608	; 0x800000
 8000c94:	4770      	bx	lr
 8000c96:	bf00      	nop

08000c98 <__aeabi_uldivmod>:
 8000c98:	b953      	cbnz	r3, 8000cb0 <__aeabi_uldivmod+0x18>
 8000c9a:	b94a      	cbnz	r2, 8000cb0 <__aeabi_uldivmod+0x18>
 8000c9c:	2900      	cmp	r1, #0
 8000c9e:	bf08      	it	eq
 8000ca0:	2800      	cmpeq	r0, #0
 8000ca2:	bf1c      	itt	ne
 8000ca4:	f04f 31ff 	movne.w	r1, #4294967295
 8000ca8:	f04f 30ff 	movne.w	r0, #4294967295
 8000cac:	f000 b9a4 	b.w	8000ff8 <__aeabi_idiv0>
 8000cb0:	f1ad 0c08 	sub.w	ip, sp, #8
 8000cb4:	e96d ce04 	strd	ip, lr, [sp, #-16]!
 8000cb8:	f000 f83c 	bl	8000d34 <__udivmoddi4>
 8000cbc:	f8dd e004 	ldr.w	lr, [sp, #4]
 8000cc0:	e9dd 2302 	ldrd	r2, r3, [sp, #8]
 8000cc4:	b004      	add	sp, #16
 8000cc6:	4770      	bx	lr

08000cc8 <__aeabi_d2lz>:
 8000cc8:	b538      	push	{r3, r4, r5, lr}
 8000cca:	2200      	movs	r2, #0
 8000ccc:	2300      	movs	r3, #0
 8000cce:	4604      	mov	r4, r0
 8000cd0:	460d      	mov	r5, r1
 8000cd2:	f7ff ff0b 	bl	8000aec <__aeabi_dcmplt>
 8000cd6:	b928      	cbnz	r0, 8000ce4 <__aeabi_d2lz+0x1c>
 8000cd8:	4620      	mov	r0, r4
 8000cda:	4629      	mov	r1, r5
 8000cdc:	e8bd 4038 	ldmia.w	sp!, {r3, r4, r5, lr}
 8000ce0:	f000 b80a 	b.w	8000cf8 <__aeabi_d2ulz>
 8000ce4:	4620      	mov	r0, r4
 8000ce6:	f105 4100 	add.w	r1, r5, #2147483648	; 0x80000000
 8000cea:	f000 f805 	bl	8000cf8 <__aeabi_d2ulz>
 8000cee:	4240      	negs	r0, r0
 8000cf0:	eb61 0141 	sbc.w	r1, r1, r1, lsl #1
 8000cf4:	bd38      	pop	{r3, r4, r5, pc}
 8000cf6:	bf00      	nop

08000cf8 <__aeabi_d2ulz>:
 8000cf8:	b5d0      	push	{r4, r6, r7, lr}
 8000cfa:	4b0c      	ldr	r3, [pc, #48]	; (8000d2c <__aeabi_d2ulz+0x34>)
 8000cfc:	2200      	movs	r2, #0
 8000cfe:	4606      	mov	r6, r0
 8000d00:	460f      	mov	r7, r1
 8000d02:	f7ff fc81 	bl	8000608 <__aeabi_dmul>
 8000d06:	f7ff ff57 	bl	8000bb8 <__aeabi_d2uiz>
 8000d0a:	4604      	mov	r4, r0
 8000d0c:	f7ff fc02 	bl	8000514 <__aeabi_ui2d>
 8000d10:	4b07      	ldr	r3, [pc, #28]	; (8000d30 <__aeabi_d2ulz+0x38>)
 8000d12:	2200      	movs	r2, #0
 8000d14:	f7ff fc78 	bl	8000608 <__aeabi_dmul>
 8000d18:	4602      	mov	r2, r0
 8000d1a:	460b      	mov	r3, r1
 8000d1c:	4630      	mov	r0, r6
 8000d1e:	4639      	mov	r1, r7
 8000d20:	f7ff faba 	bl	8000298 <__aeabi_dsub>
 8000d24:	f7ff ff48 	bl	8000bb8 <__aeabi_d2uiz>
 8000d28:	4621      	mov	r1, r4
 8000d2a:	bdd0      	pop	{r4, r6, r7, pc}
 8000d2c:	3df00000 	.word	0x3df00000
 8000d30:	41f00000 	.word	0x41f00000

08000d34 <__udivmoddi4>:
 8000d34:	e92d 47f0 	stmdb	sp!, {r4, r5, r6, r7, r8, r9, sl, lr}
 8000d38:	9d08      	ldr	r5, [sp, #32]
 8000d3a:	4604      	mov	r4, r0
 8000d3c:	468c      	mov	ip, r1
 8000d3e:	2b00      	cmp	r3, #0
 8000d40:	f040 8083 	bne.w	8000e4a <__udivmoddi4+0x116>
 8000d44:	428a      	cmp	r2, r1
 8000d46:	4617      	mov	r7, r2
 8000d48:	d947      	bls.n	8000dda <__udivmoddi4+0xa6>
 8000d4a:	fab2 f282 	clz	r2, r2
 8000d4e:	b142      	cbz	r2, 8000d62 <__udivmoddi4+0x2e>
 8000d50:	f1c2 0020 	rsb	r0, r2, #32
 8000d54:	fa24 f000 	lsr.w	r0, r4, r0
 8000d58:	4091      	lsls	r1, r2
 8000d5a:	4097      	lsls	r7, r2
 8000d5c:	ea40 0c01 	orr.w	ip, r0, r1
 8000d60:	4094      	lsls	r4, r2
 8000d62:	ea4f 4817 	mov.w	r8, r7, lsr #16
 8000d66:	0c23      	lsrs	r3, r4, #16
 8000d68:	fbbc f6f8 	udiv	r6, ip, r8
 8000d6c:	fa1f fe87 	uxth.w	lr, r7
 8000d70:	fb08 c116 	mls	r1, r8, r6, ip
 8000d74:	ea43 4301 	orr.w	r3, r3, r1, lsl #16
 8000d78:	fb06 f10e 	mul.w	r1, r6, lr
 8000d7c:	4299      	cmp	r1, r3
 8000d7e:	d909      	bls.n	8000d94 <__udivmoddi4+0x60>
 8000d80:	18fb      	adds	r3, r7, r3
 8000d82:	f106 30ff 	add.w	r0, r6, #4294967295
 8000d86:	f080 8119 	bcs.w	8000fbc <__udivmoddi4+0x288>
 8000d8a:	4299      	cmp	r1, r3
 8000d8c:	f240 8116 	bls.w	8000fbc <__udivmoddi4+0x288>
 8000d90:	3e02      	subs	r6, #2
 8000d92:	443b      	add	r3, r7
 8000d94:	1a5b      	subs	r3, r3, r1
 8000d96:	b2a4      	uxth	r4, r4
 8000d98:	fbb3 f0f8 	udiv	r0, r3, r8
 8000d9c:	fb08 3310 	mls	r3, r8, r0, r3
 8000da0:	ea44 4403 	orr.w	r4, r4, r3, lsl #16
 8000da4:	fb00 fe0e 	mul.w	lr, r0, lr
 8000da8:	45a6      	cmp	lr, r4
 8000daa:	d909      	bls.n	8000dc0 <__udivmoddi4+0x8c>
 8000dac:	193c      	adds	r4, r7, r4
 8000dae:	f100 33ff 	add.w	r3, r0, #4294967295
 8000db2:	f080 8105 	bcs.w	8000fc0 <__udivmoddi4+0x28c>
 8000db6:	45a6      	cmp	lr, r4
 8000db8:	f240 8102 	bls.w	8000fc0 <__udivmoddi4+0x28c>
 8000dbc:	3802      	subs	r0, #2
 8000dbe:	443c      	add	r4, r7
 8000dc0:	ea40 4006 	orr.w	r0, r0, r6, lsl #16
 8000dc4:	eba4 040e 	sub.w	r4, r4, lr
 8000dc8:	2600      	movs	r6, #0
 8000dca:	b11d      	cbz	r5, 8000dd4 <__udivmoddi4+0xa0>
 8000dcc:	40d4      	lsrs	r4, r2
 8000dce:	2300      	movs	r3, #0
 8000dd0:	e9c5 4300 	strd	r4, r3, [r5]
 8000dd4:	4631      	mov	r1, r6
 8000dd6:	e8bd 87f0 	ldmia.w	sp!, {r4, r5, r6, r7, r8, r9, sl, pc}
 8000dda:	b902      	cbnz	r2, 8000dde <__udivmoddi4+0xaa>
 8000ddc:	deff      	udf	#255	; 0xff
 8000dde:	fab2 f282 	clz	r2, r2
 8000de2:	2a00      	cmp	r2, #0
 8000de4:	d150      	bne.n	8000e88 <__udivmoddi4+0x154>
 8000de6:	1bcb      	subs	r3, r1, r7
 8000de8:	ea4f 4e17 	mov.w	lr, r7, lsr #16
 8000dec:	fa1f f887 	uxth.w	r8, r7
 8000df0:	2601      	movs	r6, #1
 8000df2:	fbb3 fcfe 	udiv	ip, r3, lr
 8000df6:	0c21      	lsrs	r1, r4, #16
 8000df8:	fb0e 331c 	mls	r3, lr, ip, r3
 8000dfc:	ea41 4103 	orr.w	r1, r1, r3, lsl #16
 8000e00:	fb08 f30c 	mul.w	r3, r8, ip
 8000e04:	428b      	cmp	r3, r1
 8000e06:	d907      	bls.n	8000e18 <__udivmoddi4+0xe4>
 8000e08:	1879      	adds	r1, r7, r1
 8000e0a:	f10c 30ff 	add.w	r0, ip, #4294967295
 8000e0e:	d202      	bcs.n	8000e16 <__udivmoddi4+0xe2>
 8000e10:	428b      	cmp	r3, r1
 8000e12:	f200 80e9 	bhi.w	8000fe8 <__udivmoddi4+0x2b4>
 8000e16:	4684      	mov	ip, r0
 8000e18:	1ac9      	subs	r1, r1, r3
 8000e1a:	b2a3      	uxth	r3, r4
 8000e1c:	fbb1 f0fe 	udiv	r0, r1, lr
 8000e20:	fb0e 1110 	mls	r1, lr, r0, r1
 8000e24:	ea43 4401 	orr.w	r4, r3, r1, lsl #16
 8000e28:	fb08 f800 	mul.w	r8, r8, r0
 8000e2c:	45a0      	cmp	r8, r4
 8000e2e:	d907      	bls.n	8000e40 <__udivmoddi4+0x10c>
 8000e30:	193c      	adds	r4, r7, r4
 8000e32:	f100 33ff 	add.w	r3, r0, #4294967295
 8000e36:	d202      	bcs.n	8000e3e <__udivmoddi4+0x10a>
 8000e38:	45a0      	cmp	r8, r4
 8000e3a:	f200 80d9 	bhi.w	8000ff0 <__udivmoddi4+0x2bc>
 8000e3e:	4618      	mov	r0, r3
 8000e40:	eba4 0408 	sub.w	r4, r4, r8
 8000e44:	ea40 400c 	orr.w	r0, r0, ip, lsl #16
 8000e48:	e7bf      	b.n	8000dca <__udivmoddi4+0x96>
 8000e4a:	428b      	cmp	r3, r1
 8000e4c:	d909      	bls.n	8000e62 <__udivmoddi4+0x12e>
 8000e4e:	2d00      	cmp	r5, #0
 8000e50:	f000 80b1 	beq.w	8000fb6 <__udivmoddi4+0x282>
 8000e54:	2600      	movs	r6, #0
 8000e56:	e9c5 0100 	strd	r0, r1, [r5]
 8000e5a:	4630      	mov	r0, r6
 8000e5c:	4631      	mov	r1, r6
 8000e5e:	e8bd 87f0 	ldmia.w	sp!, {r4, r5, r6, r7, r8, r9, sl, pc}
 8000e62:	fab3 f683 	clz	r6, r3
 8000e66:	2e00      	cmp	r6, #0
 8000e68:	d14a      	bne.n	8000f00 <__udivmoddi4+0x1cc>
 8000e6a:	428b      	cmp	r3, r1
 8000e6c:	d302      	bcc.n	8000e74 <__udivmoddi4+0x140>
 8000e6e:	4282      	cmp	r2, r0
 8000e70:	f200 80b8 	bhi.w	8000fe4 <__udivmoddi4+0x2b0>
 8000e74:	1a84      	subs	r4, r0, r2
 8000e76:	eb61 0103 	sbc.w	r1, r1, r3
 8000e7a:	2001      	movs	r0, #1
 8000e7c:	468c      	mov	ip, r1
 8000e7e:	2d00      	cmp	r5, #0
 8000e80:	d0a8      	beq.n	8000dd4 <__udivmoddi4+0xa0>
 8000e82:	e9c5 4c00 	strd	r4, ip, [r5]
 8000e86:	e7a5      	b.n	8000dd4 <__udivmoddi4+0xa0>
 8000e88:	f1c2 0320 	rsb	r3, r2, #32
 8000e8c:	fa20 f603 	lsr.w	r6, r0, r3
 8000e90:	4097      	lsls	r7, r2
 8000e92:	fa01 f002 	lsl.w	r0, r1, r2
 8000e96:	ea4f 4e17 	mov.w	lr, r7, lsr #16
 8000e9a:	40d9      	lsrs	r1, r3
 8000e9c:	4330      	orrs	r0, r6
 8000e9e:	0c03      	lsrs	r3, r0, #16
 8000ea0:	fbb1 f6fe 	udiv	r6, r1, lr
 8000ea4:	fa1f f887 	uxth.w	r8, r7
 8000ea8:	fb0e 1116 	mls	r1, lr, r6, r1
 8000eac:	ea43 4301 	orr.w	r3, r3, r1, lsl #16
 8000eb0:	fb06 f108 	mul.w	r1, r6, r8
 8000eb4:	4299      	cmp	r1, r3
 8000eb6:	fa04 f402 	lsl.w	r4, r4, r2
 8000eba:	d909      	bls.n	8000ed0 <__udivmoddi4+0x19c>
 8000ebc:	18fb      	adds	r3, r7, r3
 8000ebe:	f106 3cff 	add.w	ip, r6, #4294967295
 8000ec2:	f080 808d 	bcs.w	8000fe0 <__udivmoddi4+0x2ac>
 8000ec6:	4299      	cmp	r1, r3
 8000ec8:	f240 808a 	bls.w	8000fe0 <__udivmoddi4+0x2ac>
 8000ecc:	3e02      	subs	r6, #2
 8000ece:	443b      	add	r3, r7
 8000ed0:	1a5b      	subs	r3, r3, r1
 8000ed2:	b281      	uxth	r1, r0
 8000ed4:	fbb3 f0fe 	udiv	r0, r3, lr
 8000ed8:	fb0e 3310 	mls	r3, lr, r0, r3
 8000edc:	ea41 4103 	orr.w	r1, r1, r3, lsl #16
 8000ee0:	fb00 f308 	mul.w	r3, r0, r8
 8000ee4:	428b      	cmp	r3, r1
 8000ee6:	d907      	bls.n	8000ef8 <__udivmoddi4+0x1c4>
 8000ee8:	1879      	adds	r1, r7, r1
 8000eea:	f100 3cff 	add.w	ip, r0, #4294967295
 8000eee:	d273      	bcs.n	8000fd8 <__udivmoddi4+0x2a4>
 8000ef0:	428b      	cmp	r3, r1
 8000ef2:	d971      	bls.n	8000fd8 <__udivmoddi4+0x2a4>
 8000ef4:	3802      	subs	r0, #2
 8000ef6:	4439      	add	r1, r7
 8000ef8:	1acb      	subs	r3, r1, r3
 8000efa:	ea40 4606 	orr.w	r6, r0, r6, lsl #16
 8000efe:	e778      	b.n	8000df2 <__udivmoddi4+0xbe>
 8000f00:	f1c6 0c20 	rsb	ip, r6, #32
 8000f04:	fa03 f406 	lsl.w	r4, r3, r6
 8000f08:	fa22 f30c 	lsr.w	r3, r2, ip
 8000f0c:	431c      	orrs	r4, r3
 8000f0e:	fa20 f70c 	lsr.w	r7, r0, ip
 8000f12:	fa01 f306 	lsl.w	r3, r1, r6
 8000f16:	ea4f 4e14 	mov.w	lr, r4, lsr #16
 8000f1a:	fa21 f10c 	lsr.w	r1, r1, ip
 8000f1e:	431f      	orrs	r7, r3
 8000f20:	0c3b      	lsrs	r3, r7, #16
 8000f22:	fbb1 f9fe 	udiv	r9, r1, lr
 8000f26:	fa1f f884 	uxth.w	r8, r4
 8000f2a:	fb0e 1119 	mls	r1, lr, r9, r1
 8000f2e:	ea43 4101 	orr.w	r1, r3, r1, lsl #16
 8000f32:	fb09 fa08 	mul.w	sl, r9, r8
 8000f36:	458a      	cmp	sl, r1
 8000f38:	fa02 f206 	lsl.w	r2, r2, r6
 8000f3c:	fa00 f306 	lsl.w	r3, r0, r6
 8000f40:	d908      	bls.n	8000f54 <__udivmoddi4+0x220>
 8000f42:	1861      	adds	r1, r4, r1
 8000f44:	f109 30ff 	add.w	r0, r9, #4294967295
 8000f48:	d248      	bcs.n	8000fdc <__udivmoddi4+0x2a8>
 8000f4a:	458a      	cmp	sl, r1
 8000f4c:	d946      	bls.n	8000fdc <__udivmoddi4+0x2a8>
 8000f4e:	f1a9 0902 	sub.w	r9, r9, #2
 8000f52:	4421      	add	r1, r4
 8000f54:	eba1 010a 	sub.w	r1, r1, sl
 8000f58:	b2bf      	uxth	r7, r7
 8000f5a:	fbb1 f0fe 	udiv	r0, r1, lr
 8000f5e:	fb0e 1110 	mls	r1, lr, r0, r1
 8000f62:	ea47 4701 	orr.w	r7, r7, r1, lsl #16
 8000f66:	fb00 f808 	mul.w	r8, r0, r8
 8000f6a:	45b8      	cmp	r8, r7
 8000f6c:	d907      	bls.n	8000f7e <__udivmoddi4+0x24a>
 8000f6e:	19e7      	adds	r7, r4, r7
 8000f70:	f100 31ff 	add.w	r1, r0, #4294967295
 8000f74:	d22e      	bcs.n	8000fd4 <__udivmoddi4+0x2a0>
 8000f76:	45b8      	cmp	r8, r7
 8000f78:	d92c      	bls.n	8000fd4 <__udivmoddi4+0x2a0>
 8000f7a:	3802      	subs	r0, #2
 8000f7c:	4427      	add	r7, r4
 8000f7e:	ea40 4009 	orr.w	r0, r0, r9, lsl #16
 8000f82:	eba7 0708 	sub.w	r7, r7, r8
 8000f86:	fba0 8902 	umull	r8, r9, r0, r2
 8000f8a:	454f      	cmp	r7, r9
 8000f8c:	46c6      	mov	lr, r8
 8000f8e:	4649      	mov	r1, r9
 8000f90:	d31a      	bcc.n	8000fc8 <__udivmoddi4+0x294>
 8000f92:	d017      	beq.n	8000fc4 <__udivmoddi4+0x290>
 8000f94:	b15d      	cbz	r5, 8000fae <__udivmoddi4+0x27a>
 8000f96:	ebb3 020e 	subs.w	r2, r3, lr
 8000f9a:	eb67 0701 	sbc.w	r7, r7, r1
 8000f9e:	fa07 fc0c 	lsl.w	ip, r7, ip
 8000fa2:	40f2      	lsrs	r2, r6
 8000fa4:	ea4c 0202 	orr.w	r2, ip, r2
 8000fa8:	40f7      	lsrs	r7, r6
 8000faa:	e9c5 2700 	strd	r2, r7, [r5]
 8000fae:	2600      	movs	r6, #0
 8000fb0:	4631      	mov	r1, r6
 8000fb2:	e8bd 87f0 	ldmia.w	sp!, {r4, r5, r6, r7, r8, r9, sl, pc}
 8000fb6:	462e      	mov	r6, r5
 8000fb8:	4628      	mov	r0, r5
 8000fba:	e70b      	b.n	8000dd4 <__udivmoddi4+0xa0>
 8000fbc:	4606      	mov	r6, r0
 8000fbe:	e6e9      	b.n	8000d94 <__udivmoddi4+0x60>
 8000fc0:	4618      	mov	r0, r3
 8000fc2:	e6fd      	b.n	8000dc0 <__udivmoddi4+0x8c>
 8000fc4:	4543      	cmp	r3, r8
 8000fc6:	d2e5      	bcs.n	8000f94 <__udivmoddi4+0x260>
 8000fc8:	ebb8 0e02 	subs.w	lr, r8, r2
 8000fcc:	eb69 0104 	sbc.w	r1, r9, r4
 8000fd0:	3801      	subs	r0, #1
 8000fd2:	e7df      	b.n	8000f94 <__udivmoddi4+0x260>
 8000fd4:	4608      	mov	r0, r1
 8000fd6:	e7d2      	b.n	8000f7e <__udivmoddi4+0x24a>
 8000fd8:	4660      	mov	r0, ip
 8000fda:	e78d      	b.n	8000ef8 <__udivmoddi4+0x1c4>
 8000fdc:	4681      	mov	r9, r0
 8000fde:	e7b9      	b.n	8000f54 <__udivmoddi4+0x220>
 8000fe0:	4666      	mov	r6, ip
 8000fe2:	e775      	b.n	8000ed0 <__udivmoddi4+0x19c>
 8000fe4:	4630      	mov	r0, r6
 8000fe6:	e74a      	b.n	8000e7e <__udivmoddi4+0x14a>
 8000fe8:	f1ac 0c02 	sub.w	ip, ip, #2
 8000fec:	4439      	add	r1, r7
 8000fee:	e713      	b.n	8000e18 <__udivmoddi4+0xe4>
 8000ff0:	3802      	subs	r0, #2
 8000ff2:	443c      	add	r4, r7
 8000ff4:	e724      	b.n	8000e40 <__udivmoddi4+0x10c>
 8000ff6:	bf00      	nop

08000ff8 <__aeabi_idiv0>:
 8000ff8:	4770      	bx	lr
 8000ffa:	bf00      	nop

08000ffc <HAL_InitTick>:
 8000ffc:	b538      	push	{r3, r4, r5, lr}
 8000ffe:	4a0e      	ldr	r2, [pc, #56]	; (8001038 <HAL_InitTick+0x3c>)
 8001000:	4b0e      	ldr	r3, [pc, #56]	; (800103c <HAL_InitTick+0x40>)
 8001002:	4605      	mov	r5, r0
 8001004:	7818      	ldrb	r0, [r3, #0]
 8001006:	f44f 737a 	mov.w	r3, #1000	; 0x3e8
 800100a:	fbb3 f3f0 	udiv	r3, r3, r0
 800100e:	6810      	ldr	r0, [r2, #0]
 8001010:	fbb0 f0f3 	udiv	r0, r0, r3
 8001014:	f000 f8a8 	bl	8001168 <HAL_SYSTICK_Config>
 8001018:	4604      	mov	r4, r0
 800101a:	b958      	cbnz	r0, 8001034 <HAL_InitTick+0x38>
 800101c:	2d0f      	cmp	r5, #15
 800101e:	d809      	bhi.n	8001034 <HAL_InitTick+0x38>
 8001020:	4602      	mov	r2, r0
 8001022:	4629      	mov	r1, r5
 8001024:	f04f 30ff 	mov.w	r0, #4294967295
 8001028:	f000 f85e 	bl	80010e8 <HAL_NVIC_SetPriority>
 800102c:	4b04      	ldr	r3, [pc, #16]	; (8001040 <HAL_InitTick+0x44>)
 800102e:	4620      	mov	r0, r4
 8001030:	601d      	str	r5, [r3, #0]
 8001032:	bd38      	pop	{r3, r4, r5, pc}
 8001034:	2001      	movs	r0, #1
 8001036:	e7fc      	b.n	8001032 <HAL_InitTick+0x36>
 8001038:	20000008 	.word	0x20000008
 800103c:	20000000 	.word	0x20000000
 8001040:	20000004 	.word	0x20000004

08001044 <HAL_Init>:
 8001044:	b508      	push	{r3, lr}
 8001046:	4b0b      	ldr	r3, [pc, #44]	; (8001074 <HAL_Init+0x30>)
 8001048:	681a      	ldr	r2, [r3, #0]
 800104a:	f442 7200 	orr.w	r2, r2, #512	; 0x200
 800104e:	601a      	str	r2, [r3, #0]
 8001050:	681a      	ldr	r2, [r3, #0]
 8001052:	f442 6280 	orr.w	r2, r2, #1024	; 0x400
 8001056:	601a      	str	r2, [r3, #0]
 8001058:	681a      	ldr	r2, [r3, #0]
 800105a:	f442 7280 	orr.w	r2, r2, #256	; 0x100
 800105e:	601a      	str	r2, [r3, #0]
 8001060:	2003      	movs	r0, #3
 8001062:	f000 f82f 	bl	80010c4 <HAL_NVIC_SetPriorityGrouping>
 8001066:	200f      	movs	r0, #15
 8001068:	f7ff ffc8 	bl	8000ffc <HAL_InitTick>
 800106c:	f002 f822 	bl	80030b4 <HAL_MspInit>
 8001070:	2000      	movs	r0, #0
 8001072:	bd08      	pop	{r3, pc}
 8001074:	40023c00 	.word	0x40023c00

08001078 <HAL_IncTick>:
 8001078:	4a03      	ldr	r2, [pc, #12]	; (8001088 <HAL_IncTick+0x10>)
 800107a:	4b04      	ldr	r3, [pc, #16]	; (800108c <HAL_IncTick+0x14>)
 800107c:	6811      	ldr	r1, [r2, #0]
 800107e:	781b      	ldrb	r3, [r3, #0]
 8001080:	440b      	add	r3, r1
 8001082:	6013      	str	r3, [r2, #0]
 8001084:	4770      	bx	lr
 8001086:	bf00      	nop
 8001088:	20000218 	.word	0x20000218
 800108c:	20000000 	.word	0x20000000

08001090 <HAL_GetTick>:
 8001090:	4b01      	ldr	r3, [pc, #4]	; (8001098 <HAL_GetTick+0x8>)
 8001092:	6818      	ldr	r0, [r3, #0]
 8001094:	4770      	bx	lr
 8001096:	bf00      	nop
 8001098:	20000218 	.word	0x20000218

0800109c <HAL_Delay>:
 800109c:	b538      	push	{r3, r4, r5, lr}
 800109e:	4604      	mov	r4, r0
 80010a0:	f7ff fff6 	bl	8001090 <HAL_GetTick>
 80010a4:	1c63      	adds	r3, r4, #1
 80010a6:	bf1c      	itt	ne
 80010a8:	4b05      	ldrne	r3, [pc, #20]	; (80010c0 <HAL_Delay+0x24>)
 80010aa:	781b      	ldrbne	r3, [r3, #0]
 80010ac:	4605      	mov	r5, r0
 80010ae:	bf18      	it	ne
 80010b0:	18e4      	addne	r4, r4, r3
 80010b2:	f7ff ffed 	bl	8001090 <HAL_GetTick>
 80010b6:	1b43      	subs	r3, r0, r5
 80010b8:	42a3      	cmp	r3, r4
 80010ba:	d3fa      	bcc.n	80010b2 <HAL_Delay+0x16>
 80010bc:	bd38      	pop	{r3, r4, r5, pc}
 80010be:	bf00      	nop
 80010c0:	20000000 	.word	0x20000000

080010c4 <HAL_NVIC_SetPriorityGrouping>:
 80010c4:	4907      	ldr	r1, [pc, #28]	; (80010e4 <HAL_NVIC_SetPriorityGrouping+0x20>)
 80010c6:	68ca      	ldr	r2, [r1, #12]
 80010c8:	f422 62e0 	bic.w	r2, r2, #1792	; 0x700
 80010cc:	0203      	lsls	r3, r0, #8
 80010ce:	0412      	lsls	r2, r2, #16
 80010d0:	f403 63e0 	and.w	r3, r3, #1792	; 0x700
 80010d4:	0c12      	lsrs	r2, r2, #16
 80010d6:	4313      	orrs	r3, r2
 80010d8:	f043 63bf 	orr.w	r3, r3, #100139008	; 0x5f80000
 80010dc:	f443 3300 	orr.w	r3, r3, #131072	; 0x20000
 80010e0:	60cb      	str	r3, [r1, #12]
 80010e2:	4770      	bx	lr
 80010e4:	e000ed00 	.word	0xe000ed00

080010e8 <HAL_NVIC_SetPriority>:
 80010e8:	4b16      	ldr	r3, [pc, #88]	; (8001144 <HAL_NVIC_SetPriority+0x5c>)
 80010ea:	b530      	push	{r4, r5, lr}
 80010ec:	68dc      	ldr	r4, [r3, #12]
 80010ee:	f3c4 2402 	ubfx	r4, r4, #8, #3
 80010f2:	f1c4 0507 	rsb	r5, r4, #7
 80010f6:	1d23      	adds	r3, r4, #4
 80010f8:	2d04      	cmp	r5, #4
 80010fa:	bf28      	it	cs
 80010fc:	2504      	movcs	r5, #4
 80010fe:	2b06      	cmp	r3, #6
 8001100:	f04f 33ff 	mov.w	r3, #4294967295
 8001104:	bf8c      	ite	hi
 8001106:	3c03      	subhi	r4, #3
 8001108:	2400      	movls	r4, #0
 800110a:	fa03 f505 	lsl.w	r5, r3, r5
 800110e:	ea21 0105 	bic.w	r1, r1, r5
 8001112:	40a3      	lsls	r3, r4
 8001114:	ea22 0203 	bic.w	r2, r2, r3
 8001118:	40a1      	lsls	r1, r4
 800111a:	2800      	cmp	r0, #0
 800111c:	ea41 0302 	orr.w	r3, r1, r2
 8001120:	bfac      	ite	ge
 8001122:	f100 4060 	addge.w	r0, r0, #3758096384	; 0xe0000000
 8001126:	4a08      	ldrlt	r2, [pc, #32]	; (8001148 <HAL_NVIC_SetPriority+0x60>)
 8001128:	ea4f 1303 	mov.w	r3, r3, lsl #4
 800112c:	bfb8      	it	lt
 800112e:	f000 000f 	andlt.w	r0, r0, #15
 8001132:	b2db      	uxtb	r3, r3
 8001134:	bfaa      	itet	ge
 8001136:	f500 4061 	addge.w	r0, r0, #57600	; 0xe100
 800113a:	5413      	strblt	r3, [r2, r0]
 800113c:	f880 3300 	strbge.w	r3, [r0, #768]	; 0x300
 8001140:	bd30      	pop	{r4, r5, pc}
 8001142:	bf00      	nop
 8001144:	e000ed00 	.word	0xe000ed00
 8001148:	e000ed14 	.word	0xe000ed14

0800114c <HAL_NVIC_EnableIRQ>:
 800114c:	2800      	cmp	r0, #0
 800114e:	db08      	blt.n	8001162 <HAL_NVIC_EnableIRQ+0x16>
 8001150:	0942      	lsrs	r2, r0, #5
 8001152:	2301      	movs	r3, #1
 8001154:	f000 001f 	and.w	r0, r0, #31
 8001158:	fa03 f000 	lsl.w	r0, r3, r0
 800115c:	4b01      	ldr	r3, [pc, #4]	; (8001164 <HAL_NVIC_EnableIRQ+0x18>)
 800115e:	f843 0022 	str.w	r0, [r3, r2, lsl #2]
 8001162:	4770      	bx	lr
 8001164:	e000e100 	.word	0xe000e100

08001168 <HAL_SYSTICK_Config>:
 8001168:	3801      	subs	r0, #1
 800116a:	f1b0 7f80 	cmp.w	r0, #16777216	; 0x1000000
 800116e:	d20a      	bcs.n	8001186 <HAL_SYSTICK_Config+0x1e>
 8001170:	4b06      	ldr	r3, [pc, #24]	; (800118c <HAL_SYSTICK_Config+0x24>)
 8001172:	4a07      	ldr	r2, [pc, #28]	; (8001190 <HAL_SYSTICK_Config+0x28>)
 8001174:	6058      	str	r0, [r3, #4]
 8001176:	21f0      	movs	r1, #240	; 0xf0
 8001178:	f882 1023 	strb.w	r1, [r2, #35]	; 0x23
 800117c:	2000      	movs	r0, #0
 800117e:	2207      	movs	r2, #7
 8001180:	6098      	str	r0, [r3, #8]
 8001182:	601a      	str	r2, [r3, #0]
 8001184:	4770      	bx	lr
 8001186:	2001      	movs	r0, #1
 8001188:	4770      	bx	lr
 800118a:	bf00      	nop
 800118c:	e000e010 	.word	0xe000e010
 8001190:	e000ed00 	.word	0xe000ed00

08001194 <HAL_DMA_Abort>:
 8001194:	b570      	push	{r4, r5, r6, lr}
 8001196:	4604      	mov	r4, r0
 8001198:	6d86      	ldr	r6, [r0, #88]	; 0x58
 800119a:	f7ff ff79 	bl	8001090 <HAL_GetTick>
 800119e:	f894 3035 	ldrb.w	r3, [r4, #53]	; 0x35
 80011a2:	2b02      	cmp	r3, #2
 80011a4:	4605      	mov	r5, r0
 80011a6:	d006      	beq.n	80011b6 <HAL_DMA_Abort+0x22>
 80011a8:	2380      	movs	r3, #128	; 0x80
 80011aa:	6563      	str	r3, [r4, #84]	; 0x54
 80011ac:	2300      	movs	r3, #0
 80011ae:	f884 3034 	strb.w	r3, [r4, #52]	; 0x34
 80011b2:	2001      	movs	r0, #1
 80011b4:	bd70      	pop	{r4, r5, r6, pc}
 80011b6:	6823      	ldr	r3, [r4, #0]
 80011b8:	681a      	ldr	r2, [r3, #0]
 80011ba:	f022 0216 	bic.w	r2, r2, #22
 80011be:	601a      	str	r2, [r3, #0]
 80011c0:	695a      	ldr	r2, [r3, #20]
 80011c2:	f022 0280 	bic.w	r2, r2, #128	; 0x80
 80011c6:	615a      	str	r2, [r3, #20]
 80011c8:	6c22      	ldr	r2, [r4, #64]	; 0x40
 80011ca:	b90a      	cbnz	r2, 80011d0 <HAL_DMA_Abort+0x3c>
 80011cc:	6ca2      	ldr	r2, [r4, #72]	; 0x48
 80011ce:	b11a      	cbz	r2, 80011d8 <HAL_DMA_Abort+0x44>
 80011d0:	681a      	ldr	r2, [r3, #0]
 80011d2:	f022 0208 	bic.w	r2, r2, #8
 80011d6:	601a      	str	r2, [r3, #0]
 80011d8:	681a      	ldr	r2, [r3, #0]
 80011da:	f022 0201 	bic.w	r2, r2, #1
 80011de:	601a      	str	r2, [r3, #0]
 80011e0:	6823      	ldr	r3, [r4, #0]
 80011e2:	681b      	ldr	r3, [r3, #0]
 80011e4:	f013 0301 	ands.w	r3, r3, #1
 80011e8:	d10a      	bne.n	8001200 <HAL_DMA_Abort+0x6c>
 80011ea:	6de1      	ldr	r1, [r4, #92]	; 0x5c
 80011ec:	223f      	movs	r2, #63	; 0x3f
 80011ee:	408a      	lsls	r2, r1
 80011f0:	60b2      	str	r2, [r6, #8]
 80011f2:	2201      	movs	r2, #1
 80011f4:	f884 2035 	strb.w	r2, [r4, #53]	; 0x35
 80011f8:	f884 3034 	strb.w	r3, [r4, #52]	; 0x34
 80011fc:	4618      	mov	r0, r3
 80011fe:	e7d9      	b.n	80011b4 <HAL_DMA_Abort+0x20>
 8001200:	f7ff ff46 	bl	8001090 <HAL_GetTick>
 8001204:	1b40      	subs	r0, r0, r5
 8001206:	2805      	cmp	r0, #5
 8001208:	d9ea      	bls.n	80011e0 <HAL_DMA_Abort+0x4c>
 800120a:	2320      	movs	r3, #32
 800120c:	6563      	str	r3, [r4, #84]	; 0x54
 800120e:	2003      	movs	r0, #3
 8001210:	2300      	movs	r3, #0
 8001212:	f884 0035 	strb.w	r0, [r4, #53]	; 0x35
 8001216:	f884 3034 	strb.w	r3, [r4, #52]	; 0x34
 800121a:	e7cb      	b.n	80011b4 <HAL_DMA_Abort+0x20>

0800121c <HAL_DMA_Abort_IT>:
 800121c:	f890 3035 	ldrb.w	r3, [r0, #53]	; 0x35
 8001220:	2b02      	cmp	r3, #2
 8001222:	d003      	beq.n	800122c <HAL_DMA_Abort_IT+0x10>
 8001224:	2380      	movs	r3, #128	; 0x80
 8001226:	6543      	str	r3, [r0, #84]	; 0x54
 8001228:	2001      	movs	r0, #1
 800122a:	4770      	bx	lr
 800122c:	6802      	ldr	r2, [r0, #0]
 800122e:	2305      	movs	r3, #5
 8001230:	f880 3035 	strb.w	r3, [r0, #53]	; 0x35
 8001234:	6813      	ldr	r3, [r2, #0]
 8001236:	f023 0301 	bic.w	r3, r3, #1
 800123a:	6013      	str	r3, [r2, #0]
 800123c:	2000      	movs	r0, #0
 800123e:	4770      	bx	lr

08001240 <HAL_GPIO_Init>:
 8001240:	e92d 4ff7 	stmdb	sp!, {r0, r1, r2, r4, r5, r6, r7, r8, r9, sl, fp, lr}
 8001244:	f8df 9184 	ldr.w	r9, [pc, #388]	; 80013cc <HAL_GPIO_Init+0x18c>
 8001248:	4a5e      	ldr	r2, [pc, #376]	; (80013c4 <HAL_GPIO_Init+0x184>)
 800124a:	2300      	movs	r3, #0
 800124c:	680d      	ldr	r5, [r1, #0]
 800124e:	2401      	movs	r4, #1
 8001250:	409c      	lsls	r4, r3
 8001252:	ea04 0c05 	and.w	ip, r4, r5
 8001256:	43ac      	bics	r4, r5
 8001258:	f040 80a5 	bne.w	80013a6 <HAL_GPIO_Init+0x166>
 800125c:	684d      	ldr	r5, [r1, #4]
 800125e:	f005 0403 	and.w	r4, r5, #3
 8001262:	ea4f 0843 	mov.w	r8, r3, lsl #1
 8001266:	2603      	movs	r6, #3
 8001268:	1e67      	subs	r7, r4, #1
 800126a:	fa06 f608 	lsl.w	r6, r6, r8
 800126e:	2f01      	cmp	r7, #1
 8001270:	ea6f 0606 	mvn.w	r6, r6
 8001274:	d834      	bhi.n	80012e0 <HAL_GPIO_Init+0xa0>
 8001276:	6887      	ldr	r7, [r0, #8]
 8001278:	ea07 0e06 	and.w	lr, r7, r6
 800127c:	68cf      	ldr	r7, [r1, #12]
 800127e:	fa07 f708 	lsl.w	r7, r7, r8
 8001282:	ea47 070e 	orr.w	r7, r7, lr
 8001286:	6087      	str	r7, [r0, #8]
 8001288:	6847      	ldr	r7, [r0, #4]
 800128a:	ea27 0e0c 	bic.w	lr, r7, ip
 800128e:	f3c5 1700 	ubfx	r7, r5, #4, #1
 8001292:	409f      	lsls	r7, r3
 8001294:	ea47 070e 	orr.w	r7, r7, lr
 8001298:	6047      	str	r7, [r0, #4]
 800129a:	68c7      	ldr	r7, [r0, #12]
 800129c:	ea07 0e06 	and.w	lr, r7, r6
 80012a0:	688f      	ldr	r7, [r1, #8]
 80012a2:	fa07 f708 	lsl.w	r7, r7, r8
 80012a6:	ea47 070e 	orr.w	r7, r7, lr
 80012aa:	2c02      	cmp	r4, #2
 80012ac:	60c7      	str	r7, [r0, #12]
 80012ae:	d119      	bne.n	80012e4 <HAL_GPIO_Init+0xa4>
 80012b0:	ea4f 0ad3 	mov.w	sl, r3, lsr #3
 80012b4:	eb00 0a8a 	add.w	sl, r0, sl, lsl #2
 80012b8:	f003 0b07 	and.w	fp, r3, #7
 80012bc:	f8da 7020 	ldr.w	r7, [sl, #32]
 80012c0:	ea4f 0b8b 	mov.w	fp, fp, lsl #2
 80012c4:	f04f 0e0f 	mov.w	lr, #15
 80012c8:	fa0e fe0b 	lsl.w	lr, lr, fp
 80012cc:	ea27 0e0e 	bic.w	lr, r7, lr
 80012d0:	690f      	ldr	r7, [r1, #16]
 80012d2:	fa07 f70b 	lsl.w	r7, r7, fp
 80012d6:	ea47 070e 	orr.w	r7, r7, lr
 80012da:	f8ca 7020 	str.w	r7, [sl, #32]
 80012de:	e001      	b.n	80012e4 <HAL_GPIO_Init+0xa4>
 80012e0:	2c03      	cmp	r4, #3
 80012e2:	d1da      	bne.n	800129a <HAL_GPIO_Init+0x5a>
 80012e4:	6807      	ldr	r7, [r0, #0]
 80012e6:	fa04 f408 	lsl.w	r4, r4, r8
 80012ea:	403e      	ands	r6, r7
 80012ec:	4326      	orrs	r6, r4
 80012ee:	f415 3f40 	tst.w	r5, #196608	; 0x30000
 80012f2:	6006      	str	r6, [r0, #0]
 80012f4:	d057      	beq.n	80013a6 <HAL_GPIO_Init+0x166>
 80012f6:	f04f 0a00 	mov.w	sl, #0
 80012fa:	f8cd a004 	str.w	sl, [sp, #4]
 80012fe:	f8d9 6044 	ldr.w	r6, [r9, #68]	; 0x44
 8001302:	4c31      	ldr	r4, [pc, #196]	; (80013c8 <HAL_GPIO_Init+0x188>)
 8001304:	f446 4680 	orr.w	r6, r6, #16384	; 0x4000
 8001308:	f8c9 6044 	str.w	r6, [r9, #68]	; 0x44
 800130c:	f8d9 6044 	ldr.w	r6, [r9, #68]	; 0x44
 8001310:	f406 4680 	and.w	r6, r6, #16384	; 0x4000
 8001314:	9601      	str	r6, [sp, #4]
 8001316:	9e01      	ldr	r6, [sp, #4]
 8001318:	f023 0603 	bic.w	r6, r3, #3
 800131c:	f106 4680 	add.w	r6, r6, #1073741824	; 0x40000000
 8001320:	f506 369c 	add.w	r6, r6, #79872	; 0x13800
 8001324:	f003 0e03 	and.w	lr, r3, #3
 8001328:	f8d6 8008 	ldr.w	r8, [r6, #8]
 800132c:	ea4f 0e8e 	mov.w	lr, lr, lsl #2
 8001330:	270f      	movs	r7, #15
 8001332:	fa07 f70e 	lsl.w	r7, r7, lr
 8001336:	42a0      	cmp	r0, r4
 8001338:	ea28 0707 	bic.w	r7, r8, r7
 800133c:	d03a      	beq.n	80013b4 <HAL_GPIO_Init+0x174>
 800133e:	f504 6480 	add.w	r4, r4, #1024	; 0x400
 8001342:	42a0      	cmp	r0, r4
 8001344:	d038      	beq.n	80013b8 <HAL_GPIO_Init+0x178>
 8001346:	f504 6480 	add.w	r4, r4, #1024	; 0x400
 800134a:	42a0      	cmp	r0, r4
 800134c:	d036      	beq.n	80013bc <HAL_GPIO_Init+0x17c>
 800134e:	f504 6480 	add.w	r4, r4, #1024	; 0x400
 8001352:	42a0      	cmp	r0, r4
 8001354:	d034      	beq.n	80013c0 <HAL_GPIO_Init+0x180>
 8001356:	f504 6480 	add.w	r4, r4, #1024	; 0x400
 800135a:	42a0      	cmp	r0, r4
 800135c:	bf0c      	ite	eq
 800135e:	2404      	moveq	r4, #4
 8001360:	2407      	movne	r4, #7
 8001362:	fa04 f40e 	lsl.w	r4, r4, lr
 8001366:	433c      	orrs	r4, r7
 8001368:	60b4      	str	r4, [r6, #8]
 800136a:	6814      	ldr	r4, [r2, #0]
 800136c:	ea6f 060c 	mvn.w	r6, ip
 8001370:	03ef      	lsls	r7, r5, #15
 8001372:	bf54      	ite	pl
 8001374:	4034      	andpl	r4, r6
 8001376:	ea4c 0404 	orrmi.w	r4, ip, r4
 800137a:	6014      	str	r4, [r2, #0]
 800137c:	6854      	ldr	r4, [r2, #4]
 800137e:	03af      	lsls	r7, r5, #14
 8001380:	bf54      	ite	pl
 8001382:	4034      	andpl	r4, r6
 8001384:	ea4c 0404 	orrmi.w	r4, ip, r4
 8001388:	6054      	str	r4, [r2, #4]
 800138a:	6894      	ldr	r4, [r2, #8]
 800138c:	02ef      	lsls	r7, r5, #11
 800138e:	bf54      	ite	pl
 8001390:	4034      	andpl	r4, r6
 8001392:	ea4c 0404 	orrmi.w	r4, ip, r4
 8001396:	6094      	str	r4, [r2, #8]
 8001398:	68d4      	ldr	r4, [r2, #12]
 800139a:	02ad      	lsls	r5, r5, #10
 800139c:	bf54      	ite	pl
 800139e:	4034      	andpl	r4, r6
 80013a0:	ea4c 0404 	orrmi.w	r4, ip, r4
 80013a4:	60d4      	str	r4, [r2, #12]
 80013a6:	3301      	adds	r3, #1
 80013a8:	2b10      	cmp	r3, #16
 80013aa:	f47f af4f 	bne.w	800124c <HAL_GPIO_Init+0xc>
 80013ae:	b003      	add	sp, #12
 80013b0:	e8bd 8ff0 	ldmia.w	sp!, {r4, r5, r6, r7, r8, r9, sl, fp, pc}
 80013b4:	4654      	mov	r4, sl
 80013b6:	e7d4      	b.n	8001362 <HAL_GPIO_Init+0x122>
 80013b8:	2401      	movs	r4, #1
 80013ba:	e7d2      	b.n	8001362 <HAL_GPIO_Init+0x122>
 80013bc:	2402      	movs	r4, #2
 80013be:	e7d0      	b.n	8001362 <HAL_GPIO_Init+0x122>
 80013c0:	2403      	movs	r4, #3
 80013c2:	e7ce      	b.n	8001362 <HAL_GPIO_Init+0x122>
 80013c4:	40013c00 	.word	0x40013c00
 80013c8:	40020000 	.word	0x40020000
 80013cc:	40023800 	.word	0x40023800

080013d0 <HAL_GPIO_WritePin>:
 80013d0:	b10a      	cbz	r2, 80013d6 <HAL_GPIO_WritePin+0x6>
 80013d2:	6181      	str	r1, [r0, #24]
 80013d4:	4770      	bx	lr
 80013d6:	0409      	lsls	r1, r1, #16
 80013d8:	e7fb      	b.n	80013d2 <HAL_GPIO_WritePin+0x2>
	...

080013dc <HAL_GPIO_EXTI_IRQHandler>:
 80013dc:	4a04      	ldr	r2, [pc, #16]	; (80013f0 <HAL_GPIO_EXTI_IRQHandler+0x14>)
 80013de:	6951      	ldr	r1, [r2, #20]
 80013e0:	4201      	tst	r1, r0
 80013e2:	b508      	push	{r3, lr}
 80013e4:	d002      	beq.n	80013ec <HAL_GPIO_EXTI_IRQHandler+0x10>
 80013e6:	6150      	str	r0, [r2, #20]
 80013e8:	f001 fb3e 	bl	8002a68 <HAL_GPIO_EXTI_Callback>
 80013ec:	bd08      	pop	{r3, pc}
 80013ee:	bf00      	nop
 80013f0:	40013c00 	.word	0x40013c00

080013f4 <HAL_RCC_OscConfig>:
 80013f4:	e92d 41f3 	stmdb	sp!, {r0, r1, r4, r5, r6, r7, r8, lr}
 80013f8:	4604      	mov	r4, r0
 80013fa:	b340      	cbz	r0, 800144e <HAL_RCC_OscConfig+0x5a>
 80013fc:	6803      	ldr	r3, [r0, #0]
 80013fe:	07dd      	lsls	r5, r3, #31
 8001400:	d410      	bmi.n	8001424 <HAL_RCC_OscConfig+0x30>
 8001402:	6823      	ldr	r3, [r4, #0]
 8001404:	0798      	lsls	r0, r3, #30
 8001406:	d45e      	bmi.n	80014c6 <HAL_RCC_OscConfig+0xd2>
 8001408:	6823      	ldr	r3, [r4, #0]
 800140a:	071a      	lsls	r2, r3, #28
 800140c:	f100 80a0 	bmi.w	8001550 <HAL_RCC_OscConfig+0x15c>
 8001410:	6823      	ldr	r3, [r4, #0]
 8001412:	075b      	lsls	r3, r3, #29
 8001414:	f100 80be 	bmi.w	8001594 <HAL_RCC_OscConfig+0x1a0>
 8001418:	69a0      	ldr	r0, [r4, #24]
 800141a:	2800      	cmp	r0, #0
 800141c:	f040 811f 	bne.w	800165e <HAL_RCC_OscConfig+0x26a>
 8001420:	2000      	movs	r0, #0
 8001422:	e02b      	b.n	800147c <HAL_RCC_OscConfig+0x88>
 8001424:	4ba6      	ldr	r3, [pc, #664]	; (80016c0 <HAL_RCC_OscConfig+0x2cc>)
 8001426:	689a      	ldr	r2, [r3, #8]
 8001428:	f002 020c 	and.w	r2, r2, #12
 800142c:	2a04      	cmp	r2, #4
 800142e:	d007      	beq.n	8001440 <HAL_RCC_OscConfig+0x4c>
 8001430:	689a      	ldr	r2, [r3, #8]
 8001432:	f002 020c 	and.w	r2, r2, #12
 8001436:	2a08      	cmp	r2, #8
 8001438:	d10b      	bne.n	8001452 <HAL_RCC_OscConfig+0x5e>
 800143a:	685a      	ldr	r2, [r3, #4]
 800143c:	0251      	lsls	r1, r2, #9
 800143e:	d508      	bpl.n	8001452 <HAL_RCC_OscConfig+0x5e>
 8001440:	4b9f      	ldr	r3, [pc, #636]	; (80016c0 <HAL_RCC_OscConfig+0x2cc>)
 8001442:	681b      	ldr	r3, [r3, #0]
 8001444:	039a      	lsls	r2, r3, #14
 8001446:	d5dc      	bpl.n	8001402 <HAL_RCC_OscConfig+0xe>
 8001448:	6863      	ldr	r3, [r4, #4]
 800144a:	2b00      	cmp	r3, #0
 800144c:	d1d9      	bne.n	8001402 <HAL_RCC_OscConfig+0xe>
 800144e:	2001      	movs	r0, #1
 8001450:	e014      	b.n	800147c <HAL_RCC_OscConfig+0x88>
 8001452:	6862      	ldr	r2, [r4, #4]
 8001454:	f5b2 3f80 	cmp.w	r2, #65536	; 0x10000
 8001458:	d113      	bne.n	8001482 <HAL_RCC_OscConfig+0x8e>
 800145a:	681a      	ldr	r2, [r3, #0]
 800145c:	f442 3280 	orr.w	r2, r2, #65536	; 0x10000
 8001460:	601a      	str	r2, [r3, #0]
 8001462:	f7ff fe15 	bl	8001090 <HAL_GetTick>
 8001466:	4e96      	ldr	r6, [pc, #600]	; (80016c0 <HAL_RCC_OscConfig+0x2cc>)
 8001468:	4605      	mov	r5, r0
 800146a:	6833      	ldr	r3, [r6, #0]
 800146c:	039b      	lsls	r3, r3, #14
 800146e:	d4c8      	bmi.n	8001402 <HAL_RCC_OscConfig+0xe>
 8001470:	f7ff fe0e 	bl	8001090 <HAL_GetTick>
 8001474:	1b40      	subs	r0, r0, r5
 8001476:	2864      	cmp	r0, #100	; 0x64
 8001478:	d9f7      	bls.n	800146a <HAL_RCC_OscConfig+0x76>
 800147a:	2003      	movs	r0, #3
 800147c:	b002      	add	sp, #8
 800147e:	e8bd 81f0 	ldmia.w	sp!, {r4, r5, r6, r7, r8, pc}
 8001482:	4d8f      	ldr	r5, [pc, #572]	; (80016c0 <HAL_RCC_OscConfig+0x2cc>)
 8001484:	f5b2 2fa0 	cmp.w	r2, #327680	; 0x50000
 8001488:	682b      	ldr	r3, [r5, #0]
 800148a:	d107      	bne.n	800149c <HAL_RCC_OscConfig+0xa8>
 800148c:	f443 2380 	orr.w	r3, r3, #262144	; 0x40000
 8001490:	602b      	str	r3, [r5, #0]
 8001492:	682b      	ldr	r3, [r5, #0]
 8001494:	f443 3380 	orr.w	r3, r3, #65536	; 0x10000
 8001498:	602b      	str	r3, [r5, #0]
 800149a:	e7e2      	b.n	8001462 <HAL_RCC_OscConfig+0x6e>
 800149c:	f423 3380 	bic.w	r3, r3, #65536	; 0x10000
 80014a0:	602b      	str	r3, [r5, #0]
 80014a2:	682b      	ldr	r3, [r5, #0]
 80014a4:	f423 2380 	bic.w	r3, r3, #262144	; 0x40000
 80014a8:	602b      	str	r3, [r5, #0]
 80014aa:	2a00      	cmp	r2, #0
 80014ac:	d1d9      	bne.n	8001462 <HAL_RCC_OscConfig+0x6e>
 80014ae:	f7ff fdef 	bl	8001090 <HAL_GetTick>
 80014b2:	4606      	mov	r6, r0
 80014b4:	682b      	ldr	r3, [r5, #0]
 80014b6:	039f      	lsls	r7, r3, #14
 80014b8:	d5a3      	bpl.n	8001402 <HAL_RCC_OscConfig+0xe>
 80014ba:	f7ff fde9 	bl	8001090 <HAL_GetTick>
 80014be:	1b80      	subs	r0, r0, r6
 80014c0:	2864      	cmp	r0, #100	; 0x64
 80014c2:	d9f7      	bls.n	80014b4 <HAL_RCC_OscConfig+0xc0>
 80014c4:	e7d9      	b.n	800147a <HAL_RCC_OscConfig+0x86>
 80014c6:	4b7e      	ldr	r3, [pc, #504]	; (80016c0 <HAL_RCC_OscConfig+0x2cc>)
 80014c8:	689a      	ldr	r2, [r3, #8]
 80014ca:	f012 0f0c 	tst.w	r2, #12
 80014ce:	d007      	beq.n	80014e0 <HAL_RCC_OscConfig+0xec>
 80014d0:	689a      	ldr	r2, [r3, #8]
 80014d2:	f002 020c 	and.w	r2, r2, #12
 80014d6:	2a08      	cmp	r2, #8
 80014d8:	d111      	bne.n	80014fe <HAL_RCC_OscConfig+0x10a>
 80014da:	685b      	ldr	r3, [r3, #4]
 80014dc:	025e      	lsls	r6, r3, #9
 80014de:	d40e      	bmi.n	80014fe <HAL_RCC_OscConfig+0x10a>
 80014e0:	4b77      	ldr	r3, [pc, #476]	; (80016c0 <HAL_RCC_OscConfig+0x2cc>)
 80014e2:	681a      	ldr	r2, [r3, #0]
 80014e4:	0795      	lsls	r5, r2, #30
 80014e6:	d502      	bpl.n	80014ee <HAL_RCC_OscConfig+0xfa>
 80014e8:	68e2      	ldr	r2, [r4, #12]
 80014ea:	2a01      	cmp	r2, #1
 80014ec:	d1af      	bne.n	800144e <HAL_RCC_OscConfig+0x5a>
 80014ee:	681a      	ldr	r2, [r3, #0]
 80014f0:	6921      	ldr	r1, [r4, #16]
 80014f2:	f022 02f8 	bic.w	r2, r2, #248	; 0xf8
 80014f6:	ea42 02c1 	orr.w	r2, r2, r1, lsl #3
 80014fa:	601a      	str	r2, [r3, #0]
 80014fc:	e784      	b.n	8001408 <HAL_RCC_OscConfig+0x14>
 80014fe:	68e2      	ldr	r2, [r4, #12]
 8001500:	4b70      	ldr	r3, [pc, #448]	; (80016c4 <HAL_RCC_OscConfig+0x2d0>)
 8001502:	b1b2      	cbz	r2, 8001532 <HAL_RCC_OscConfig+0x13e>
 8001504:	2201      	movs	r2, #1
 8001506:	601a      	str	r2, [r3, #0]
 8001508:	f7ff fdc2 	bl	8001090 <HAL_GetTick>
 800150c:	4d6c      	ldr	r5, [pc, #432]	; (80016c0 <HAL_RCC_OscConfig+0x2cc>)
 800150e:	4606      	mov	r6, r0
 8001510:	682b      	ldr	r3, [r5, #0]
 8001512:	0798      	lsls	r0, r3, #30
 8001514:	d507      	bpl.n	8001526 <HAL_RCC_OscConfig+0x132>
 8001516:	682b      	ldr	r3, [r5, #0]
 8001518:	6922      	ldr	r2, [r4, #16]
 800151a:	f023 03f8 	bic.w	r3, r3, #248	; 0xf8
 800151e:	ea43 03c2 	orr.w	r3, r3, r2, lsl #3
 8001522:	602b      	str	r3, [r5, #0]
 8001524:	e770      	b.n	8001408 <HAL_RCC_OscConfig+0x14>
 8001526:	f7ff fdb3 	bl	8001090 <HAL_GetTick>
 800152a:	1b80      	subs	r0, r0, r6
 800152c:	2802      	cmp	r0, #2
 800152e:	d9ef      	bls.n	8001510 <HAL_RCC_OscConfig+0x11c>
 8001530:	e7a3      	b.n	800147a <HAL_RCC_OscConfig+0x86>
 8001532:	601a      	str	r2, [r3, #0]
 8001534:	f7ff fdac 	bl	8001090 <HAL_GetTick>
 8001538:	4e61      	ldr	r6, [pc, #388]	; (80016c0 <HAL_RCC_OscConfig+0x2cc>)
 800153a:	4605      	mov	r5, r0
 800153c:	6833      	ldr	r3, [r6, #0]
 800153e:	0799      	lsls	r1, r3, #30
 8001540:	f57f af62 	bpl.w	8001408 <HAL_RCC_OscConfig+0x14>
 8001544:	f7ff fda4 	bl	8001090 <HAL_GetTick>
 8001548:	1b40      	subs	r0, r0, r5
 800154a:	2802      	cmp	r0, #2
 800154c:	d9f6      	bls.n	800153c <HAL_RCC_OscConfig+0x148>
 800154e:	e794      	b.n	800147a <HAL_RCC_OscConfig+0x86>
 8001550:	6962      	ldr	r2, [r4, #20]
 8001552:	4b5d      	ldr	r3, [pc, #372]	; (80016c8 <HAL_RCC_OscConfig+0x2d4>)
 8001554:	b17a      	cbz	r2, 8001576 <HAL_RCC_OscConfig+0x182>
 8001556:	2201      	movs	r2, #1
 8001558:	601a      	str	r2, [r3, #0]
 800155a:	f7ff fd99 	bl	8001090 <HAL_GetTick>
 800155e:	4e58      	ldr	r6, [pc, #352]	; (80016c0 <HAL_RCC_OscConfig+0x2cc>)
 8001560:	4605      	mov	r5, r0
 8001562:	6f73      	ldr	r3, [r6, #116]	; 0x74
 8001564:	079f      	lsls	r7, r3, #30
 8001566:	f53f af53 	bmi.w	8001410 <HAL_RCC_OscConfig+0x1c>
 800156a:	f7ff fd91 	bl	8001090 <HAL_GetTick>
 800156e:	1b40      	subs	r0, r0, r5
 8001570:	2802      	cmp	r0, #2
 8001572:	d9f6      	bls.n	8001562 <HAL_RCC_OscConfig+0x16e>
 8001574:	e781      	b.n	800147a <HAL_RCC_OscConfig+0x86>
 8001576:	601a      	str	r2, [r3, #0]
 8001578:	f7ff fd8a 	bl	8001090 <HAL_GetTick>
 800157c:	4e50      	ldr	r6, [pc, #320]	; (80016c0 <HAL_RCC_OscConfig+0x2cc>)
 800157e:	4605      	mov	r5, r0
 8001580:	6f73      	ldr	r3, [r6, #116]	; 0x74
 8001582:	0798      	lsls	r0, r3, #30
 8001584:	f57f af44 	bpl.w	8001410 <HAL_RCC_OscConfig+0x1c>
 8001588:	f7ff fd82 	bl	8001090 <HAL_GetTick>
 800158c:	1b40      	subs	r0, r0, r5
 800158e:	2802      	cmp	r0, #2
 8001590:	d9f6      	bls.n	8001580 <HAL_RCC_OscConfig+0x18c>
 8001592:	e772      	b.n	800147a <HAL_RCC_OscConfig+0x86>
 8001594:	4b4a      	ldr	r3, [pc, #296]	; (80016c0 <HAL_RCC_OscConfig+0x2cc>)
 8001596:	6c1a      	ldr	r2, [r3, #64]	; 0x40
 8001598:	f012 5280 	ands.w	r2, r2, #268435456	; 0x10000000
 800159c:	d128      	bne.n	80015f0 <HAL_RCC_OscConfig+0x1fc>
 800159e:	9201      	str	r2, [sp, #4]
 80015a0:	6c1a      	ldr	r2, [r3, #64]	; 0x40
 80015a2:	f042 5280 	orr.w	r2, r2, #268435456	; 0x10000000
 80015a6:	641a      	str	r2, [r3, #64]	; 0x40
 80015a8:	6c1b      	ldr	r3, [r3, #64]	; 0x40
 80015aa:	f003 5380 	and.w	r3, r3, #268435456	; 0x10000000
 80015ae:	9301      	str	r3, [sp, #4]
 80015b0:	9b01      	ldr	r3, [sp, #4]
 80015b2:	2701      	movs	r7, #1
 80015b4:	4d45      	ldr	r5, [pc, #276]	; (80016cc <HAL_RCC_OscConfig+0x2d8>)
 80015b6:	682b      	ldr	r3, [r5, #0]
 80015b8:	05d9      	lsls	r1, r3, #23
 80015ba:	d51b      	bpl.n	80015f4 <HAL_RCC_OscConfig+0x200>
 80015bc:	68a3      	ldr	r3, [r4, #8]
 80015be:	4d40      	ldr	r5, [pc, #256]	; (80016c0 <HAL_RCC_OscConfig+0x2cc>)
 80015c0:	2b01      	cmp	r3, #1
 80015c2:	d127      	bne.n	8001614 <HAL_RCC_OscConfig+0x220>
 80015c4:	6f2b      	ldr	r3, [r5, #112]	; 0x70
 80015c6:	f043 0301 	orr.w	r3, r3, #1
 80015ca:	672b      	str	r3, [r5, #112]	; 0x70
 80015cc:	f7ff fd60 	bl	8001090 <HAL_GetTick>
 80015d0:	4e3b      	ldr	r6, [pc, #236]	; (80016c0 <HAL_RCC_OscConfig+0x2cc>)
 80015d2:	4605      	mov	r5, r0
 80015d4:	f241 3888 	movw	r8, #5000	; 0x1388
 80015d8:	6f33      	ldr	r3, [r6, #112]	; 0x70
 80015da:	079b      	lsls	r3, r3, #30
 80015dc:	d539      	bpl.n	8001652 <HAL_RCC_OscConfig+0x25e>
 80015de:	2f00      	cmp	r7, #0
 80015e0:	f43f af1a 	beq.w	8001418 <HAL_RCC_OscConfig+0x24>
 80015e4:	4a36      	ldr	r2, [pc, #216]	; (80016c0 <HAL_RCC_OscConfig+0x2cc>)
 80015e6:	6c13      	ldr	r3, [r2, #64]	; 0x40
 80015e8:	f023 5380 	bic.w	r3, r3, #268435456	; 0x10000000
 80015ec:	6413      	str	r3, [r2, #64]	; 0x40
 80015ee:	e713      	b.n	8001418 <HAL_RCC_OscConfig+0x24>
 80015f0:	2700      	movs	r7, #0
 80015f2:	e7df      	b.n	80015b4 <HAL_RCC_OscConfig+0x1c0>
 80015f4:	682b      	ldr	r3, [r5, #0]
 80015f6:	f443 7380 	orr.w	r3, r3, #256	; 0x100
 80015fa:	602b      	str	r3, [r5, #0]
 80015fc:	f7ff fd48 	bl	8001090 <HAL_GetTick>
 8001600:	4606      	mov	r6, r0
 8001602:	682b      	ldr	r3, [r5, #0]
 8001604:	05da      	lsls	r2, r3, #23
 8001606:	d4d9      	bmi.n	80015bc <HAL_RCC_OscConfig+0x1c8>
 8001608:	f7ff fd42 	bl	8001090 <HAL_GetTick>
 800160c:	1b80      	subs	r0, r0, r6
 800160e:	2802      	cmp	r0, #2
 8001610:	d9f7      	bls.n	8001602 <HAL_RCC_OscConfig+0x20e>
 8001612:	e732      	b.n	800147a <HAL_RCC_OscConfig+0x86>
 8001614:	2b05      	cmp	r3, #5
 8001616:	d104      	bne.n	8001622 <HAL_RCC_OscConfig+0x22e>
 8001618:	6f2b      	ldr	r3, [r5, #112]	; 0x70
 800161a:	f043 0304 	orr.w	r3, r3, #4
 800161e:	672b      	str	r3, [r5, #112]	; 0x70
 8001620:	e7d0      	b.n	80015c4 <HAL_RCC_OscConfig+0x1d0>
 8001622:	6f2a      	ldr	r2, [r5, #112]	; 0x70
 8001624:	f022 0201 	bic.w	r2, r2, #1
 8001628:	672a      	str	r2, [r5, #112]	; 0x70
 800162a:	6f2a      	ldr	r2, [r5, #112]	; 0x70
 800162c:	f022 0204 	bic.w	r2, r2, #4
 8001630:	672a      	str	r2, [r5, #112]	; 0x70
 8001632:	2b00      	cmp	r3, #0
 8001634:	d1ca      	bne.n	80015cc <HAL_RCC_OscConfig+0x1d8>
 8001636:	f7ff fd2b 	bl	8001090 <HAL_GetTick>
 800163a:	f241 3888 	movw	r8, #5000	; 0x1388
 800163e:	4606      	mov	r6, r0
 8001640:	6f2b      	ldr	r3, [r5, #112]	; 0x70
 8001642:	0798      	lsls	r0, r3, #30
 8001644:	d5cb      	bpl.n	80015de <HAL_RCC_OscConfig+0x1ea>
 8001646:	f7ff fd23 	bl	8001090 <HAL_GetTick>
 800164a:	1b80      	subs	r0, r0, r6
 800164c:	4540      	cmp	r0, r8
 800164e:	d9f7      	bls.n	8001640 <HAL_RCC_OscConfig+0x24c>
 8001650:	e713      	b.n	800147a <HAL_RCC_OscConfig+0x86>
 8001652:	f7ff fd1d 	bl	8001090 <HAL_GetTick>
 8001656:	1b40      	subs	r0, r0, r5
 8001658:	4540      	cmp	r0, r8
 800165a:	d9bd      	bls.n	80015d8 <HAL_RCC_OscConfig+0x1e4>
 800165c:	e70d      	b.n	800147a <HAL_RCC_OscConfig+0x86>
 800165e:	4d18      	ldr	r5, [pc, #96]	; (80016c0 <HAL_RCC_OscConfig+0x2cc>)
 8001660:	68ab      	ldr	r3, [r5, #8]
 8001662:	f003 030c 	and.w	r3, r3, #12
 8001666:	2b08      	cmp	r3, #8
 8001668:	d047      	beq.n	80016fa <HAL_RCC_OscConfig+0x306>
 800166a:	4e19      	ldr	r6, [pc, #100]	; (80016d0 <HAL_RCC_OscConfig+0x2dc>)
 800166c:	2300      	movs	r3, #0
 800166e:	2802      	cmp	r0, #2
 8001670:	6033      	str	r3, [r6, #0]
 8001672:	d135      	bne.n	80016e0 <HAL_RCC_OscConfig+0x2ec>
 8001674:	f7ff fd0c 	bl	8001090 <HAL_GetTick>
 8001678:	4607      	mov	r7, r0
 800167a:	682b      	ldr	r3, [r5, #0]
 800167c:	0199      	lsls	r1, r3, #6
 800167e:	d429      	bmi.n	80016d4 <HAL_RCC_OscConfig+0x2e0>
 8001680:	e9d4 3207 	ldrd	r3, r2, [r4, #28]
 8001684:	4313      	orrs	r3, r2
 8001686:	6a62      	ldr	r2, [r4, #36]	; 0x24
 8001688:	ea43 1382 	orr.w	r3, r3, r2, lsl #6
 800168c:	6ae2      	ldr	r2, [r4, #44]	; 0x2c
 800168e:	ea43 6302 	orr.w	r3, r3, r2, lsl #24
 8001692:	6aa2      	ldr	r2, [r4, #40]	; 0x28
 8001694:	0852      	lsrs	r2, r2, #1
 8001696:	3a01      	subs	r2, #1
 8001698:	ea43 4302 	orr.w	r3, r3, r2, lsl #16
 800169c:	606b      	str	r3, [r5, #4]
 800169e:	2301      	movs	r3, #1
 80016a0:	6033      	str	r3, [r6, #0]
 80016a2:	f7ff fcf5 	bl	8001090 <HAL_GetTick>
 80016a6:	4d06      	ldr	r5, [pc, #24]	; (80016c0 <HAL_RCC_OscConfig+0x2cc>)
 80016a8:	4604      	mov	r4, r0
 80016aa:	682b      	ldr	r3, [r5, #0]
 80016ac:	019a      	lsls	r2, r3, #6
 80016ae:	f53f aeb7 	bmi.w	8001420 <HAL_RCC_OscConfig+0x2c>
 80016b2:	f7ff fced 	bl	8001090 <HAL_GetTick>
 80016b6:	1b00      	subs	r0, r0, r4
 80016b8:	2802      	cmp	r0, #2
 80016ba:	d9f6      	bls.n	80016aa <HAL_RCC_OscConfig+0x2b6>
 80016bc:	e6dd      	b.n	800147a <HAL_RCC_OscConfig+0x86>
 80016be:	bf00      	nop
 80016c0:	40023800 	.word	0x40023800
 80016c4:	42470000 	.word	0x42470000
 80016c8:	42470e80 	.word	0x42470e80
 80016cc:	40007000 	.word	0x40007000
 80016d0:	42470060 	.word	0x42470060
 80016d4:	f7ff fcdc 	bl	8001090 <HAL_GetTick>
 80016d8:	1bc0      	subs	r0, r0, r7
 80016da:	2802      	cmp	r0, #2
 80016dc:	d9cd      	bls.n	800167a <HAL_RCC_OscConfig+0x286>
 80016de:	e6cc      	b.n	800147a <HAL_RCC_OscConfig+0x86>
 80016e0:	f7ff fcd6 	bl	8001090 <HAL_GetTick>
 80016e4:	4604      	mov	r4, r0
 80016e6:	682b      	ldr	r3, [r5, #0]
 80016e8:	019b      	lsls	r3, r3, #6
 80016ea:	f57f ae99 	bpl.w	8001420 <HAL_RCC_OscConfig+0x2c>
 80016ee:	f7ff fccf 	bl	8001090 <HAL_GetTick>
 80016f2:	1b00      	subs	r0, r0, r4
 80016f4:	2802      	cmp	r0, #2
 80016f6:	d9f6      	bls.n	80016e6 <HAL_RCC_OscConfig+0x2f2>
 80016f8:	e6bf      	b.n	800147a <HAL_RCC_OscConfig+0x86>
 80016fa:	2801      	cmp	r0, #1
 80016fc:	f43f aebe 	beq.w	800147c <HAL_RCC_OscConfig+0x88>
 8001700:	686b      	ldr	r3, [r5, #4]
 8001702:	69e2      	ldr	r2, [r4, #28]
 8001704:	f403 0180 	and.w	r1, r3, #4194304	; 0x400000
 8001708:	4291      	cmp	r1, r2
 800170a:	f47f aea0 	bne.w	800144e <HAL_RCC_OscConfig+0x5a>
 800170e:	6a21      	ldr	r1, [r4, #32]
 8001710:	f003 023f 	and.w	r2, r3, #63	; 0x3f
 8001714:	428a      	cmp	r2, r1
 8001716:	f47f ae9a 	bne.w	800144e <HAL_RCC_OscConfig+0x5a>
 800171a:	6a61      	ldr	r1, [r4, #36]	; 0x24
 800171c:	f647 72c0 	movw	r2, #32704	; 0x7fc0
 8001720:	401a      	ands	r2, r3
 8001722:	ebb2 1f81 	cmp.w	r2, r1, lsl #6
 8001726:	f47f ae92 	bne.w	800144e <HAL_RCC_OscConfig+0x5a>
 800172a:	6aa2      	ldr	r2, [r4, #40]	; 0x28
 800172c:	0852      	lsrs	r2, r2, #1
 800172e:	f403 3140 	and.w	r1, r3, #196608	; 0x30000
 8001732:	3a01      	subs	r2, #1
 8001734:	ebb1 4f02 	cmp.w	r1, r2, lsl #16
 8001738:	f47f ae89 	bne.w	800144e <HAL_RCC_OscConfig+0x5a>
 800173c:	6ae2      	ldr	r2, [r4, #44]	; 0x2c
 800173e:	f003 6370 	and.w	r3, r3, #251658240	; 0xf000000
 8001742:	ebb3 6f02 	cmp.w	r3, r2, lsl #24
 8001746:	f43f ae6b 	beq.w	8001420 <HAL_RCC_OscConfig+0x2c>
 800174a:	e680      	b.n	800144e <HAL_RCC_OscConfig+0x5a>

0800174c <HAL_RCC_GetSysClockFreq>:
 800174c:	4913      	ldr	r1, [pc, #76]	; (800179c <HAL_RCC_GetSysClockFreq+0x50>)
 800174e:	b508      	push	{r3, lr}
 8001750:	688b      	ldr	r3, [r1, #8]
 8001752:	f003 030c 	and.w	r3, r3, #12
 8001756:	2b04      	cmp	r3, #4
 8001758:	d01c      	beq.n	8001794 <HAL_RCC_GetSysClockFreq+0x48>
 800175a:	2b08      	cmp	r3, #8
 800175c:	d11c      	bne.n	8001798 <HAL_RCC_GetSysClockFreq+0x4c>
 800175e:	684a      	ldr	r2, [r1, #4]
 8001760:	684b      	ldr	r3, [r1, #4]
 8001762:	6849      	ldr	r1, [r1, #4]
 8001764:	f413 0380 	ands.w	r3, r3, #4194304	; 0x400000
 8001768:	bf14      	ite	ne
 800176a:	480d      	ldrne	r0, [pc, #52]	; (80017a0 <HAL_RCC_GetSysClockFreq+0x54>)
 800176c:	480d      	ldreq	r0, [pc, #52]	; (80017a4 <HAL_RCC_GetSysClockFreq+0x58>)
 800176e:	f3c1 1188 	ubfx	r1, r1, #6, #9
 8001772:	bf18      	it	ne
 8001774:	2300      	movne	r3, #0
 8001776:	f002 023f 	and.w	r2, r2, #63	; 0x3f
 800177a:	fba1 0100 	umull	r0, r1, r1, r0
 800177e:	f7ff fa8b 	bl	8000c98 <__aeabi_uldivmod>
 8001782:	4b06      	ldr	r3, [pc, #24]	; (800179c <HAL_RCC_GetSysClockFreq+0x50>)
 8001784:	685b      	ldr	r3, [r3, #4]
 8001786:	f3c3 4301 	ubfx	r3, r3, #16, #2
 800178a:	3301      	adds	r3, #1
 800178c:	005b      	lsls	r3, r3, #1
 800178e:	fbb0 f0f3 	udiv	r0, r0, r3
 8001792:	bd08      	pop	{r3, pc}
 8001794:	4802      	ldr	r0, [pc, #8]	; (80017a0 <HAL_RCC_GetSysClockFreq+0x54>)
 8001796:	e7fc      	b.n	8001792 <HAL_RCC_GetSysClockFreq+0x46>
 8001798:	4802      	ldr	r0, [pc, #8]	; (80017a4 <HAL_RCC_GetSysClockFreq+0x58>)
 800179a:	e7fa      	b.n	8001792 <HAL_RCC_GetSysClockFreq+0x46>
 800179c:	40023800 	.word	0x40023800
 80017a0:	017d7840 	.word	0x017d7840
 80017a4:	00f42400 	.word	0x00f42400

080017a8 <HAL_RCC_ClockConfig>:
 80017a8:	e92d 41f0 	stmdb	sp!, {r4, r5, r6, r7, r8, lr}
 80017ac:	460d      	mov	r5, r1
 80017ae:	4604      	mov	r4, r0
 80017b0:	b910      	cbnz	r0, 80017b8 <HAL_RCC_ClockConfig+0x10>
 80017b2:	2001      	movs	r0, #1
 80017b4:	e8bd 81f0 	ldmia.w	sp!, {r4, r5, r6, r7, r8, pc}
 80017b8:	4b44      	ldr	r3, [pc, #272]	; (80018cc <HAL_RCC_ClockConfig+0x124>)
 80017ba:	681a      	ldr	r2, [r3, #0]
 80017bc:	f002 0207 	and.w	r2, r2, #7
 80017c0:	428a      	cmp	r2, r1
 80017c2:	d328      	bcc.n	8001816 <HAL_RCC_ClockConfig+0x6e>
 80017c4:	6822      	ldr	r2, [r4, #0]
 80017c6:	0797      	lsls	r7, r2, #30
 80017c8:	d42d      	bmi.n	8001826 <HAL_RCC_ClockConfig+0x7e>
 80017ca:	07d0      	lsls	r0, r2, #31
 80017cc:	d441      	bmi.n	8001852 <HAL_RCC_ClockConfig+0xaa>
 80017ce:	4b3f      	ldr	r3, [pc, #252]	; (80018cc <HAL_RCC_ClockConfig+0x124>)
 80017d0:	681a      	ldr	r2, [r3, #0]
 80017d2:	f002 0207 	and.w	r2, r2, #7
 80017d6:	42aa      	cmp	r2, r5
 80017d8:	d866      	bhi.n	80018a8 <HAL_RCC_ClockConfig+0x100>
 80017da:	6822      	ldr	r2, [r4, #0]
 80017dc:	0751      	lsls	r1, r2, #29
 80017de:	d46c      	bmi.n	80018ba <HAL_RCC_ClockConfig+0x112>
 80017e0:	0713      	lsls	r3, r2, #28
 80017e2:	d507      	bpl.n	80017f4 <HAL_RCC_ClockConfig+0x4c>
 80017e4:	4a3a      	ldr	r2, [pc, #232]	; (80018d0 <HAL_RCC_ClockConfig+0x128>)
 80017e6:	6921      	ldr	r1, [r4, #16]
 80017e8:	6893      	ldr	r3, [r2, #8]
 80017ea:	f423 4360 	bic.w	r3, r3, #57344	; 0xe000
 80017ee:	ea43 03c1 	orr.w	r3, r3, r1, lsl #3
 80017f2:	6093      	str	r3, [r2, #8]
 80017f4:	f7ff ffaa 	bl	800174c <HAL_RCC_GetSysClockFreq>
 80017f8:	4b35      	ldr	r3, [pc, #212]	; (80018d0 <HAL_RCC_ClockConfig+0x128>)
 80017fa:	4a36      	ldr	r2, [pc, #216]	; (80018d4 <HAL_RCC_ClockConfig+0x12c>)
 80017fc:	689b      	ldr	r3, [r3, #8]
 80017fe:	f3c3 1303 	ubfx	r3, r3, #4, #4
 8001802:	5cd3      	ldrb	r3, [r2, r3]
 8001804:	40d8      	lsrs	r0, r3
 8001806:	4b34      	ldr	r3, [pc, #208]	; (80018d8 <HAL_RCC_ClockConfig+0x130>)
 8001808:	6018      	str	r0, [r3, #0]
 800180a:	4b34      	ldr	r3, [pc, #208]	; (80018dc <HAL_RCC_ClockConfig+0x134>)
 800180c:	6818      	ldr	r0, [r3, #0]
 800180e:	f7ff fbf5 	bl	8000ffc <HAL_InitTick>
 8001812:	2000      	movs	r0, #0
 8001814:	e7ce      	b.n	80017b4 <HAL_RCC_ClockConfig+0xc>
 8001816:	b2ca      	uxtb	r2, r1
 8001818:	701a      	strb	r2, [r3, #0]
 800181a:	681b      	ldr	r3, [r3, #0]
 800181c:	f003 0307 	and.w	r3, r3, #7
 8001820:	428b      	cmp	r3, r1
 8001822:	d1c6      	bne.n	80017b2 <HAL_RCC_ClockConfig+0xa>
 8001824:	e7ce      	b.n	80017c4 <HAL_RCC_ClockConfig+0x1c>
 8001826:	4b2a      	ldr	r3, [pc, #168]	; (80018d0 <HAL_RCC_ClockConfig+0x128>)
 8001828:	f012 0f04 	tst.w	r2, #4
 800182c:	bf1e      	ittt	ne
 800182e:	6899      	ldrne	r1, [r3, #8]
 8001830:	f441 51e0 	orrne.w	r1, r1, #7168	; 0x1c00
 8001834:	6099      	strne	r1, [r3, #8]
 8001836:	0716      	lsls	r6, r2, #28
 8001838:	bf42      	ittt	mi
 800183a:	6899      	ldrmi	r1, [r3, #8]
 800183c:	f441 4160 	orrmi.w	r1, r1, #57344	; 0xe000
 8001840:	6099      	strmi	r1, [r3, #8]
 8001842:	4923      	ldr	r1, [pc, #140]	; (80018d0 <HAL_RCC_ClockConfig+0x128>)
 8001844:	68a0      	ldr	r0, [r4, #8]
 8001846:	688b      	ldr	r3, [r1, #8]
 8001848:	f023 03f0 	bic.w	r3, r3, #240	; 0xf0
 800184c:	4303      	orrs	r3, r0
 800184e:	608b      	str	r3, [r1, #8]
 8001850:	e7bb      	b.n	80017ca <HAL_RCC_ClockConfig+0x22>
 8001852:	6862      	ldr	r2, [r4, #4]
 8001854:	4b1e      	ldr	r3, [pc, #120]	; (80018d0 <HAL_RCC_ClockConfig+0x128>)
 8001856:	2a01      	cmp	r2, #1
 8001858:	d11c      	bne.n	8001894 <HAL_RCC_ClockConfig+0xec>
 800185a:	681b      	ldr	r3, [r3, #0]
 800185c:	f413 3f00 	tst.w	r3, #131072	; 0x20000
 8001860:	d0a7      	beq.n	80017b2 <HAL_RCC_ClockConfig+0xa>
 8001862:	4e1b      	ldr	r6, [pc, #108]	; (80018d0 <HAL_RCC_ClockConfig+0x128>)
 8001864:	68b3      	ldr	r3, [r6, #8]
 8001866:	f023 0303 	bic.w	r3, r3, #3
 800186a:	4313      	orrs	r3, r2
 800186c:	60b3      	str	r3, [r6, #8]
 800186e:	f7ff fc0f 	bl	8001090 <HAL_GetTick>
 8001872:	f241 3888 	movw	r8, #5000	; 0x1388
 8001876:	4607      	mov	r7, r0
 8001878:	68b3      	ldr	r3, [r6, #8]
 800187a:	6862      	ldr	r2, [r4, #4]
 800187c:	f003 030c 	and.w	r3, r3, #12
 8001880:	ebb3 0f82 	cmp.w	r3, r2, lsl #2
 8001884:	d0a3      	beq.n	80017ce <HAL_RCC_ClockConfig+0x26>
 8001886:	f7ff fc03 	bl	8001090 <HAL_GetTick>
 800188a:	1bc0      	subs	r0, r0, r7
 800188c:	4540      	cmp	r0, r8
 800188e:	d9f3      	bls.n	8001878 <HAL_RCC_ClockConfig+0xd0>
 8001890:	2003      	movs	r0, #3
 8001892:	e78f      	b.n	80017b4 <HAL_RCC_ClockConfig+0xc>
 8001894:	1e91      	subs	r1, r2, #2
 8001896:	2901      	cmp	r1, #1
 8001898:	681b      	ldr	r3, [r3, #0]
 800189a:	d802      	bhi.n	80018a2 <HAL_RCC_ClockConfig+0xfa>
 800189c:	f013 7f00 	tst.w	r3, #33554432	; 0x2000000
 80018a0:	e7de      	b.n	8001860 <HAL_RCC_ClockConfig+0xb8>
 80018a2:	f013 0f02 	tst.w	r3, #2
 80018a6:	e7db      	b.n	8001860 <HAL_RCC_ClockConfig+0xb8>
 80018a8:	b2ea      	uxtb	r2, r5
 80018aa:	701a      	strb	r2, [r3, #0]
 80018ac:	681b      	ldr	r3, [r3, #0]
 80018ae:	f003 0307 	and.w	r3, r3, #7
 80018b2:	42ab      	cmp	r3, r5
 80018b4:	f47f af7d 	bne.w	80017b2 <HAL_RCC_ClockConfig+0xa>
 80018b8:	e78f      	b.n	80017da <HAL_RCC_ClockConfig+0x32>
 80018ba:	4905      	ldr	r1, [pc, #20]	; (80018d0 <HAL_RCC_ClockConfig+0x128>)
 80018bc:	68e0      	ldr	r0, [r4, #12]
 80018be:	688b      	ldr	r3, [r1, #8]
 80018c0:	f423 53e0 	bic.w	r3, r3, #7168	; 0x1c00
 80018c4:	4303      	orrs	r3, r0
 80018c6:	608b      	str	r3, [r1, #8]
 80018c8:	e78a      	b.n	80017e0 <HAL_RCC_ClockConfig+0x38>
 80018ca:	bf00      	nop
 80018cc:	40023c00 	.word	0x40023c00
 80018d0:	40023800 	.word	0x40023800
 80018d4:	08007f44 	.word	0x08007f44
 80018d8:	20000008 	.word	0x20000008
 80018dc:	20000004 	.word	0x20000004

080018e0 <HAL_RCC_GetPCLK1Freq>:
 80018e0:	4b04      	ldr	r3, [pc, #16]	; (80018f4 <HAL_RCC_GetPCLK1Freq+0x14>)
 80018e2:	4a05      	ldr	r2, [pc, #20]	; (80018f8 <HAL_RCC_GetPCLK1Freq+0x18>)
 80018e4:	689b      	ldr	r3, [r3, #8]
 80018e6:	f3c3 2382 	ubfx	r3, r3, #10, #3
 80018ea:	5cd3      	ldrb	r3, [r2, r3]
 80018ec:	4a03      	ldr	r2, [pc, #12]	; (80018fc <HAL_RCC_GetPCLK1Freq+0x1c>)
 80018ee:	6810      	ldr	r0, [r2, #0]
 80018f0:	40d8      	lsrs	r0, r3
 80018f2:	4770      	bx	lr
 80018f4:	40023800 	.word	0x40023800
 80018f8:	08007f54 	.word	0x08007f54
 80018fc:	20000008 	.word	0x20000008

08001900 <HAL_RCC_GetPCLK2Freq>:
 8001900:	4b04      	ldr	r3, [pc, #16]	; (8001914 <HAL_RCC_GetPCLK2Freq+0x14>)
 8001902:	4a05      	ldr	r2, [pc, #20]	; (8001918 <HAL_RCC_GetPCLK2Freq+0x18>)
 8001904:	689b      	ldr	r3, [r3, #8]
 8001906:	f3c3 3342 	ubfx	r3, r3, #13, #3
 800190a:	5cd3      	ldrb	r3, [r2, r3]
 800190c:	4a03      	ldr	r2, [pc, #12]	; (800191c <HAL_RCC_GetPCLK2Freq+0x1c>)
 800190e:	6810      	ldr	r0, [r2, #0]
 8001910:	40d8      	lsrs	r0, r3
 8001912:	4770      	bx	lr
 8001914:	40023800 	.word	0x40023800
 8001918:	08007f54 	.word	0x08007f54
 800191c:	20000008 	.word	0x20000008

08001920 <SPI_WaitFlagStateUntilTimeout.constprop.0>:
 8001920:	e92d 41f3 	stmdb	sp!, {r0, r1, r4, r5, r6, r7, r8, lr}
 8001924:	461d      	mov	r5, r3
 8001926:	4617      	mov	r7, r2
 8001928:	4688      	mov	r8, r1
 800192a:	4606      	mov	r6, r0
 800192c:	f7ff fbb0 	bl	8001090 <HAL_GetTick>
 8001930:	443d      	add	r5, r7
 8001932:	1a2c      	subs	r4, r5, r0
 8001934:	f7ff fbac 	bl	8001090 <HAL_GetTick>
 8001938:	4b22      	ldr	r3, [pc, #136]	; (80019c4 <SPI_WaitFlagStateUntilTimeout.constprop.0+0xa4>)
 800193a:	681b      	ldr	r3, [r3, #0]
 800193c:	f3c3 33cb 	ubfx	r3, r3, #15, #12
 8001940:	4605      	mov	r5, r0
 8001942:	4363      	muls	r3, r4
 8001944:	6832      	ldr	r2, [r6, #0]
 8001946:	9301      	str	r3, [sp, #4]
 8001948:	6893      	ldr	r3, [r2, #8]
 800194a:	ea38 0303 	bics.w	r3, r8, r3
 800194e:	d001      	beq.n	8001954 <SPI_WaitFlagStateUntilTimeout.constprop.0+0x34>
 8001950:	2000      	movs	r0, #0
 8001952:	e02d      	b.n	80019b0 <SPI_WaitFlagStateUntilTimeout.constprop.0+0x90>
 8001954:	1c7b      	adds	r3, r7, #1
 8001956:	d0f7      	beq.n	8001948 <SPI_WaitFlagStateUntilTimeout.constprop.0+0x28>
 8001958:	f7ff fb9a 	bl	8001090 <HAL_GetTick>
 800195c:	1b40      	subs	r0, r0, r5
 800195e:	42a0      	cmp	r0, r4
 8001960:	d329      	bcc.n	80019b6 <SPI_WaitFlagStateUntilTimeout.constprop.0+0x96>
 8001962:	6833      	ldr	r3, [r6, #0]
 8001964:	685a      	ldr	r2, [r3, #4]
 8001966:	f022 02e0 	bic.w	r2, r2, #224	; 0xe0
 800196a:	605a      	str	r2, [r3, #4]
 800196c:	6872      	ldr	r2, [r6, #4]
 800196e:	f5b2 7f82 	cmp.w	r2, #260	; 0x104
 8001972:	d10a      	bne.n	800198a <SPI_WaitFlagStateUntilTimeout.constprop.0+0x6a>
 8001974:	68b2      	ldr	r2, [r6, #8]
 8001976:	f5b2 4f00 	cmp.w	r2, #32768	; 0x8000
 800197a:	d002      	beq.n	8001982 <SPI_WaitFlagStateUntilTimeout.constprop.0+0x62>
 800197c:	f5b2 6f80 	cmp.w	r2, #1024	; 0x400
 8001980:	d103      	bne.n	800198a <SPI_WaitFlagStateUntilTimeout.constprop.0+0x6a>
 8001982:	681a      	ldr	r2, [r3, #0]
 8001984:	f022 0240 	bic.w	r2, r2, #64	; 0x40
 8001988:	601a      	str	r2, [r3, #0]
 800198a:	6ab2      	ldr	r2, [r6, #40]	; 0x28
 800198c:	f5b2 5f00 	cmp.w	r2, #8192	; 0x2000
 8001990:	d107      	bne.n	80019a2 <SPI_WaitFlagStateUntilTimeout.constprop.0+0x82>
 8001992:	681a      	ldr	r2, [r3, #0]
 8001994:	f422 5200 	bic.w	r2, r2, #8192	; 0x2000
 8001998:	601a      	str	r2, [r3, #0]
 800199a:	681a      	ldr	r2, [r3, #0]
 800199c:	f442 5200 	orr.w	r2, r2, #8192	; 0x2000
 80019a0:	601a      	str	r2, [r3, #0]
 80019a2:	2301      	movs	r3, #1
 80019a4:	f886 3051 	strb.w	r3, [r6, #81]	; 0x51
 80019a8:	2300      	movs	r3, #0
 80019aa:	f886 3050 	strb.w	r3, [r6, #80]	; 0x50
 80019ae:	2003      	movs	r0, #3
 80019b0:	b002      	add	sp, #8
 80019b2:	e8bd 81f0 	ldmia.w	sp!, {r4, r5, r6, r7, r8, pc}
 80019b6:	9b01      	ldr	r3, [sp, #4]
 80019b8:	2b00      	cmp	r3, #0
 80019ba:	9b01      	ldr	r3, [sp, #4]
 80019bc:	bf08      	it	eq
 80019be:	2400      	moveq	r4, #0
 80019c0:	3b01      	subs	r3, #1
 80019c2:	e7bf      	b.n	8001944 <SPI_WaitFlagStateUntilTimeout.constprop.0+0x24>
 80019c4:	20000008 	.word	0x20000008

080019c8 <SPI_EndRxTransaction>:
 80019c8:	b538      	push	{r3, r4, r5, lr}
 80019ca:	4613      	mov	r3, r2
 80019cc:	6842      	ldr	r2, [r0, #4]
 80019ce:	f5b2 7f82 	cmp.w	r2, #260	; 0x104
 80019d2:	4604      	mov	r4, r0
 80019d4:	d11f      	bne.n	8001a16 <SPI_EndRxTransaction+0x4e>
 80019d6:	6882      	ldr	r2, [r0, #8]
 80019d8:	f5b2 4f00 	cmp.w	r2, #32768	; 0x8000
 80019dc:	d002      	beq.n	80019e4 <SPI_EndRxTransaction+0x1c>
 80019de:	f5b2 6f80 	cmp.w	r2, #1024	; 0x400
 80019e2:	d107      	bne.n	80019f4 <SPI_EndRxTransaction+0x2c>
 80019e4:	6825      	ldr	r5, [r4, #0]
 80019e6:	6828      	ldr	r0, [r5, #0]
 80019e8:	f5b2 6f80 	cmp.w	r2, #1024	; 0x400
 80019ec:	f020 0040 	bic.w	r0, r0, #64	; 0x40
 80019f0:	6028      	str	r0, [r5, #0]
 80019f2:	d007      	beq.n	8001a04 <SPI_EndRxTransaction+0x3c>
 80019f4:	460a      	mov	r2, r1
 80019f6:	2180      	movs	r1, #128	; 0x80
 80019f8:	4620      	mov	r0, r4
 80019fa:	f7ff ff91 	bl	8001920 <SPI_WaitFlagStateUntilTimeout.constprop.0>
 80019fe:	b920      	cbnz	r0, 8001a0a <SPI_EndRxTransaction+0x42>
 8001a00:	2000      	movs	r0, #0
 8001a02:	bd38      	pop	{r3, r4, r5, pc}
 8001a04:	460a      	mov	r2, r1
 8001a06:	2101      	movs	r1, #1
 8001a08:	e7f6      	b.n	80019f8 <SPI_EndRxTransaction+0x30>
 8001a0a:	6d63      	ldr	r3, [r4, #84]	; 0x54
 8001a0c:	f043 0320 	orr.w	r3, r3, #32
 8001a10:	6563      	str	r3, [r4, #84]	; 0x54
 8001a12:	2003      	movs	r0, #3
 8001a14:	e7f5      	b.n	8001a02 <SPI_EndRxTransaction+0x3a>
 8001a16:	460a      	mov	r2, r1
 8001a18:	2101      	movs	r1, #1
 8001a1a:	e7ee      	b.n	80019fa <SPI_EndRxTransaction+0x32>

08001a1c <SPI_EndRxTxTransaction>:
 8001a1c:	b537      	push	{r0, r1, r2, r4, r5, lr}
 8001a1e:	4613      	mov	r3, r2
 8001a20:	4a12      	ldr	r2, [pc, #72]	; (8001a6c <SPI_EndRxTxTransaction+0x50>)
 8001a22:	4d13      	ldr	r5, [pc, #76]	; (8001a70 <SPI_EndRxTxTransaction+0x54>)
 8001a24:	6812      	ldr	r2, [r2, #0]
 8001a26:	fbb2 f5f5 	udiv	r5, r2, r5
 8001a2a:	f44f 727a 	mov.w	r2, #1000	; 0x3e8
 8001a2e:	436a      	muls	r2, r5
 8001a30:	9201      	str	r2, [sp, #4]
 8001a32:	6842      	ldr	r2, [r0, #4]
 8001a34:	f5b2 7f82 	cmp.w	r2, #260	; 0x104
 8001a38:	4604      	mov	r4, r0
 8001a3a:	d10b      	bne.n	8001a54 <SPI_EndRxTxTransaction+0x38>
 8001a3c:	460a      	mov	r2, r1
 8001a3e:	2180      	movs	r1, #128	; 0x80
 8001a40:	f7ff ff6e 	bl	8001920 <SPI_WaitFlagStateUntilTimeout.constprop.0>
 8001a44:	b178      	cbz	r0, 8001a66 <SPI_EndRxTxTransaction+0x4a>
 8001a46:	6d63      	ldr	r3, [r4, #84]	; 0x54
 8001a48:	f043 0320 	orr.w	r3, r3, #32
 8001a4c:	6563      	str	r3, [r4, #84]	; 0x54
 8001a4e:	2003      	movs	r0, #3
 8001a50:	b003      	add	sp, #12
 8001a52:	bd30      	pop	{r4, r5, pc}
 8001a54:	9b01      	ldr	r3, [sp, #4]
 8001a56:	b133      	cbz	r3, 8001a66 <SPI_EndRxTxTransaction+0x4a>
 8001a58:	9b01      	ldr	r3, [sp, #4]
 8001a5a:	3b01      	subs	r3, #1
 8001a5c:	9301      	str	r3, [sp, #4]
 8001a5e:	6823      	ldr	r3, [r4, #0]
 8001a60:	689b      	ldr	r3, [r3, #8]
 8001a62:	061b      	lsls	r3, r3, #24
 8001a64:	d4f6      	bmi.n	8001a54 <SPI_EndRxTxTransaction+0x38>
 8001a66:	2000      	movs	r0, #0
 8001a68:	e7f2      	b.n	8001a50 <SPI_EndRxTxTransaction+0x34>
 8001a6a:	bf00      	nop
 8001a6c:	20000008 	.word	0x20000008
 8001a70:	016e3600 	.word	0x016e3600

08001a74 <HAL_SPI_Init>:
 8001a74:	b510      	push	{r4, lr}
 8001a76:	4604      	mov	r4, r0
 8001a78:	2800      	cmp	r0, #0
 8001a7a:	d055      	beq.n	8001b28 <HAL_SPI_Init+0xb4>
 8001a7c:	6a43      	ldr	r3, [r0, #36]	; 0x24
 8001a7e:	2b00      	cmp	r3, #0
 8001a80:	d14e      	bne.n	8001b20 <HAL_SPI_Init+0xac>
 8001a82:	6842      	ldr	r2, [r0, #4]
 8001a84:	f5b2 7f82 	cmp.w	r2, #260	; 0x104
 8001a88:	d000      	beq.n	8001a8c <HAL_SPI_Init+0x18>
 8001a8a:	61c3      	str	r3, [r0, #28]
 8001a8c:	2300      	movs	r3, #0
 8001a8e:	62a3      	str	r3, [r4, #40]	; 0x28
 8001a90:	f894 3051 	ldrb.w	r3, [r4, #81]	; 0x51
 8001a94:	f003 02ff 	and.w	r2, r3, #255	; 0xff
 8001a98:	b923      	cbnz	r3, 8001aa4 <HAL_SPI_Init+0x30>
 8001a9a:	f884 2050 	strb.w	r2, [r4, #80]	; 0x50
 8001a9e:	4620      	mov	r0, r4
 8001aa0:	f001 fb24 	bl	80030ec <HAL_SPI_MspInit>
 8001aa4:	6821      	ldr	r1, [r4, #0]
 8001aa6:	68a0      	ldr	r0, [r4, #8]
 8001aa8:	69a2      	ldr	r2, [r4, #24]
 8001aaa:	2302      	movs	r3, #2
 8001aac:	f884 3051 	strb.w	r3, [r4, #81]	; 0x51
 8001ab0:	680b      	ldr	r3, [r1, #0]
 8001ab2:	f023 0340 	bic.w	r3, r3, #64	; 0x40
 8001ab6:	600b      	str	r3, [r1, #0]
 8001ab8:	6863      	ldr	r3, [r4, #4]
 8001aba:	f400 4004 	and.w	r0, r0, #33792	; 0x8400
 8001abe:	f403 7382 	and.w	r3, r3, #260	; 0x104
 8001ac2:	4303      	orrs	r3, r0
 8001ac4:	68e0      	ldr	r0, [r4, #12]
 8001ac6:	f400 6000 	and.w	r0, r0, #2048	; 0x800
 8001aca:	4303      	orrs	r3, r0
 8001acc:	6920      	ldr	r0, [r4, #16]
 8001ace:	f000 0002 	and.w	r0, r0, #2
 8001ad2:	4303      	orrs	r3, r0
 8001ad4:	6960      	ldr	r0, [r4, #20]
 8001ad6:	f000 0001 	and.w	r0, r0, #1
 8001ada:	4303      	orrs	r3, r0
 8001adc:	f402 7000 	and.w	r0, r2, #512	; 0x200
 8001ae0:	4303      	orrs	r3, r0
 8001ae2:	69e0      	ldr	r0, [r4, #28]
 8001ae4:	f000 0038 	and.w	r0, r0, #56	; 0x38
 8001ae8:	4303      	orrs	r3, r0
 8001aea:	6a20      	ldr	r0, [r4, #32]
 8001aec:	f000 0080 	and.w	r0, r0, #128	; 0x80
 8001af0:	4303      	orrs	r3, r0
 8001af2:	6aa0      	ldr	r0, [r4, #40]	; 0x28
 8001af4:	f400 5000 	and.w	r0, r0, #8192	; 0x2000
 8001af8:	4303      	orrs	r3, r0
 8001afa:	600b      	str	r3, [r1, #0]
 8001afc:	6a63      	ldr	r3, [r4, #36]	; 0x24
 8001afe:	0c12      	lsrs	r2, r2, #16
 8001b00:	f003 0310 	and.w	r3, r3, #16
 8001b04:	f002 0204 	and.w	r2, r2, #4
 8001b08:	431a      	orrs	r2, r3
 8001b0a:	604a      	str	r2, [r1, #4]
 8001b0c:	69cb      	ldr	r3, [r1, #28]
 8001b0e:	f423 6300 	bic.w	r3, r3, #2048	; 0x800
 8001b12:	61cb      	str	r3, [r1, #28]
 8001b14:	2000      	movs	r0, #0
 8001b16:	2301      	movs	r3, #1
 8001b18:	6560      	str	r0, [r4, #84]	; 0x54
 8001b1a:	f884 3051 	strb.w	r3, [r4, #81]	; 0x51
 8001b1e:	bd10      	pop	{r4, pc}
 8001b20:	2300      	movs	r3, #0
 8001b22:	e9c0 3304 	strd	r3, r3, [r0, #16]
 8001b26:	e7b1      	b.n	8001a8c <HAL_SPI_Init+0x18>
 8001b28:	2001      	movs	r0, #1
 8001b2a:	e7f8      	b.n	8001b1e <HAL_SPI_Init+0xaa>

08001b2c <HAL_SPI_Transmit>:
 8001b2c:	e92d 43f7 	stmdb	sp!, {r0, r1, r2, r4, r5, r6, r7, r8, r9, lr}
 8001b30:	461f      	mov	r7, r3
 8001b32:	f890 3050 	ldrb.w	r3, [r0, #80]	; 0x50
 8001b36:	2b01      	cmp	r3, #1
 8001b38:	4604      	mov	r4, r0
 8001b3a:	460d      	mov	r5, r1
 8001b3c:	4690      	mov	r8, r2
 8001b3e:	f000 80a0 	beq.w	8001c82 <HAL_SPI_Transmit+0x156>
 8001b42:	2301      	movs	r3, #1
 8001b44:	f880 3050 	strb.w	r3, [r0, #80]	; 0x50
 8001b48:	f7ff faa2 	bl	8001090 <HAL_GetTick>
 8001b4c:	f894 3051 	ldrb.w	r3, [r4, #81]	; 0x51
 8001b50:	2b01      	cmp	r3, #1
 8001b52:	4681      	mov	r9, r0
 8001b54:	b2d8      	uxtb	r0, r3
 8001b56:	f040 8092 	bne.w	8001c7e <HAL_SPI_Transmit+0x152>
 8001b5a:	2d00      	cmp	r5, #0
 8001b5c:	d061      	beq.n	8001c22 <HAL_SPI_Transmit+0xf6>
 8001b5e:	f1b8 0f00 	cmp.w	r8, #0
 8001b62:	d05e      	beq.n	8001c22 <HAL_SPI_Transmit+0xf6>
 8001b64:	2303      	movs	r3, #3
 8001b66:	f884 3051 	strb.w	r3, [r4, #81]	; 0x51
 8001b6a:	2300      	movs	r3, #0
 8001b6c:	6563      	str	r3, [r4, #84]	; 0x54
 8001b6e:	e9c4 3310 	strd	r3, r3, [r4, #64]	; 0x40
 8001b72:	f8a4 8036 	strh.w	r8, [r4, #54]	; 0x36
 8001b76:	63a3      	str	r3, [r4, #56]	; 0x38
 8001b78:	87a3      	strh	r3, [r4, #60]	; 0x3c
 8001b7a:	87e3      	strh	r3, [r4, #62]	; 0x3e
 8001b7c:	68a3      	ldr	r3, [r4, #8]
 8001b7e:	6826      	ldr	r6, [r4, #0]
 8001b80:	6325      	str	r5, [r4, #48]	; 0x30
 8001b82:	f5b3 4f00 	cmp.w	r3, #32768	; 0x8000
 8001b86:	f8a4 8034 	strh.w	r8, [r4, #52]	; 0x34
 8001b8a:	d107      	bne.n	8001b9c <HAL_SPI_Transmit+0x70>
 8001b8c:	6833      	ldr	r3, [r6, #0]
 8001b8e:	f023 0340 	bic.w	r3, r3, #64	; 0x40
 8001b92:	6033      	str	r3, [r6, #0]
 8001b94:	6833      	ldr	r3, [r6, #0]
 8001b96:	f443 4380 	orr.w	r3, r3, #16384	; 0x4000
 8001b9a:	6033      	str	r3, [r6, #0]
 8001b9c:	6833      	ldr	r3, [r6, #0]
 8001b9e:	68e2      	ldr	r2, [r4, #12]
 8001ba0:	065b      	lsls	r3, r3, #25
 8001ba2:	bf5e      	ittt	pl
 8001ba4:	6833      	ldrpl	r3, [r6, #0]
 8001ba6:	f043 0340 	orrpl.w	r3, r3, #64	; 0x40
 8001baa:	6033      	strpl	r3, [r6, #0]
 8001bac:	f5b2 6f00 	cmp.w	r2, #2048	; 0x800
 8001bb0:	6863      	ldr	r3, [r4, #4]
 8001bb2:	d13f      	bne.n	8001c34 <HAL_SPI_Transmit+0x108>
 8001bb4:	b113      	cbz	r3, 8001bbc <HAL_SPI_Transmit+0x90>
 8001bb6:	f1b8 0f01 	cmp.w	r8, #1
 8001bba:	d107      	bne.n	8001bcc <HAL_SPI_Transmit+0xa0>
 8001bbc:	f835 3b02 	ldrh.w	r3, [r5], #2
 8001bc0:	60f3      	str	r3, [r6, #12]
 8001bc2:	6325      	str	r5, [r4, #48]	; 0x30
 8001bc4:	8ee3      	ldrh	r3, [r4, #54]	; 0x36
 8001bc6:	3b01      	subs	r3, #1
 8001bc8:	b29b      	uxth	r3, r3
 8001bca:	86e3      	strh	r3, [r4, #54]	; 0x36
 8001bcc:	8ee3      	ldrh	r3, [r4, #54]	; 0x36
 8001bce:	b29b      	uxth	r3, r3
 8001bd0:	b9a3      	cbnz	r3, 8001bfc <HAL_SPI_Transmit+0xd0>
 8001bd2:	464a      	mov	r2, r9
 8001bd4:	4639      	mov	r1, r7
 8001bd6:	4620      	mov	r0, r4
 8001bd8:	f7ff ff20 	bl	8001a1c <SPI_EndRxTxTransaction>
 8001bdc:	2800      	cmp	r0, #0
 8001bde:	d14b      	bne.n	8001c78 <HAL_SPI_Transmit+0x14c>
 8001be0:	68a3      	ldr	r3, [r4, #8]
 8001be2:	b933      	cbnz	r3, 8001bf2 <HAL_SPI_Transmit+0xc6>
 8001be4:	9301      	str	r3, [sp, #4]
 8001be6:	6823      	ldr	r3, [r4, #0]
 8001be8:	68da      	ldr	r2, [r3, #12]
 8001bea:	9201      	str	r2, [sp, #4]
 8001bec:	689b      	ldr	r3, [r3, #8]
 8001bee:	9301      	str	r3, [sp, #4]
 8001bf0:	9b01      	ldr	r3, [sp, #4]
 8001bf2:	6d60      	ldr	r0, [r4, #84]	; 0x54
 8001bf4:	3800      	subs	r0, #0
 8001bf6:	bf18      	it	ne
 8001bf8:	2001      	movne	r0, #1
 8001bfa:	e012      	b.n	8001c22 <HAL_SPI_Transmit+0xf6>
 8001bfc:	6822      	ldr	r2, [r4, #0]
 8001bfe:	6893      	ldr	r3, [r2, #8]
 8001c00:	0798      	lsls	r0, r3, #30
 8001c02:	d505      	bpl.n	8001c10 <HAL_SPI_Transmit+0xe4>
 8001c04:	6b23      	ldr	r3, [r4, #48]	; 0x30
 8001c06:	f833 1b02 	ldrh.w	r1, [r3], #2
 8001c0a:	60d1      	str	r1, [r2, #12]
 8001c0c:	6323      	str	r3, [r4, #48]	; 0x30
 8001c0e:	e7d9      	b.n	8001bc4 <HAL_SPI_Transmit+0x98>
 8001c10:	f7ff fa3e 	bl	8001090 <HAL_GetTick>
 8001c14:	eba0 0009 	sub.w	r0, r0, r9
 8001c18:	42b8      	cmp	r0, r7
 8001c1a:	d3d7      	bcc.n	8001bcc <HAL_SPI_Transmit+0xa0>
 8001c1c:	1c79      	adds	r1, r7, #1
 8001c1e:	d0d5      	beq.n	8001bcc <HAL_SPI_Transmit+0xa0>
 8001c20:	2003      	movs	r0, #3
 8001c22:	2301      	movs	r3, #1
 8001c24:	f884 3051 	strb.w	r3, [r4, #81]	; 0x51
 8001c28:	2300      	movs	r3, #0
 8001c2a:	f884 3050 	strb.w	r3, [r4, #80]	; 0x50
 8001c2e:	b003      	add	sp, #12
 8001c30:	e8bd 83f0 	ldmia.w	sp!, {r4, r5, r6, r7, r8, r9, pc}
 8001c34:	b113      	cbz	r3, 8001c3c <HAL_SPI_Transmit+0x110>
 8001c36:	f1b8 0f01 	cmp.w	r8, #1
 8001c3a:	d108      	bne.n	8001c4e <HAL_SPI_Transmit+0x122>
 8001c3c:	782b      	ldrb	r3, [r5, #0]
 8001c3e:	7333      	strb	r3, [r6, #12]
 8001c40:	6b23      	ldr	r3, [r4, #48]	; 0x30
 8001c42:	3301      	adds	r3, #1
 8001c44:	6323      	str	r3, [r4, #48]	; 0x30
 8001c46:	8ee3      	ldrh	r3, [r4, #54]	; 0x36
 8001c48:	3b01      	subs	r3, #1
 8001c4a:	b29b      	uxth	r3, r3
 8001c4c:	86e3      	strh	r3, [r4, #54]	; 0x36
 8001c4e:	8ee3      	ldrh	r3, [r4, #54]	; 0x36
 8001c50:	b29b      	uxth	r3, r3
 8001c52:	2b00      	cmp	r3, #0
 8001c54:	d0bd      	beq.n	8001bd2 <HAL_SPI_Transmit+0xa6>
 8001c56:	6823      	ldr	r3, [r4, #0]
 8001c58:	689a      	ldr	r2, [r3, #8]
 8001c5a:	0792      	lsls	r2, r2, #30
 8001c5c:	d503      	bpl.n	8001c66 <HAL_SPI_Transmit+0x13a>
 8001c5e:	6b22      	ldr	r2, [r4, #48]	; 0x30
 8001c60:	7812      	ldrb	r2, [r2, #0]
 8001c62:	731a      	strb	r2, [r3, #12]
 8001c64:	e7ec      	b.n	8001c40 <HAL_SPI_Transmit+0x114>
 8001c66:	f7ff fa13 	bl	8001090 <HAL_GetTick>
 8001c6a:	eba0 0009 	sub.w	r0, r0, r9
 8001c6e:	42b8      	cmp	r0, r7
 8001c70:	d3ed      	bcc.n	8001c4e <HAL_SPI_Transmit+0x122>
 8001c72:	1c7b      	adds	r3, r7, #1
 8001c74:	d0eb      	beq.n	8001c4e <HAL_SPI_Transmit+0x122>
 8001c76:	e7d3      	b.n	8001c20 <HAL_SPI_Transmit+0xf4>
 8001c78:	2320      	movs	r3, #32
 8001c7a:	6563      	str	r3, [r4, #84]	; 0x54
 8001c7c:	e7b0      	b.n	8001be0 <HAL_SPI_Transmit+0xb4>
 8001c7e:	2002      	movs	r0, #2
 8001c80:	e7cf      	b.n	8001c22 <HAL_SPI_Transmit+0xf6>
 8001c82:	2002      	movs	r0, #2
 8001c84:	e7d3      	b.n	8001c2e <HAL_SPI_Transmit+0x102>

08001c86 <HAL_SPI_TransmitReceive>:
 8001c86:	e92d 43f7 	stmdb	sp!, {r0, r1, r2, r4, r5, r6, r7, r8, r9, lr}
 8001c8a:	461e      	mov	r6, r3
 8001c8c:	f890 3050 	ldrb.w	r3, [r0, #80]	; 0x50
 8001c90:	f8dd 8028 	ldr.w	r8, [sp, #40]	; 0x28
 8001c94:	2b01      	cmp	r3, #1
 8001c96:	4604      	mov	r4, r0
 8001c98:	460d      	mov	r5, r1
 8001c9a:	4691      	mov	r9, r2
 8001c9c:	f000 80e0 	beq.w	8001e60 <HAL_SPI_TransmitReceive+0x1da>
 8001ca0:	2301      	movs	r3, #1
 8001ca2:	f880 3050 	strb.w	r3, [r0, #80]	; 0x50
 8001ca6:	f7ff f9f3 	bl	8001090 <HAL_GetTick>
 8001caa:	f894 3051 	ldrb.w	r3, [r4, #81]	; 0x51
 8001cae:	6862      	ldr	r2, [r4, #4]
 8001cb0:	2b01      	cmp	r3, #1
 8001cb2:	4607      	mov	r7, r0
 8001cb4:	b2d9      	uxtb	r1, r3
 8001cb6:	d00a      	beq.n	8001cce <HAL_SPI_TransmitReceive+0x48>
 8001cb8:	f5b2 7f82 	cmp.w	r2, #260	; 0x104
 8001cbc:	f040 80ce 	bne.w	8001e5c <HAL_SPI_TransmitReceive+0x1d6>
 8001cc0:	68a3      	ldr	r3, [r4, #8]
 8001cc2:	2b00      	cmp	r3, #0
 8001cc4:	f040 80ca 	bne.w	8001e5c <HAL_SPI_TransmitReceive+0x1d6>
 8001cc8:	2904      	cmp	r1, #4
 8001cca:	f040 80c7 	bne.w	8001e5c <HAL_SPI_TransmitReceive+0x1d6>
 8001cce:	2d00      	cmp	r5, #0
 8001cd0:	d03f      	beq.n	8001d52 <HAL_SPI_TransmitReceive+0xcc>
 8001cd2:	f1b9 0f00 	cmp.w	r9, #0
 8001cd6:	d03c      	beq.n	8001d52 <HAL_SPI_TransmitReceive+0xcc>
 8001cd8:	2e00      	cmp	r6, #0
 8001cda:	d03a      	beq.n	8001d52 <HAL_SPI_TransmitReceive+0xcc>
 8001cdc:	f894 3051 	ldrb.w	r3, [r4, #81]	; 0x51
 8001ce0:	f8c4 9038 	str.w	r9, [r4, #56]	; 0x38
 8001ce4:	2b04      	cmp	r3, #4
 8001ce6:	bf1c      	itt	ne
 8001ce8:	2305      	movne	r3, #5
 8001cea:	f884 3051 	strbne.w	r3, [r4, #81]	; 0x51
 8001cee:	2300      	movs	r3, #0
 8001cf0:	6563      	str	r3, [r4, #84]	; 0x54
 8001cf2:	e9c4 3310 	strd	r3, r3, [r4, #64]	; 0x40
 8001cf6:	6823      	ldr	r3, [r4, #0]
 8001cf8:	87e6      	strh	r6, [r4, #62]	; 0x3e
 8001cfa:	86e6      	strh	r6, [r4, #54]	; 0x36
 8001cfc:	6819      	ldr	r1, [r3, #0]
 8001cfe:	87a6      	strh	r6, [r4, #60]	; 0x3c
 8001d00:	0649      	lsls	r1, r1, #25
 8001d02:	bf58      	it	pl
 8001d04:	6819      	ldrpl	r1, [r3, #0]
 8001d06:	6325      	str	r5, [r4, #48]	; 0x30
 8001d08:	bf58      	it	pl
 8001d0a:	f041 0140 	orrpl.w	r1, r1, #64	; 0x40
 8001d0e:	86a6      	strh	r6, [r4, #52]	; 0x34
 8001d10:	bf58      	it	pl
 8001d12:	6019      	strpl	r1, [r3, #0]
 8001d14:	68e1      	ldr	r1, [r4, #12]
 8001d16:	f5b1 6f00 	cmp.w	r1, #2048	; 0x800
 8001d1a:	d151      	bne.n	8001dc0 <HAL_SPI_TransmitReceive+0x13a>
 8001d1c:	b10a      	cbz	r2, 8001d22 <HAL_SPI_TransmitReceive+0x9c>
 8001d1e:	2e01      	cmp	r6, #1
 8001d20:	d107      	bne.n	8001d32 <HAL_SPI_TransmitReceive+0xac>
 8001d22:	f835 2b02 	ldrh.w	r2, [r5], #2
 8001d26:	60da      	str	r2, [r3, #12]
 8001d28:	8ee3      	ldrh	r3, [r4, #54]	; 0x36
 8001d2a:	6325      	str	r5, [r4, #48]	; 0x30
 8001d2c:	3b01      	subs	r3, #1
 8001d2e:	b29b      	uxth	r3, r3
 8001d30:	86e3      	strh	r3, [r4, #54]	; 0x36
 8001d32:	2501      	movs	r5, #1
 8001d34:	8ee3      	ldrh	r3, [r4, #54]	; 0x36
 8001d36:	b29b      	uxth	r3, r3
 8001d38:	b96b      	cbnz	r3, 8001d56 <HAL_SPI_TransmitReceive+0xd0>
 8001d3a:	8fe3      	ldrh	r3, [r4, #62]	; 0x3e
 8001d3c:	b29b      	uxth	r3, r3
 8001d3e:	b953      	cbnz	r3, 8001d56 <HAL_SPI_TransmitReceive+0xd0>
 8001d40:	463a      	mov	r2, r7
 8001d42:	4641      	mov	r1, r8
 8001d44:	4620      	mov	r0, r4
 8001d46:	f7ff fe69 	bl	8001a1c <SPI_EndRxTxTransaction>
 8001d4a:	2800      	cmp	r0, #0
 8001d4c:	d07b      	beq.n	8001e46 <HAL_SPI_TransmitReceive+0x1c0>
 8001d4e:	2320      	movs	r3, #32
 8001d50:	6563      	str	r3, [r4, #84]	; 0x54
 8001d52:	2001      	movs	r0, #1
 8001d54:	e02b      	b.n	8001dae <HAL_SPI_TransmitReceive+0x128>
 8001d56:	6821      	ldr	r1, [r4, #0]
 8001d58:	688b      	ldr	r3, [r1, #8]
 8001d5a:	079a      	lsls	r2, r3, #30
 8001d5c:	d50d      	bpl.n	8001d7a <HAL_SPI_TransmitReceive+0xf4>
 8001d5e:	8ee3      	ldrh	r3, [r4, #54]	; 0x36
 8001d60:	b29b      	uxth	r3, r3
 8001d62:	b153      	cbz	r3, 8001d7a <HAL_SPI_TransmitReceive+0xf4>
 8001d64:	b14d      	cbz	r5, 8001d7a <HAL_SPI_TransmitReceive+0xf4>
 8001d66:	6b23      	ldr	r3, [r4, #48]	; 0x30
 8001d68:	f833 2b02 	ldrh.w	r2, [r3], #2
 8001d6c:	60ca      	str	r2, [r1, #12]
 8001d6e:	6323      	str	r3, [r4, #48]	; 0x30
 8001d70:	8ee3      	ldrh	r3, [r4, #54]	; 0x36
 8001d72:	3b01      	subs	r3, #1
 8001d74:	b29b      	uxth	r3, r3
 8001d76:	86e3      	strh	r3, [r4, #54]	; 0x36
 8001d78:	2500      	movs	r5, #0
 8001d7a:	688a      	ldr	r2, [r1, #8]
 8001d7c:	f012 0201 	ands.w	r2, r2, #1
 8001d80:	d00c      	beq.n	8001d9c <HAL_SPI_TransmitReceive+0x116>
 8001d82:	8fe3      	ldrh	r3, [r4, #62]	; 0x3e
 8001d84:	b29b      	uxth	r3, r3
 8001d86:	b14b      	cbz	r3, 8001d9c <HAL_SPI_TransmitReceive+0x116>
 8001d88:	6ba3      	ldr	r3, [r4, #56]	; 0x38
 8001d8a:	68c9      	ldr	r1, [r1, #12]
 8001d8c:	f823 1b02 	strh.w	r1, [r3], #2
 8001d90:	63a3      	str	r3, [r4, #56]	; 0x38
 8001d92:	8fe3      	ldrh	r3, [r4, #62]	; 0x3e
 8001d94:	3b01      	subs	r3, #1
 8001d96:	b29b      	uxth	r3, r3
 8001d98:	87e3      	strh	r3, [r4, #62]	; 0x3e
 8001d9a:	4615      	mov	r5, r2
 8001d9c:	f7ff f978 	bl	8001090 <HAL_GetTick>
 8001da0:	1bc0      	subs	r0, r0, r7
 8001da2:	4540      	cmp	r0, r8
 8001da4:	d3c6      	bcc.n	8001d34 <HAL_SPI_TransmitReceive+0xae>
 8001da6:	f1b8 3fff 	cmp.w	r8, #4294967295
 8001daa:	d0c3      	beq.n	8001d34 <HAL_SPI_TransmitReceive+0xae>
 8001dac:	2003      	movs	r0, #3
 8001dae:	2301      	movs	r3, #1
 8001db0:	f884 3051 	strb.w	r3, [r4, #81]	; 0x51
 8001db4:	2300      	movs	r3, #0
 8001db6:	f884 3050 	strb.w	r3, [r4, #80]	; 0x50
 8001dba:	b003      	add	sp, #12
 8001dbc:	e8bd 83f0 	ldmia.w	sp!, {r4, r5, r6, r7, r8, r9, pc}
 8001dc0:	b10a      	cbz	r2, 8001dc6 <HAL_SPI_TransmitReceive+0x140>
 8001dc2:	2e01      	cmp	r6, #1
 8001dc4:	d108      	bne.n	8001dd8 <HAL_SPI_TransmitReceive+0x152>
 8001dc6:	782a      	ldrb	r2, [r5, #0]
 8001dc8:	731a      	strb	r2, [r3, #12]
 8001dca:	6b23      	ldr	r3, [r4, #48]	; 0x30
 8001dcc:	3301      	adds	r3, #1
 8001dce:	6323      	str	r3, [r4, #48]	; 0x30
 8001dd0:	8ee3      	ldrh	r3, [r4, #54]	; 0x36
 8001dd2:	3b01      	subs	r3, #1
 8001dd4:	b29b      	uxth	r3, r3
 8001dd6:	86e3      	strh	r3, [r4, #54]	; 0x36
 8001dd8:	2501      	movs	r5, #1
 8001dda:	8ee3      	ldrh	r3, [r4, #54]	; 0x36
 8001ddc:	b29b      	uxth	r3, r3
 8001dde:	b91b      	cbnz	r3, 8001de8 <HAL_SPI_TransmitReceive+0x162>
 8001de0:	8fe3      	ldrh	r3, [r4, #62]	; 0x3e
 8001de2:	b29b      	uxth	r3, r3
 8001de4:	2b00      	cmp	r3, #0
 8001de6:	d0ab      	beq.n	8001d40 <HAL_SPI_TransmitReceive+0xba>
 8001de8:	6822      	ldr	r2, [r4, #0]
 8001dea:	6893      	ldr	r3, [r2, #8]
 8001dec:	079b      	lsls	r3, r3, #30
 8001dee:	d50e      	bpl.n	8001e0e <HAL_SPI_TransmitReceive+0x188>
 8001df0:	8ee3      	ldrh	r3, [r4, #54]	; 0x36
 8001df2:	b29b      	uxth	r3, r3
 8001df4:	b15b      	cbz	r3, 8001e0e <HAL_SPI_TransmitReceive+0x188>
 8001df6:	b155      	cbz	r5, 8001e0e <HAL_SPI_TransmitReceive+0x188>
 8001df8:	6b23      	ldr	r3, [r4, #48]	; 0x30
 8001dfa:	781b      	ldrb	r3, [r3, #0]
 8001dfc:	7313      	strb	r3, [r2, #12]
 8001dfe:	6b23      	ldr	r3, [r4, #48]	; 0x30
 8001e00:	3301      	adds	r3, #1
 8001e02:	6323      	str	r3, [r4, #48]	; 0x30
 8001e04:	8ee3      	ldrh	r3, [r4, #54]	; 0x36
 8001e06:	3b01      	subs	r3, #1
 8001e08:	b29b      	uxth	r3, r3
 8001e0a:	86e3      	strh	r3, [r4, #54]	; 0x36
 8001e0c:	2500      	movs	r5, #0
 8001e0e:	6822      	ldr	r2, [r4, #0]
 8001e10:	6891      	ldr	r1, [r2, #8]
 8001e12:	f011 0101 	ands.w	r1, r1, #1
 8001e16:	d00d      	beq.n	8001e34 <HAL_SPI_TransmitReceive+0x1ae>
 8001e18:	8fe3      	ldrh	r3, [r4, #62]	; 0x3e
 8001e1a:	b29b      	uxth	r3, r3
 8001e1c:	b153      	cbz	r3, 8001e34 <HAL_SPI_TransmitReceive+0x1ae>
 8001e1e:	6ba3      	ldr	r3, [r4, #56]	; 0x38
 8001e20:	68d2      	ldr	r2, [r2, #12]
 8001e22:	701a      	strb	r2, [r3, #0]
 8001e24:	6ba3      	ldr	r3, [r4, #56]	; 0x38
 8001e26:	3301      	adds	r3, #1
 8001e28:	63a3      	str	r3, [r4, #56]	; 0x38
 8001e2a:	8fe3      	ldrh	r3, [r4, #62]	; 0x3e
 8001e2c:	3b01      	subs	r3, #1
 8001e2e:	b29b      	uxth	r3, r3
 8001e30:	87e3      	strh	r3, [r4, #62]	; 0x3e
 8001e32:	460d      	mov	r5, r1
 8001e34:	f7ff f92c 	bl	8001090 <HAL_GetTick>
 8001e38:	1bc0      	subs	r0, r0, r7
 8001e3a:	4540      	cmp	r0, r8
 8001e3c:	d3cd      	bcc.n	8001dda <HAL_SPI_TransmitReceive+0x154>
 8001e3e:	f1b8 3fff 	cmp.w	r8, #4294967295
 8001e42:	d0ca      	beq.n	8001dda <HAL_SPI_TransmitReceive+0x154>
 8001e44:	e7b2      	b.n	8001dac <HAL_SPI_TransmitReceive+0x126>
 8001e46:	68a3      	ldr	r3, [r4, #8]
 8001e48:	2b00      	cmp	r3, #0
 8001e4a:	d1b0      	bne.n	8001dae <HAL_SPI_TransmitReceive+0x128>
 8001e4c:	6823      	ldr	r3, [r4, #0]
 8001e4e:	9001      	str	r0, [sp, #4]
 8001e50:	68da      	ldr	r2, [r3, #12]
 8001e52:	9201      	str	r2, [sp, #4]
 8001e54:	689b      	ldr	r3, [r3, #8]
 8001e56:	9301      	str	r3, [sp, #4]
 8001e58:	9b01      	ldr	r3, [sp, #4]
 8001e5a:	e7a8      	b.n	8001dae <HAL_SPI_TransmitReceive+0x128>
 8001e5c:	2002      	movs	r0, #2
 8001e5e:	e7a6      	b.n	8001dae <HAL_SPI_TransmitReceive+0x128>
 8001e60:	2002      	movs	r0, #2
 8001e62:	e7aa      	b.n	8001dba <HAL_SPI_TransmitReceive+0x134>

08001e64 <HAL_SPI_Receive>:
 8001e64:	e92d 41f3 	stmdb	sp!, {r0, r1, r4, r5, r6, r7, r8, lr}
 8001e68:	461d      	mov	r5, r3
 8001e6a:	6843      	ldr	r3, [r0, #4]
 8001e6c:	f5b3 7f82 	cmp.w	r3, #260	; 0x104
 8001e70:	4604      	mov	r4, r0
 8001e72:	4688      	mov	r8, r1
 8001e74:	4616      	mov	r6, r2
 8001e76:	d10c      	bne.n	8001e92 <HAL_SPI_Receive+0x2e>
 8001e78:	6883      	ldr	r3, [r0, #8]
 8001e7a:	b953      	cbnz	r3, 8001e92 <HAL_SPI_Receive+0x2e>
 8001e7c:	2304      	movs	r3, #4
 8001e7e:	f880 3051 	strb.w	r3, [r0, #81]	; 0x51
 8001e82:	4613      	mov	r3, r2
 8001e84:	9500      	str	r5, [sp, #0]
 8001e86:	460a      	mov	r2, r1
 8001e88:	f7ff fefd 	bl	8001c86 <HAL_SPI_TransmitReceive>
 8001e8c:	b002      	add	sp, #8
 8001e8e:	e8bd 81f0 	ldmia.w	sp!, {r4, r5, r6, r7, r8, pc}
 8001e92:	f894 3050 	ldrb.w	r3, [r4, #80]	; 0x50
 8001e96:	2b01      	cmp	r3, #1
 8001e98:	d07e      	beq.n	8001f98 <HAL_SPI_Receive+0x134>
 8001e9a:	2301      	movs	r3, #1
 8001e9c:	f884 3050 	strb.w	r3, [r4, #80]	; 0x50
 8001ea0:	f7ff f8f6 	bl	8001090 <HAL_GetTick>
 8001ea4:	f894 3051 	ldrb.w	r3, [r4, #81]	; 0x51
 8001ea8:	2b01      	cmp	r3, #1
 8001eaa:	4607      	mov	r7, r0
 8001eac:	b2d8      	uxtb	r0, r3
 8001eae:	d171      	bne.n	8001f94 <HAL_SPI_Receive+0x130>
 8001eb0:	f1b8 0f00 	cmp.w	r8, #0
 8001eb4:	d05c      	beq.n	8001f70 <HAL_SPI_Receive+0x10c>
 8001eb6:	2e00      	cmp	r6, #0
 8001eb8:	d05a      	beq.n	8001f70 <HAL_SPI_Receive+0x10c>
 8001eba:	68a2      	ldr	r2, [r4, #8]
 8001ebc:	f8c4 8038 	str.w	r8, [r4, #56]	; 0x38
 8001ec0:	2304      	movs	r3, #4
 8001ec2:	f884 3051 	strb.w	r3, [r4, #81]	; 0x51
 8001ec6:	f5b2 4f00 	cmp.w	r2, #32768	; 0x8000
 8001eca:	f04f 0300 	mov.w	r3, #0
 8001ece:	6563      	str	r3, [r4, #84]	; 0x54
 8001ed0:	e9c4 3310 	strd	r3, r3, [r4, #64]	; 0x40
 8001ed4:	87e6      	strh	r6, [r4, #62]	; 0x3e
 8001ed6:	6323      	str	r3, [r4, #48]	; 0x30
 8001ed8:	86a3      	strh	r3, [r4, #52]	; 0x34
 8001eda:	86e3      	strh	r3, [r4, #54]	; 0x36
 8001edc:	87a6      	strh	r6, [r4, #60]	; 0x3c
 8001ede:	6823      	ldr	r3, [r4, #0]
 8001ee0:	d107      	bne.n	8001ef2 <HAL_SPI_Receive+0x8e>
 8001ee2:	681a      	ldr	r2, [r3, #0]
 8001ee4:	f022 0240 	bic.w	r2, r2, #64	; 0x40
 8001ee8:	601a      	str	r2, [r3, #0]
 8001eea:	681a      	ldr	r2, [r3, #0]
 8001eec:	f422 4280 	bic.w	r2, r2, #16384	; 0x4000
 8001ef0:	601a      	str	r2, [r3, #0]
 8001ef2:	681a      	ldr	r2, [r3, #0]
 8001ef4:	0656      	lsls	r6, r2, #25
 8001ef6:	bf5e      	ittt	pl
 8001ef8:	681a      	ldrpl	r2, [r3, #0]
 8001efa:	f042 0240 	orrpl.w	r2, r2, #64	; 0x40
 8001efe:	601a      	strpl	r2, [r3, #0]
 8001f00:	68e3      	ldr	r3, [r4, #12]
 8001f02:	b1f3      	cbz	r3, 8001f42 <HAL_SPI_Receive+0xde>
 8001f04:	8fe3      	ldrh	r3, [r4, #62]	; 0x3e
 8001f06:	b29b      	uxth	r3, r3
 8001f08:	b1fb      	cbz	r3, 8001f4a <HAL_SPI_Receive+0xe6>
 8001f0a:	6823      	ldr	r3, [r4, #0]
 8001f0c:	689a      	ldr	r2, [r3, #8]
 8001f0e:	07d2      	lsls	r2, r2, #31
 8001f10:	d535      	bpl.n	8001f7e <HAL_SPI_Receive+0x11a>
 8001f12:	68da      	ldr	r2, [r3, #12]
 8001f14:	6ba3      	ldr	r3, [r4, #56]	; 0x38
 8001f16:	f823 2b02 	strh.w	r2, [r3], #2
 8001f1a:	63a3      	str	r3, [r4, #56]	; 0x38
 8001f1c:	8fe3      	ldrh	r3, [r4, #62]	; 0x3e
 8001f1e:	3b01      	subs	r3, #1
 8001f20:	b29b      	uxth	r3, r3
 8001f22:	87e3      	strh	r3, [r4, #62]	; 0x3e
 8001f24:	e7ee      	b.n	8001f04 <HAL_SPI_Receive+0xa0>
 8001f26:	6823      	ldr	r3, [r4, #0]
 8001f28:	689a      	ldr	r2, [r3, #8]
 8001f2a:	07d0      	lsls	r0, r2, #31
 8001f2c:	d518      	bpl.n	8001f60 <HAL_SPI_Receive+0xfc>
 8001f2e:	6ba2      	ldr	r2, [r4, #56]	; 0x38
 8001f30:	7b1b      	ldrb	r3, [r3, #12]
 8001f32:	7013      	strb	r3, [r2, #0]
 8001f34:	6ba3      	ldr	r3, [r4, #56]	; 0x38
 8001f36:	3301      	adds	r3, #1
 8001f38:	63a3      	str	r3, [r4, #56]	; 0x38
 8001f3a:	8fe3      	ldrh	r3, [r4, #62]	; 0x3e
 8001f3c:	3b01      	subs	r3, #1
 8001f3e:	b29b      	uxth	r3, r3
 8001f40:	87e3      	strh	r3, [r4, #62]	; 0x3e
 8001f42:	8fe3      	ldrh	r3, [r4, #62]	; 0x3e
 8001f44:	b29b      	uxth	r3, r3
 8001f46:	2b00      	cmp	r3, #0
 8001f48:	d1ed      	bne.n	8001f26 <HAL_SPI_Receive+0xc2>
 8001f4a:	463a      	mov	r2, r7
 8001f4c:	4629      	mov	r1, r5
 8001f4e:	4620      	mov	r0, r4
 8001f50:	f7ff fd3a 	bl	80019c8 <SPI_EndRxTransaction>
 8001f54:	b9d8      	cbnz	r0, 8001f8e <HAL_SPI_Receive+0x12a>
 8001f56:	6d60      	ldr	r0, [r4, #84]	; 0x54
 8001f58:	3800      	subs	r0, #0
 8001f5a:	bf18      	it	ne
 8001f5c:	2001      	movne	r0, #1
 8001f5e:	e007      	b.n	8001f70 <HAL_SPI_Receive+0x10c>
 8001f60:	f7ff f896 	bl	8001090 <HAL_GetTick>
 8001f64:	1bc0      	subs	r0, r0, r7
 8001f66:	42a8      	cmp	r0, r5
 8001f68:	d3eb      	bcc.n	8001f42 <HAL_SPI_Receive+0xde>
 8001f6a:	1c69      	adds	r1, r5, #1
 8001f6c:	d0e9      	beq.n	8001f42 <HAL_SPI_Receive+0xde>
 8001f6e:	2003      	movs	r0, #3
 8001f70:	2301      	movs	r3, #1
 8001f72:	f884 3051 	strb.w	r3, [r4, #81]	; 0x51
 8001f76:	2300      	movs	r3, #0
 8001f78:	f884 3050 	strb.w	r3, [r4, #80]	; 0x50
 8001f7c:	e786      	b.n	8001e8c <HAL_SPI_Receive+0x28>
 8001f7e:	f7ff f887 	bl	8001090 <HAL_GetTick>
 8001f82:	1bc0      	subs	r0, r0, r7
 8001f84:	42a8      	cmp	r0, r5
 8001f86:	d3bd      	bcc.n	8001f04 <HAL_SPI_Receive+0xa0>
 8001f88:	1c6b      	adds	r3, r5, #1
 8001f8a:	d0bb      	beq.n	8001f04 <HAL_SPI_Receive+0xa0>
 8001f8c:	e7ef      	b.n	8001f6e <HAL_SPI_Receive+0x10a>
 8001f8e:	2320      	movs	r3, #32
 8001f90:	6563      	str	r3, [r4, #84]	; 0x54
 8001f92:	e7e0      	b.n	8001f56 <HAL_SPI_Receive+0xf2>
 8001f94:	2002      	movs	r0, #2
 8001f96:	e7eb      	b.n	8001f70 <HAL_SPI_Receive+0x10c>
 8001f98:	2002      	movs	r0, #2
 8001f9a:	e777      	b.n	8001e8c <HAL_SPI_Receive+0x28>

08001f9c <TIM_OC1_SetConfig>:
 8001f9c:	6a03      	ldr	r3, [r0, #32]
 8001f9e:	f023 0301 	bic.w	r3, r3, #1
 8001fa2:	6203      	str	r3, [r0, #32]
 8001fa4:	6a03      	ldr	r3, [r0, #32]
 8001fa6:	b570      	push	{r4, r5, r6, lr}
 8001fa8:	6844      	ldr	r4, [r0, #4]
 8001faa:	6982      	ldr	r2, [r0, #24]
 8001fac:	680d      	ldr	r5, [r1, #0]
 8001fae:	f022 0273 	bic.w	r2, r2, #115	; 0x73
 8001fb2:	432a      	orrs	r2, r5
 8001fb4:	688d      	ldr	r5, [r1, #8]
 8001fb6:	f023 0302 	bic.w	r3, r3, #2
 8001fba:	432b      	orrs	r3, r5
 8001fbc:	4d0a      	ldr	r5, [pc, #40]	; (8001fe8 <TIM_OC1_SetConfig+0x4c>)
 8001fbe:	42a8      	cmp	r0, r5
 8001fc0:	d10b      	bne.n	8001fda <TIM_OC1_SetConfig+0x3e>
 8001fc2:	68cd      	ldr	r5, [r1, #12]
 8001fc4:	f023 0308 	bic.w	r3, r3, #8
 8001fc8:	432b      	orrs	r3, r5
 8001fca:	e9d1 5605 	ldrd	r5, r6, [r1, #20]
 8001fce:	f424 7440 	bic.w	r4, r4, #768	; 0x300
 8001fd2:	4335      	orrs	r5, r6
 8001fd4:	f023 0304 	bic.w	r3, r3, #4
 8001fd8:	432c      	orrs	r4, r5
 8001fda:	6044      	str	r4, [r0, #4]
 8001fdc:	6182      	str	r2, [r0, #24]
 8001fde:	684a      	ldr	r2, [r1, #4]
 8001fe0:	6342      	str	r2, [r0, #52]	; 0x34
 8001fe2:	6203      	str	r3, [r0, #32]
 8001fe4:	bd70      	pop	{r4, r5, r6, pc}
 8001fe6:	bf00      	nop
 8001fe8:	40010000 	.word	0x40010000

08001fec <TIM_OC3_SetConfig>:
 8001fec:	6a03      	ldr	r3, [r0, #32]
 8001fee:	f423 7380 	bic.w	r3, r3, #256	; 0x100
 8001ff2:	6203      	str	r3, [r0, #32]
 8001ff4:	6a03      	ldr	r3, [r0, #32]
 8001ff6:	b570      	push	{r4, r5, r6, lr}
 8001ff8:	6844      	ldr	r4, [r0, #4]
 8001ffa:	69c2      	ldr	r2, [r0, #28]
 8001ffc:	680d      	ldr	r5, [r1, #0]
 8001ffe:	f022 0273 	bic.w	r2, r2, #115	; 0x73
 8002002:	432a      	orrs	r2, r5
 8002004:	688d      	ldr	r5, [r1, #8]
 8002006:	f423 7300 	bic.w	r3, r3, #512	; 0x200
 800200a:	ea43 2305 	orr.w	r3, r3, r5, lsl #8
 800200e:	4d0b      	ldr	r5, [pc, #44]	; (800203c <TIM_OC3_SetConfig+0x50>)
 8002010:	42a8      	cmp	r0, r5
 8002012:	d10d      	bne.n	8002030 <TIM_OC3_SetConfig+0x44>
 8002014:	68cd      	ldr	r5, [r1, #12]
 8002016:	f423 6300 	bic.w	r3, r3, #2048	; 0x800
 800201a:	ea43 2305 	orr.w	r3, r3, r5, lsl #8
 800201e:	e9d1 5605 	ldrd	r5, r6, [r1, #20]
 8002022:	f424 5440 	bic.w	r4, r4, #12288	; 0x3000
 8002026:	4335      	orrs	r5, r6
 8002028:	f423 6380 	bic.w	r3, r3, #1024	; 0x400
 800202c:	ea44 1405 	orr.w	r4, r4, r5, lsl #4
 8002030:	6044      	str	r4, [r0, #4]
 8002032:	61c2      	str	r2, [r0, #28]
 8002034:	684a      	ldr	r2, [r1, #4]
 8002036:	63c2      	str	r2, [r0, #60]	; 0x3c
 8002038:	6203      	str	r3, [r0, #32]
 800203a:	bd70      	pop	{r4, r5, r6, pc}
 800203c:	40010000 	.word	0x40010000

08002040 <TIM_OC4_SetConfig>:
 8002040:	6a03      	ldr	r3, [r0, #32]
 8002042:	f423 5380 	bic.w	r3, r3, #4096	; 0x1000
 8002046:	6203      	str	r3, [r0, #32]
 8002048:	6a03      	ldr	r3, [r0, #32]
 800204a:	b530      	push	{r4, r5, lr}
 800204c:	6844      	ldr	r4, [r0, #4]
 800204e:	69c2      	ldr	r2, [r0, #28]
 8002050:	680d      	ldr	r5, [r1, #0]
 8002052:	f422 42e6 	bic.w	r2, r2, #29440	; 0x7300
 8002056:	ea42 2205 	orr.w	r2, r2, r5, lsl #8
 800205a:	688d      	ldr	r5, [r1, #8]
 800205c:	f423 5300 	bic.w	r3, r3, #8192	; 0x2000
 8002060:	ea43 3305 	orr.w	r3, r3, r5, lsl #12
 8002064:	4d06      	ldr	r5, [pc, #24]	; (8002080 <TIM_OC4_SetConfig+0x40>)
 8002066:	42a8      	cmp	r0, r5
 8002068:	bf02      	ittt	eq
 800206a:	694d      	ldreq	r5, [r1, #20]
 800206c:	f424 4480 	biceq.w	r4, r4, #16384	; 0x4000
 8002070:	ea44 1485 	orreq.w	r4, r4, r5, lsl #6
 8002074:	6044      	str	r4, [r0, #4]
 8002076:	61c2      	str	r2, [r0, #28]
 8002078:	684a      	ldr	r2, [r1, #4]
 800207a:	6402      	str	r2, [r0, #64]	; 0x40
 800207c:	6203      	str	r3, [r0, #32]
 800207e:	bd30      	pop	{r4, r5, pc}
 8002080:	40010000 	.word	0x40010000

08002084 <TIM_Base_SetConfig>:
 8002084:	4a24      	ldr	r2, [pc, #144]	; (8002118 <TIM_Base_SetConfig+0x94>)
 8002086:	6803      	ldr	r3, [r0, #0]
 8002088:	4290      	cmp	r0, r2
 800208a:	d00e      	beq.n	80020aa <TIM_Base_SetConfig+0x26>
 800208c:	f1b0 4f80 	cmp.w	r0, #1073741824	; 0x40000000
 8002090:	d00b      	beq.n	80020aa <TIM_Base_SetConfig+0x26>
 8002092:	f5a2 427c 	sub.w	r2, r2, #64512	; 0xfc00
 8002096:	4290      	cmp	r0, r2
 8002098:	d007      	beq.n	80020aa <TIM_Base_SetConfig+0x26>
 800209a:	f502 6280 	add.w	r2, r2, #1024	; 0x400
 800209e:	4290      	cmp	r0, r2
 80020a0:	d003      	beq.n	80020aa <TIM_Base_SetConfig+0x26>
 80020a2:	f502 6280 	add.w	r2, r2, #1024	; 0x400
 80020a6:	4290      	cmp	r0, r2
 80020a8:	d115      	bne.n	80020d6 <TIM_Base_SetConfig+0x52>
 80020aa:	684a      	ldr	r2, [r1, #4]
 80020ac:	f023 0370 	bic.w	r3, r3, #112	; 0x70
 80020b0:	4313      	orrs	r3, r2
 80020b2:	4a19      	ldr	r2, [pc, #100]	; (8002118 <TIM_Base_SetConfig+0x94>)
 80020b4:	4290      	cmp	r0, r2
 80020b6:	d019      	beq.n	80020ec <TIM_Base_SetConfig+0x68>
 80020b8:	f1b0 4f80 	cmp.w	r0, #1073741824	; 0x40000000
 80020bc:	d016      	beq.n	80020ec <TIM_Base_SetConfig+0x68>
 80020be:	f5a2 427c 	sub.w	r2, r2, #64512	; 0xfc00
 80020c2:	4290      	cmp	r0, r2
 80020c4:	d012      	beq.n	80020ec <TIM_Base_SetConfig+0x68>
 80020c6:	f502 6280 	add.w	r2, r2, #1024	; 0x400
 80020ca:	4290      	cmp	r0, r2
 80020cc:	d00e      	beq.n	80020ec <TIM_Base_SetConfig+0x68>
 80020ce:	f502 6280 	add.w	r2, r2, #1024	; 0x400
 80020d2:	4290      	cmp	r0, r2
 80020d4:	d00a      	beq.n	80020ec <TIM_Base_SetConfig+0x68>
 80020d6:	4a11      	ldr	r2, [pc, #68]	; (800211c <TIM_Base_SetConfig+0x98>)
 80020d8:	4290      	cmp	r0, r2
 80020da:	d007      	beq.n	80020ec <TIM_Base_SetConfig+0x68>
 80020dc:	f502 6280 	add.w	r2, r2, #1024	; 0x400
 80020e0:	4290      	cmp	r0, r2
 80020e2:	d003      	beq.n	80020ec <TIM_Base_SetConfig+0x68>
 80020e4:	f502 6280 	add.w	r2, r2, #1024	; 0x400
 80020e8:	4290      	cmp	r0, r2
 80020ea:	d103      	bne.n	80020f4 <TIM_Base_SetConfig+0x70>
 80020ec:	68ca      	ldr	r2, [r1, #12]
 80020ee:	f423 7340 	bic.w	r3, r3, #768	; 0x300
 80020f2:	4313      	orrs	r3, r2
 80020f4:	694a      	ldr	r2, [r1, #20]
 80020f6:	f023 0380 	bic.w	r3, r3, #128	; 0x80
 80020fa:	4313      	orrs	r3, r2
 80020fc:	6003      	str	r3, [r0, #0]
 80020fe:	688b      	ldr	r3, [r1, #8]
 8002100:	62c3      	str	r3, [r0, #44]	; 0x2c
 8002102:	680b      	ldr	r3, [r1, #0]
 8002104:	6283      	str	r3, [r0, #40]	; 0x28
 8002106:	4b04      	ldr	r3, [pc, #16]	; (8002118 <TIM_Base_SetConfig+0x94>)
 8002108:	4298      	cmp	r0, r3
 800210a:	bf04      	itt	eq
 800210c:	690b      	ldreq	r3, [r1, #16]
 800210e:	6303      	streq	r3, [r0, #48]	; 0x30
 8002110:	2301      	movs	r3, #1
 8002112:	6143      	str	r3, [r0, #20]
 8002114:	4770      	bx	lr
 8002116:	bf00      	nop
 8002118:	40010000 	.word	0x40010000
 800211c:	40014000 	.word	0x40014000

08002120 <HAL_TIM_PWM_Init>:
 8002120:	b510      	push	{r4, lr}
 8002122:	4604      	mov	r4, r0
 8002124:	b330      	cbz	r0, 8002174 <HAL_TIM_PWM_Init+0x54>
 8002126:	f890 303d 	ldrb.w	r3, [r0, #61]	; 0x3d
 800212a:	f003 02ff 	and.w	r2, r3, #255	; 0xff
 800212e:	b91b      	cbnz	r3, 8002138 <HAL_TIM_PWM_Init+0x18>
 8002130:	f880 203c 	strb.w	r2, [r0, #60]	; 0x3c
 8002134:	f001 f810 	bl	8003158 <HAL_TIM_PWM_MspInit>
 8002138:	2302      	movs	r3, #2
 800213a:	6820      	ldr	r0, [r4, #0]
 800213c:	f884 303d 	strb.w	r3, [r4, #61]	; 0x3d
 8002140:	1d21      	adds	r1, r4, #4
 8002142:	f7ff ff9f 	bl	8002084 <TIM_Base_SetConfig>
 8002146:	2301      	movs	r3, #1
 8002148:	f884 3046 	strb.w	r3, [r4, #70]	; 0x46
 800214c:	2000      	movs	r0, #0
 800214e:	f884 303e 	strb.w	r3, [r4, #62]	; 0x3e
 8002152:	f884 303f 	strb.w	r3, [r4, #63]	; 0x3f
 8002156:	f884 3040 	strb.w	r3, [r4, #64]	; 0x40
 800215a:	f884 3041 	strb.w	r3, [r4, #65]	; 0x41
 800215e:	f884 3042 	strb.w	r3, [r4, #66]	; 0x42
 8002162:	f884 3043 	strb.w	r3, [r4, #67]	; 0x43
 8002166:	f884 3044 	strb.w	r3, [r4, #68]	; 0x44
 800216a:	f884 3045 	strb.w	r3, [r4, #69]	; 0x45
 800216e:	f884 303d 	strb.w	r3, [r4, #61]	; 0x3d
 8002172:	bd10      	pop	{r4, pc}
 8002174:	2001      	movs	r0, #1
 8002176:	e7fc      	b.n	8002172 <HAL_TIM_PWM_Init+0x52>

08002178 <TIM_OC2_SetConfig>:
 8002178:	6a03      	ldr	r3, [r0, #32]
 800217a:	f023 0310 	bic.w	r3, r3, #16
 800217e:	6203      	str	r3, [r0, #32]
 8002180:	6a03      	ldr	r3, [r0, #32]
 8002182:	b570      	push	{r4, r5, r6, lr}
 8002184:	6844      	ldr	r4, [r0, #4]
 8002186:	6982      	ldr	r2, [r0, #24]
 8002188:	680d      	ldr	r5, [r1, #0]
 800218a:	f422 42e6 	bic.w	r2, r2, #29440	; 0x7300
 800218e:	ea42 2205 	orr.w	r2, r2, r5, lsl #8
 8002192:	688d      	ldr	r5, [r1, #8]
 8002194:	f023 0320 	bic.w	r3, r3, #32
 8002198:	ea43 1305 	orr.w	r3, r3, r5, lsl #4
 800219c:	4d0b      	ldr	r5, [pc, #44]	; (80021cc <TIM_OC2_SetConfig+0x54>)
 800219e:	42a8      	cmp	r0, r5
 80021a0:	d10d      	bne.n	80021be <TIM_OC2_SetConfig+0x46>
 80021a2:	68cd      	ldr	r5, [r1, #12]
 80021a4:	f023 0380 	bic.w	r3, r3, #128	; 0x80
 80021a8:	ea43 1305 	orr.w	r3, r3, r5, lsl #4
 80021ac:	e9d1 5605 	ldrd	r5, r6, [r1, #20]
 80021b0:	f424 6440 	bic.w	r4, r4, #3072	; 0xc00
 80021b4:	4335      	orrs	r5, r6
 80021b6:	f023 0340 	bic.w	r3, r3, #64	; 0x40
 80021ba:	ea44 0485 	orr.w	r4, r4, r5, lsl #2
 80021be:	6044      	str	r4, [r0, #4]
 80021c0:	6182      	str	r2, [r0, #24]
 80021c2:	684a      	ldr	r2, [r1, #4]
 80021c4:	6382      	str	r2, [r0, #56]	; 0x38
 80021c6:	6203      	str	r3, [r0, #32]
 80021c8:	bd70      	pop	{r4, r5, r6, pc}
 80021ca:	bf00      	nop
 80021cc:	40010000 	.word	0x40010000

080021d0 <HAL_TIM_PWM_ConfigChannel>:
 80021d0:	b570      	push	{r4, r5, r6, lr}
 80021d2:	f890 303c 	ldrb.w	r3, [r0, #60]	; 0x3c
 80021d6:	2b01      	cmp	r3, #1
 80021d8:	4605      	mov	r5, r0
 80021da:	4614      	mov	r4, r2
 80021dc:	d054      	beq.n	8002288 <HAL_TIM_PWM_ConfigChannel+0xb8>
 80021de:	2201      	movs	r2, #1
 80021e0:	2c08      	cmp	r4, #8
 80021e2:	f880 203c 	strb.w	r2, [r0, #60]	; 0x3c
 80021e6:	d03e      	beq.n	8002266 <HAL_TIM_PWM_ConfigChannel+0x96>
 80021e8:	d807      	bhi.n	80021fa <HAL_TIM_PWM_ConfigChannel+0x2a>
 80021ea:	b1cc      	cbz	r4, 8002220 <HAL_TIM_PWM_ConfigChannel+0x50>
 80021ec:	2c04      	cmp	r4, #4
 80021ee:	d029      	beq.n	8002244 <HAL_TIM_PWM_ConfigChannel+0x74>
 80021f0:	2300      	movs	r3, #0
 80021f2:	f885 303c 	strb.w	r3, [r5, #60]	; 0x3c
 80021f6:	4610      	mov	r0, r2
 80021f8:	bd70      	pop	{r4, r5, r6, pc}
 80021fa:	2c0c      	cmp	r4, #12
 80021fc:	d1f8      	bne.n	80021f0 <HAL_TIM_PWM_ConfigChannel+0x20>
 80021fe:	6800      	ldr	r0, [r0, #0]
 8002200:	f7ff ff1e 	bl	8002040 <TIM_OC4_SetConfig>
 8002204:	682b      	ldr	r3, [r5, #0]
 8002206:	6909      	ldr	r1, [r1, #16]
 8002208:	69da      	ldr	r2, [r3, #28]
 800220a:	f442 6200 	orr.w	r2, r2, #2048	; 0x800
 800220e:	61da      	str	r2, [r3, #28]
 8002210:	69da      	ldr	r2, [r3, #28]
 8002212:	f422 6280 	bic.w	r2, r2, #1024	; 0x400
 8002216:	61da      	str	r2, [r3, #28]
 8002218:	69da      	ldr	r2, [r3, #28]
 800221a:	ea42 2201 	orr.w	r2, r2, r1, lsl #8
 800221e:	e031      	b.n	8002284 <HAL_TIM_PWM_ConfigChannel+0xb4>
 8002220:	6800      	ldr	r0, [r0, #0]
 8002222:	f7ff febb 	bl	8001f9c <TIM_OC1_SetConfig>
 8002226:	682b      	ldr	r3, [r5, #0]
 8002228:	6909      	ldr	r1, [r1, #16]
 800222a:	699a      	ldr	r2, [r3, #24]
 800222c:	f042 0208 	orr.w	r2, r2, #8
 8002230:	619a      	str	r2, [r3, #24]
 8002232:	699a      	ldr	r2, [r3, #24]
 8002234:	f022 0204 	bic.w	r2, r2, #4
 8002238:	619a      	str	r2, [r3, #24]
 800223a:	699a      	ldr	r2, [r3, #24]
 800223c:	430a      	orrs	r2, r1
 800223e:	619a      	str	r2, [r3, #24]
 8002240:	2200      	movs	r2, #0
 8002242:	e7d5      	b.n	80021f0 <HAL_TIM_PWM_ConfigChannel+0x20>
 8002244:	6800      	ldr	r0, [r0, #0]
 8002246:	f7ff ff97 	bl	8002178 <TIM_OC2_SetConfig>
 800224a:	682b      	ldr	r3, [r5, #0]
 800224c:	6909      	ldr	r1, [r1, #16]
 800224e:	699a      	ldr	r2, [r3, #24]
 8002250:	f442 6200 	orr.w	r2, r2, #2048	; 0x800
 8002254:	619a      	str	r2, [r3, #24]
 8002256:	699a      	ldr	r2, [r3, #24]
 8002258:	f422 6280 	bic.w	r2, r2, #1024	; 0x400
 800225c:	619a      	str	r2, [r3, #24]
 800225e:	699a      	ldr	r2, [r3, #24]
 8002260:	ea42 2201 	orr.w	r2, r2, r1, lsl #8
 8002264:	e7eb      	b.n	800223e <HAL_TIM_PWM_ConfigChannel+0x6e>
 8002266:	6800      	ldr	r0, [r0, #0]
 8002268:	f7ff fec0 	bl	8001fec <TIM_OC3_SetConfig>
 800226c:	682b      	ldr	r3, [r5, #0]
 800226e:	6909      	ldr	r1, [r1, #16]
 8002270:	69da      	ldr	r2, [r3, #28]
 8002272:	f042 0208 	orr.w	r2, r2, #8
 8002276:	61da      	str	r2, [r3, #28]
 8002278:	69da      	ldr	r2, [r3, #28]
 800227a:	f022 0204 	bic.w	r2, r2, #4
 800227e:	61da      	str	r2, [r3, #28]
 8002280:	69da      	ldr	r2, [r3, #28]
 8002282:	430a      	orrs	r2, r1
 8002284:	61da      	str	r2, [r3, #28]
 8002286:	e7db      	b.n	8002240 <HAL_TIM_PWM_ConfigChannel+0x70>
 8002288:	2202      	movs	r2, #2
 800228a:	e7b4      	b.n	80021f6 <HAL_TIM_PWM_ConfigChannel+0x26>

0800228c <TIM_CCxChannelCmd>:
 800228c:	6a03      	ldr	r3, [r0, #32]
 800228e:	f001 011f 	and.w	r1, r1, #31
 8002292:	b510      	push	{r4, lr}
 8002294:	2401      	movs	r4, #1
 8002296:	408c      	lsls	r4, r1
 8002298:	ea23 0304 	bic.w	r3, r3, r4
 800229c:	6203      	str	r3, [r0, #32]
 800229e:	6a03      	ldr	r3, [r0, #32]
 80022a0:	408a      	lsls	r2, r1
 80022a2:	431a      	orrs	r2, r3
 80022a4:	6202      	str	r2, [r0, #32]
 80022a6:	bd10      	pop	{r4, pc}

080022a8 <HAL_TIM_OC_Start>:
 80022a8:	b510      	push	{r4, lr}
 80022aa:	4604      	mov	r4, r0
 80022ac:	b929      	cbnz	r1, 80022ba <HAL_TIM_OC_Start+0x12>
 80022ae:	f890 303e 	ldrb.w	r3, [r0, #62]	; 0x3e
 80022b2:	2b01      	cmp	r3, #1
 80022b4:	d01d      	beq.n	80022f2 <HAL_TIM_OC_Start+0x4a>
 80022b6:	2001      	movs	r0, #1
 80022b8:	bd10      	pop	{r4, pc}
 80022ba:	2904      	cmp	r1, #4
 80022bc:	d107      	bne.n	80022ce <HAL_TIM_OC_Start+0x26>
 80022be:	f890 303f 	ldrb.w	r3, [r0, #63]	; 0x3f
 80022c2:	2b01      	cmp	r3, #1
 80022c4:	d1f7      	bne.n	80022b6 <HAL_TIM_OC_Start+0xe>
 80022c6:	2302      	movs	r3, #2
 80022c8:	f880 303f 	strb.w	r3, [r0, #63]	; 0x3f
 80022cc:	e014      	b.n	80022f8 <HAL_TIM_OC_Start+0x50>
 80022ce:	2908      	cmp	r1, #8
 80022d0:	d107      	bne.n	80022e2 <HAL_TIM_OC_Start+0x3a>
 80022d2:	f890 3040 	ldrb.w	r3, [r0, #64]	; 0x40
 80022d6:	2b01      	cmp	r3, #1
 80022d8:	d1ed      	bne.n	80022b6 <HAL_TIM_OC_Start+0xe>
 80022da:	2302      	movs	r3, #2
 80022dc:	f880 3040 	strb.w	r3, [r0, #64]	; 0x40
 80022e0:	e00a      	b.n	80022f8 <HAL_TIM_OC_Start+0x50>
 80022e2:	f890 3041 	ldrb.w	r3, [r0, #65]	; 0x41
 80022e6:	2b01      	cmp	r3, #1
 80022e8:	d1e5      	bne.n	80022b6 <HAL_TIM_OC_Start+0xe>
 80022ea:	2302      	movs	r3, #2
 80022ec:	f880 3041 	strb.w	r3, [r0, #65]	; 0x41
 80022f0:	e002      	b.n	80022f8 <HAL_TIM_OC_Start+0x50>
 80022f2:	2302      	movs	r3, #2
 80022f4:	f880 303e 	strb.w	r3, [r0, #62]	; 0x3e
 80022f8:	2201      	movs	r2, #1
 80022fa:	6820      	ldr	r0, [r4, #0]
 80022fc:	f7ff ffc6 	bl	800228c <TIM_CCxChannelCmd>
 8002300:	6823      	ldr	r3, [r4, #0]
 8002302:	4a12      	ldr	r2, [pc, #72]	; (800234c <HAL_TIM_OC_Start+0xa4>)
 8002304:	4293      	cmp	r3, r2
 8002306:	d10a      	bne.n	800231e <HAL_TIM_OC_Start+0x76>
 8002308:	6c5a      	ldr	r2, [r3, #68]	; 0x44
 800230a:	f442 4200 	orr.w	r2, r2, #32768	; 0x8000
 800230e:	645a      	str	r2, [r3, #68]	; 0x44
 8002310:	689a      	ldr	r2, [r3, #8]
 8002312:	f002 0207 	and.w	r2, r2, #7
 8002316:	2a06      	cmp	r2, #6
 8002318:	d113      	bne.n	8002342 <HAL_TIM_OC_Start+0x9a>
 800231a:	2000      	movs	r0, #0
 800231c:	e7cc      	b.n	80022b8 <HAL_TIM_OC_Start+0x10>
 800231e:	f1b3 4f80 	cmp.w	r3, #1073741824	; 0x40000000
 8002322:	d0f5      	beq.n	8002310 <HAL_TIM_OC_Start+0x68>
 8002324:	4a0a      	ldr	r2, [pc, #40]	; (8002350 <HAL_TIM_OC_Start+0xa8>)
 8002326:	4293      	cmp	r3, r2
 8002328:	d0f2      	beq.n	8002310 <HAL_TIM_OC_Start+0x68>
 800232a:	f502 6280 	add.w	r2, r2, #1024	; 0x400
 800232e:	4293      	cmp	r3, r2
 8002330:	d0ee      	beq.n	8002310 <HAL_TIM_OC_Start+0x68>
 8002332:	f502 6280 	add.w	r2, r2, #1024	; 0x400
 8002336:	4293      	cmp	r3, r2
 8002338:	d0ea      	beq.n	8002310 <HAL_TIM_OC_Start+0x68>
 800233a:	f502 329a 	add.w	r2, r2, #78848	; 0x13400
 800233e:	4293      	cmp	r3, r2
 8002340:	d0e6      	beq.n	8002310 <HAL_TIM_OC_Start+0x68>
 8002342:	681a      	ldr	r2, [r3, #0]
 8002344:	f042 0201 	orr.w	r2, r2, #1
 8002348:	601a      	str	r2, [r3, #0]
 800234a:	e7e6      	b.n	800231a <HAL_TIM_OC_Start+0x72>
 800234c:	40010000 	.word	0x40010000
 8002350:	40000400 	.word	0x40000400

08002354 <HAL_TIM_PWM_Start>:
 8002354:	f7ff bfa8 	b.w	80022a8 <HAL_TIM_OC_Start>

08002358 <HAL_TIMEx_MasterConfigSynchronization>:
 8002358:	b530      	push	{r4, r5, lr}
 800235a:	f890 303c 	ldrb.w	r3, [r0, #60]	; 0x3c
 800235e:	2b01      	cmp	r3, #1
 8002360:	f04f 0302 	mov.w	r3, #2
 8002364:	d02a      	beq.n	80023bc <HAL_TIMEx_MasterConfigSynchronization+0x64>
 8002366:	f880 303d 	strb.w	r3, [r0, #61]	; 0x3d
 800236a:	6803      	ldr	r3, [r0, #0]
 800236c:	680d      	ldr	r5, [r1, #0]
 800236e:	685c      	ldr	r4, [r3, #4]
 8002370:	689a      	ldr	r2, [r3, #8]
 8002372:	f024 0470 	bic.w	r4, r4, #112	; 0x70
 8002376:	432c      	orrs	r4, r5
 8002378:	605c      	str	r4, [r3, #4]
 800237a:	4c11      	ldr	r4, [pc, #68]	; (80023c0 <HAL_TIMEx_MasterConfigSynchronization+0x68>)
 800237c:	42a3      	cmp	r3, r4
 800237e:	d012      	beq.n	80023a6 <HAL_TIMEx_MasterConfigSynchronization+0x4e>
 8002380:	f1b3 4f80 	cmp.w	r3, #1073741824	; 0x40000000
 8002384:	d00f      	beq.n	80023a6 <HAL_TIMEx_MasterConfigSynchronization+0x4e>
 8002386:	f5a4 447c 	sub.w	r4, r4, #64512	; 0xfc00
 800238a:	42a3      	cmp	r3, r4
 800238c:	d00b      	beq.n	80023a6 <HAL_TIMEx_MasterConfigSynchronization+0x4e>
 800238e:	f504 6480 	add.w	r4, r4, #1024	; 0x400
 8002392:	42a3      	cmp	r3, r4
 8002394:	d007      	beq.n	80023a6 <HAL_TIMEx_MasterConfigSynchronization+0x4e>
 8002396:	f504 6480 	add.w	r4, r4, #1024	; 0x400
 800239a:	42a3      	cmp	r3, r4
 800239c:	d003      	beq.n	80023a6 <HAL_TIMEx_MasterConfigSynchronization+0x4e>
 800239e:	f504 349a 	add.w	r4, r4, #78848	; 0x13400
 80023a2:	42a3      	cmp	r3, r4
 80023a4:	d104      	bne.n	80023b0 <HAL_TIMEx_MasterConfigSynchronization+0x58>
 80023a6:	6849      	ldr	r1, [r1, #4]
 80023a8:	f022 0280 	bic.w	r2, r2, #128	; 0x80
 80023ac:	430a      	orrs	r2, r1
 80023ae:	609a      	str	r2, [r3, #8]
 80023b0:	2301      	movs	r3, #1
 80023b2:	f880 303d 	strb.w	r3, [r0, #61]	; 0x3d
 80023b6:	2300      	movs	r3, #0
 80023b8:	f880 303c 	strb.w	r3, [r0, #60]	; 0x3c
 80023bc:	4618      	mov	r0, r3
 80023be:	bd30      	pop	{r4, r5, pc}
 80023c0:	40010000 	.word	0x40010000

080023c4 <UART_EndRxTransfer>:
 80023c4:	6802      	ldr	r2, [r0, #0]
 80023c6:	f102 030c 	add.w	r3, r2, #12
 80023ca:	e853 3f00 	ldrex	r3, [r3]
 80023ce:	f423 7390 	bic.w	r3, r3, #288	; 0x120
 80023d2:	320c      	adds	r2, #12
 80023d4:	e842 3100 	strex	r1, r3, [r2]
 80023d8:	6802      	ldr	r2, [r0, #0]
 80023da:	2900      	cmp	r1, #0
 80023dc:	d1f2      	bne.n	80023c4 <UART_EndRxTransfer>
 80023de:	f102 0314 	add.w	r3, r2, #20
 80023e2:	e853 3f00 	ldrex	r3, [r3]
 80023e6:	f023 0301 	bic.w	r3, r3, #1
 80023ea:	f102 0c14 	add.w	ip, r2, #20
 80023ee:	e84c 3100 	strex	r1, r3, [ip]
 80023f2:	2900      	cmp	r1, #0
 80023f4:	d1f3      	bne.n	80023de <UART_EndRxTransfer+0x1a>
 80023f6:	6b03      	ldr	r3, [r0, #48]	; 0x30
 80023f8:	2b01      	cmp	r3, #1
 80023fa:	d10b      	bne.n	8002414 <UART_EndRxTransfer+0x50>
 80023fc:	f102 030c 	add.w	r3, r2, #12
 8002400:	e853 3f00 	ldrex	r3, [r3]
 8002404:	f023 0310 	bic.w	r3, r3, #16
 8002408:	f102 0c0c 	add.w	ip, r2, #12
 800240c:	e84c 3100 	strex	r1, r3, [ip]
 8002410:	2900      	cmp	r1, #0
 8002412:	d1f3      	bne.n	80023fc <UART_EndRxTransfer+0x38>
 8002414:	2320      	movs	r3, #32
 8002416:	f880 303e 	strb.w	r3, [r0, #62]	; 0x3e
 800241a:	2300      	movs	r3, #0
 800241c:	6303      	str	r3, [r0, #48]	; 0x30
 800241e:	4770      	bx	lr

08002420 <UART_SetConfig>:
 8002420:	6802      	ldr	r2, [r0, #0]
 8002422:	68c1      	ldr	r1, [r0, #12]
 8002424:	b538      	push	{r3, r4, r5, lr}
 8002426:	6913      	ldr	r3, [r2, #16]
 8002428:	f423 5340 	bic.w	r3, r3, #12288	; 0x3000
 800242c:	430b      	orrs	r3, r1
 800242e:	6113      	str	r3, [r2, #16]
 8002430:	4605      	mov	r5, r0
 8002432:	6883      	ldr	r3, [r0, #8]
 8002434:	6900      	ldr	r0, [r0, #16]
 8002436:	68d1      	ldr	r1, [r2, #12]
 8002438:	4303      	orrs	r3, r0
 800243a:	6968      	ldr	r0, [r5, #20]
 800243c:	4303      	orrs	r3, r0
 800243e:	69e8      	ldr	r0, [r5, #28]
 8002440:	f421 4116 	bic.w	r1, r1, #38400	; 0x9600
 8002444:	f021 010c 	bic.w	r1, r1, #12
 8002448:	4303      	orrs	r3, r0
 800244a:	430b      	orrs	r3, r1
 800244c:	60d3      	str	r3, [r2, #12]
 800244e:	6953      	ldr	r3, [r2, #20]
 8002450:	69a9      	ldr	r1, [r5, #24]
 8002452:	f423 7340 	bic.w	r3, r3, #768	; 0x300
 8002456:	430b      	orrs	r3, r1
 8002458:	6153      	str	r3, [r2, #20]
 800245a:	4b1f      	ldr	r3, [pc, #124]	; (80024d8 <UART_SetConfig+0xb8>)
 800245c:	429a      	cmp	r2, r3
 800245e:	d003      	beq.n	8002468 <UART_SetConfig+0x48>
 8002460:	f503 6380 	add.w	r3, r3, #1024	; 0x400
 8002464:	429a      	cmp	r2, r3
 8002466:	d124      	bne.n	80024b2 <UART_SetConfig+0x92>
 8002468:	f7ff fa4a 	bl	8001900 <HAL_RCC_GetPCLK2Freq>
 800246c:	69ea      	ldr	r2, [r5, #28]
 800246e:	2319      	movs	r3, #25
 8002470:	f5b2 4f00 	cmp.w	r2, #32768	; 0x8000
 8002474:	fba0 0103 	umull	r0, r1, r0, r3
 8002478:	e9d5 4300 	ldrd	r4, r3, [r5]
 800247c:	d11c      	bne.n	80024b8 <UART_SetConfig+0x98>
 800247e:	461a      	mov	r2, r3
 8002480:	1892      	adds	r2, r2, r2
 8002482:	f04f 0300 	mov.w	r3, #0
 8002486:	415b      	adcs	r3, r3
 8002488:	f7fe fc06 	bl	8000c98 <__aeabi_uldivmod>
 800248c:	2164      	movs	r1, #100	; 0x64
 800248e:	fbb0 f5f1 	udiv	r5, r0, r1
 8002492:	fb01 0315 	mls	r3, r1, r5, r0
 8002496:	00db      	lsls	r3, r3, #3
 8002498:	3332      	adds	r3, #50	; 0x32
 800249a:	fbb3 f3f1 	udiv	r3, r3, r1
 800249e:	f003 0207 	and.w	r2, r3, #7
 80024a2:	005b      	lsls	r3, r3, #1
 80024a4:	eb02 1205 	add.w	r2, r2, r5, lsl #4
 80024a8:	f403 73f8 	and.w	r3, r3, #496	; 0x1f0
 80024ac:	4413      	add	r3, r2
 80024ae:	60a3      	str	r3, [r4, #8]
 80024b0:	bd38      	pop	{r3, r4, r5, pc}
 80024b2:	f7ff fa15 	bl	80018e0 <HAL_RCC_GetPCLK1Freq>
 80024b6:	e7d9      	b.n	800246c <UART_SetConfig+0x4c>
 80024b8:	009a      	lsls	r2, r3, #2
 80024ba:	0f9b      	lsrs	r3, r3, #30
 80024bc:	f7fe fbec 	bl	8000c98 <__aeabi_uldivmod>
 80024c0:	2264      	movs	r2, #100	; 0x64
 80024c2:	fbb0 f1f2 	udiv	r1, r0, r2
 80024c6:	fb02 0311 	mls	r3, r2, r1, r0
 80024ca:	011b      	lsls	r3, r3, #4
 80024cc:	3332      	adds	r3, #50	; 0x32
 80024ce:	fbb3 f3f2 	udiv	r3, r3, r2
 80024d2:	eb03 1301 	add.w	r3, r3, r1, lsl #4
 80024d6:	e7ea      	b.n	80024ae <UART_SetConfig+0x8e>
 80024d8:	40011000 	.word	0x40011000

080024dc <UART_WaitOnFlagUntilTimeout.constprop.0>:
 80024dc:	b5f8      	push	{r3, r4, r5, r6, r7, lr}
 80024de:	4604      	mov	r4, r0
 80024e0:	460e      	mov	r6, r1
 80024e2:	4617      	mov	r7, r2
 80024e4:	461d      	mov	r5, r3
 80024e6:	6822      	ldr	r2, [r4, #0]
 80024e8:	6813      	ldr	r3, [r2, #0]
 80024ea:	ea36 0303 	bics.w	r3, r6, r3
 80024ee:	d101      	bne.n	80024f4 <UART_WaitOnFlagUntilTimeout.constprop.0+0x18>
 80024f0:	2000      	movs	r0, #0
 80024f2:	e028      	b.n	8002546 <UART_WaitOnFlagUntilTimeout.constprop.0+0x6a>
 80024f4:	1c6b      	adds	r3, r5, #1
 80024f6:	d0f7      	beq.n	80024e8 <UART_WaitOnFlagUntilTimeout.constprop.0+0xc>
 80024f8:	b125      	cbz	r5, 8002504 <UART_WaitOnFlagUntilTimeout.constprop.0+0x28>
 80024fa:	f7fe fdc9 	bl	8001090 <HAL_GetTick>
 80024fe:	1bc0      	subs	r0, r0, r7
 8002500:	4285      	cmp	r5, r0
 8002502:	d2f0      	bcs.n	80024e6 <UART_WaitOnFlagUntilTimeout.constprop.0+0xa>
 8002504:	6822      	ldr	r2, [r4, #0]
 8002506:	f102 030c 	add.w	r3, r2, #12
 800250a:	e853 3f00 	ldrex	r3, [r3]
 800250e:	f423 73d0 	bic.w	r3, r3, #416	; 0x1a0
 8002512:	320c      	adds	r2, #12
 8002514:	e842 3000 	strex	r0, r3, [r2]
 8002518:	6821      	ldr	r1, [r4, #0]
 800251a:	2800      	cmp	r0, #0
 800251c:	d1f2      	bne.n	8002504 <UART_WaitOnFlagUntilTimeout.constprop.0+0x28>
 800251e:	f101 0314 	add.w	r3, r1, #20
 8002522:	e853 3f00 	ldrex	r3, [r3]
 8002526:	f023 0301 	bic.w	r3, r3, #1
 800252a:	f101 0014 	add.w	r0, r1, #20
 800252e:	e840 3200 	strex	r2, r3, [r0]
 8002532:	2a00      	cmp	r2, #0
 8002534:	d1f3      	bne.n	800251e <UART_WaitOnFlagUntilTimeout.constprop.0+0x42>
 8002536:	2320      	movs	r3, #32
 8002538:	f884 303d 	strb.w	r3, [r4, #61]	; 0x3d
 800253c:	f884 203c 	strb.w	r2, [r4, #60]	; 0x3c
 8002540:	f884 303e 	strb.w	r3, [r4, #62]	; 0x3e
 8002544:	2003      	movs	r0, #3
 8002546:	bdf8      	pop	{r3, r4, r5, r6, r7, pc}

08002548 <HAL_UART_Init>:
 8002548:	b510      	push	{r4, lr}
 800254a:	4604      	mov	r4, r0
 800254c:	b340      	cbz	r0, 80025a0 <HAL_UART_Init+0x58>
 800254e:	f890 303d 	ldrb.w	r3, [r0, #61]	; 0x3d
 8002552:	f003 02ff 	and.w	r2, r3, #255	; 0xff
 8002556:	b91b      	cbnz	r3, 8002560 <HAL_UART_Init+0x18>
 8002558:	f880 203c 	strb.w	r2, [r0, #60]	; 0x3c
 800255c:	f000 fe3c 	bl	80031d8 <HAL_UART_MspInit>
 8002560:	6822      	ldr	r2, [r4, #0]
 8002562:	2324      	movs	r3, #36	; 0x24
 8002564:	f884 303d 	strb.w	r3, [r4, #61]	; 0x3d
 8002568:	68d3      	ldr	r3, [r2, #12]
 800256a:	f423 5300 	bic.w	r3, r3, #8192	; 0x2000
 800256e:	60d3      	str	r3, [r2, #12]
 8002570:	4620      	mov	r0, r4
 8002572:	f7ff ff55 	bl	8002420 <UART_SetConfig>
 8002576:	6823      	ldr	r3, [r4, #0]
 8002578:	691a      	ldr	r2, [r3, #16]
 800257a:	f422 4290 	bic.w	r2, r2, #18432	; 0x4800
 800257e:	611a      	str	r2, [r3, #16]
 8002580:	695a      	ldr	r2, [r3, #20]
 8002582:	f022 022a 	bic.w	r2, r2, #42	; 0x2a
 8002586:	615a      	str	r2, [r3, #20]
 8002588:	68da      	ldr	r2, [r3, #12]
 800258a:	f442 5200 	orr.w	r2, r2, #8192	; 0x2000
 800258e:	60da      	str	r2, [r3, #12]
 8002590:	2000      	movs	r0, #0
 8002592:	2320      	movs	r3, #32
 8002594:	6420      	str	r0, [r4, #64]	; 0x40
 8002596:	f884 303d 	strb.w	r3, [r4, #61]	; 0x3d
 800259a:	f884 303e 	strb.w	r3, [r4, #62]	; 0x3e
 800259e:	bd10      	pop	{r4, pc}
 80025a0:	2001      	movs	r0, #1
 80025a2:	e7fc      	b.n	800259e <HAL_UART_Init+0x56>

080025a4 <HAL_UART_Transmit>:
 80025a4:	b5f7      	push	{r0, r1, r2, r4, r5, r6, r7, lr}
 80025a6:	4617      	mov	r7, r2
 80025a8:	f890 203d 	ldrb.w	r2, [r0, #61]	; 0x3d
 80025ac:	9300      	str	r3, [sp, #0]
 80025ae:	2a20      	cmp	r2, #32
 80025b0:	4604      	mov	r4, r0
 80025b2:	460e      	mov	r6, r1
 80025b4:	d149      	bne.n	800264a <HAL_UART_Transmit+0xa6>
 80025b6:	2900      	cmp	r1, #0
 80025b8:	d045      	beq.n	8002646 <HAL_UART_Transmit+0xa2>
 80025ba:	2f00      	cmp	r7, #0
 80025bc:	d043      	beq.n	8002646 <HAL_UART_Transmit+0xa2>
 80025be:	f890 203c 	ldrb.w	r2, [r0, #60]	; 0x3c
 80025c2:	2a01      	cmp	r2, #1
 80025c4:	d041      	beq.n	800264a <HAL_UART_Transmit+0xa6>
 80025c6:	2201      	movs	r2, #1
 80025c8:	f880 203c 	strb.w	r2, [r0, #60]	; 0x3c
 80025cc:	2500      	movs	r5, #0
 80025ce:	2221      	movs	r2, #33	; 0x21
 80025d0:	6405      	str	r5, [r0, #64]	; 0x40
 80025d2:	f880 203d 	strb.w	r2, [r0, #61]	; 0x3d
 80025d6:	f7fe fd5b 	bl	8001090 <HAL_GetTick>
 80025da:	68a1      	ldr	r1, [r4, #8]
 80025dc:	9b00      	ldr	r3, [sp, #0]
 80025de:	84a7      	strh	r7, [r4, #36]	; 0x24
 80025e0:	f5b1 5f80 	cmp.w	r1, #4096	; 0x1000
 80025e4:	4602      	mov	r2, r0
 80025e6:	84e7      	strh	r7, [r4, #38]	; 0x26
 80025e8:	d103      	bne.n	80025f2 <HAL_UART_Transmit+0x4e>
 80025ea:	6921      	ldr	r1, [r4, #16]
 80025ec:	b909      	cbnz	r1, 80025f2 <HAL_UART_Transmit+0x4e>
 80025ee:	4635      	mov	r5, r6
 80025f0:	460e      	mov	r6, r1
 80025f2:	2100      	movs	r1, #0
 80025f4:	f884 103c 	strb.w	r1, [r4, #60]	; 0x3c
 80025f8:	8ce1      	ldrh	r1, [r4, #38]	; 0x26
 80025fa:	b289      	uxth	r1, r1
 80025fc:	b941      	cbnz	r1, 8002610 <HAL_UART_Transmit+0x6c>
 80025fe:	2140      	movs	r1, #64	; 0x40
 8002600:	4620      	mov	r0, r4
 8002602:	f7ff ff6b 	bl	80024dc <UART_WaitOnFlagUntilTimeout.constprop.0>
 8002606:	b960      	cbnz	r0, 8002622 <HAL_UART_Transmit+0x7e>
 8002608:	2320      	movs	r3, #32
 800260a:	f884 303d 	strb.w	r3, [r4, #61]	; 0x3d
 800260e:	e009      	b.n	8002624 <HAL_UART_Transmit+0x80>
 8002610:	2180      	movs	r1, #128	; 0x80
 8002612:	4620      	mov	r0, r4
 8002614:	e9cd 2300 	strd	r2, r3, [sp]
 8002618:	f7ff ff60 	bl	80024dc <UART_WaitOnFlagUntilTimeout.constprop.0>
 800261c:	e9dd 2300 	ldrd	r2, r3, [sp]
 8002620:	b110      	cbz	r0, 8002628 <HAL_UART_Transmit+0x84>
 8002622:	2003      	movs	r0, #3
 8002624:	b003      	add	sp, #12
 8002626:	bdf0      	pop	{r4, r5, r6, r7, pc}
 8002628:	6820      	ldr	r0, [r4, #0]
 800262a:	b94e      	cbnz	r6, 8002640 <HAL_UART_Transmit+0x9c>
 800262c:	f835 1b02 	ldrh.w	r1, [r5], #2
 8002630:	f3c1 0108 	ubfx	r1, r1, #0, #9
 8002634:	6041      	str	r1, [r0, #4]
 8002636:	8ce1      	ldrh	r1, [r4, #38]	; 0x26
 8002638:	3901      	subs	r1, #1
 800263a:	b289      	uxth	r1, r1
 800263c:	84e1      	strh	r1, [r4, #38]	; 0x26
 800263e:	e7db      	b.n	80025f8 <HAL_UART_Transmit+0x54>
 8002640:	f816 1b01 	ldrb.w	r1, [r6], #1
 8002644:	e7f6      	b.n	8002634 <HAL_UART_Transmit+0x90>
 8002646:	2001      	movs	r0, #1
 8002648:	e7ec      	b.n	8002624 <HAL_UART_Transmit+0x80>
 800264a:	2002      	movs	r0, #2
 800264c:	e7ea      	b.n	8002624 <HAL_UART_Transmit+0x80>

0800264e <HAL_UART_Receive>:
 800264e:	e92d 43f8 	stmdb	sp!, {r3, r4, r5, r6, r7, r8, r9, lr}
 8002652:	4699      	mov	r9, r3
 8002654:	f890 303e 	ldrb.w	r3, [r0, #62]	; 0x3e
 8002658:	2b20      	cmp	r3, #32
 800265a:	4604      	mov	r4, r0
 800265c:	460f      	mov	r7, r1
 800265e:	4615      	mov	r5, r2
 8002660:	d14d      	bne.n	80026fe <HAL_UART_Receive+0xb0>
 8002662:	2900      	cmp	r1, #0
 8002664:	d049      	beq.n	80026fa <HAL_UART_Receive+0xac>
 8002666:	2a00      	cmp	r2, #0
 8002668:	d047      	beq.n	80026fa <HAL_UART_Receive+0xac>
 800266a:	f890 303c 	ldrb.w	r3, [r0, #60]	; 0x3c
 800266e:	2b01      	cmp	r3, #1
 8002670:	d045      	beq.n	80026fe <HAL_UART_Receive+0xb0>
 8002672:	2301      	movs	r3, #1
 8002674:	f880 303c 	strb.w	r3, [r0, #60]	; 0x3c
 8002678:	2600      	movs	r6, #0
 800267a:	2322      	movs	r3, #34	; 0x22
 800267c:	6406      	str	r6, [r0, #64]	; 0x40
 800267e:	f880 303e 	strb.w	r3, [r0, #62]	; 0x3e
 8002682:	6306      	str	r6, [r0, #48]	; 0x30
 8002684:	f7fe fd04 	bl	8001090 <HAL_GetTick>
 8002688:	68a3      	ldr	r3, [r4, #8]
 800268a:	85a5      	strh	r5, [r4, #44]	; 0x2c
 800268c:	f5b3 5f80 	cmp.w	r3, #4096	; 0x1000
 8002690:	4680      	mov	r8, r0
 8002692:	85e5      	strh	r5, [r4, #46]	; 0x2e
 8002694:	d103      	bne.n	800269e <HAL_UART_Receive+0x50>
 8002696:	6923      	ldr	r3, [r4, #16]
 8002698:	b90b      	cbnz	r3, 800269e <HAL_UART_Receive+0x50>
 800269a:	463e      	mov	r6, r7
 800269c:	461f      	mov	r7, r3
 800269e:	2300      	movs	r3, #0
 80026a0:	f884 303c 	strb.w	r3, [r4, #60]	; 0x3c
 80026a4:	8de5      	ldrh	r5, [r4, #46]	; 0x2e
 80026a6:	b2a8      	uxth	r0, r5
 80026a8:	b920      	cbnz	r0, 80026b4 <HAL_UART_Receive+0x66>
 80026aa:	2320      	movs	r3, #32
 80026ac:	f884 303e 	strb.w	r3, [r4, #62]	; 0x3e
 80026b0:	e8bd 83f8 	ldmia.w	sp!, {r3, r4, r5, r6, r7, r8, r9, pc}
 80026b4:	464b      	mov	r3, r9
 80026b6:	4642      	mov	r2, r8
 80026b8:	2120      	movs	r1, #32
 80026ba:	4620      	mov	r0, r4
 80026bc:	f7ff ff0e 	bl	80024dc <UART_WaitOnFlagUntilTimeout.constprop.0>
 80026c0:	b9f8      	cbnz	r0, 8002702 <HAL_UART_Receive+0xb4>
 80026c2:	6823      	ldr	r3, [r4, #0]
 80026c4:	b94f      	cbnz	r7, 80026da <HAL_UART_Receive+0x8c>
 80026c6:	685b      	ldr	r3, [r3, #4]
 80026c8:	f3c3 0308 	ubfx	r3, r3, #0, #9
 80026cc:	f826 3b02 	strh.w	r3, [r6], #2
 80026d0:	8de3      	ldrh	r3, [r4, #46]	; 0x2e
 80026d2:	3b01      	subs	r3, #1
 80026d4:	b29b      	uxth	r3, r3
 80026d6:	85e3      	strh	r3, [r4, #46]	; 0x2e
 80026d8:	e7e4      	b.n	80026a4 <HAL_UART_Receive+0x56>
 80026da:	68a2      	ldr	r2, [r4, #8]
 80026dc:	f5b2 5f80 	cmp.w	r2, #4096	; 0x1000
 80026e0:	d002      	beq.n	80026e8 <HAL_UART_Receive+0x9a>
 80026e2:	b932      	cbnz	r2, 80026f2 <HAL_UART_Receive+0xa4>
 80026e4:	6922      	ldr	r2, [r4, #16]
 80026e6:	b922      	cbnz	r2, 80026f2 <HAL_UART_Receive+0xa4>
 80026e8:	6859      	ldr	r1, [r3, #4]
 80026ea:	b2c9      	uxtb	r1, r1
 80026ec:	f807 1b01 	strb.w	r1, [r7], #1
 80026f0:	e7ee      	b.n	80026d0 <HAL_UART_Receive+0x82>
 80026f2:	6859      	ldr	r1, [r3, #4]
 80026f4:	f001 017f 	and.w	r1, r1, #127	; 0x7f
 80026f8:	e7f8      	b.n	80026ec <HAL_UART_Receive+0x9e>
 80026fa:	2001      	movs	r0, #1
 80026fc:	e7d8      	b.n	80026b0 <HAL_UART_Receive+0x62>
 80026fe:	2002      	movs	r0, #2
 8002700:	e7d6      	b.n	80026b0 <HAL_UART_Receive+0x62>
 8002702:	2003      	movs	r0, #3
 8002704:	e7d4      	b.n	80026b0 <HAL_UART_Receive+0x62>

08002706 <HAL_UART_TxCpltCallback>:
 8002706:	4770      	bx	lr

08002708 <HAL_UART_RxCpltCallback>:
 8002708:	4770      	bx	lr

0800270a <HAL_UART_ErrorCallback>:
 800270a:	4770      	bx	lr

0800270c <UART_DMAAbortOnError>:
 800270c:	b508      	push	{r3, lr}
 800270e:	6b80      	ldr	r0, [r0, #56]	; 0x38
 8002710:	2300      	movs	r3, #0
 8002712:	85c3      	strh	r3, [r0, #46]	; 0x2e
 8002714:	84c3      	strh	r3, [r0, #38]	; 0x26
 8002716:	f7ff fff8 	bl	800270a <HAL_UART_ErrorCallback>
 800271a:	bd08      	pop	{r3, pc}

0800271c <HAL_UARTEx_RxEventCallback>:
 800271c:	4770      	bx	lr

0800271e <UART_Receive_IT>:
 800271e:	b513      	push	{r0, r1, r4, lr}
 8002720:	f890 303e 	ldrb.w	r3, [r0, #62]	; 0x3e
 8002724:	2b22      	cmp	r3, #34	; 0x22
 8002726:	d153      	bne.n	80027d0 <UART_Receive_IT+0xb2>
 8002728:	6881      	ldr	r1, [r0, #8]
 800272a:	6a83      	ldr	r3, [r0, #40]	; 0x28
 800272c:	6802      	ldr	r2, [r0, #0]
 800272e:	f5b1 5f80 	cmp.w	r1, #4096	; 0x1000
 8002732:	d13d      	bne.n	80027b0 <UART_Receive_IT+0x92>
 8002734:	6901      	ldr	r1, [r0, #16]
 8002736:	2900      	cmp	r1, #0
 8002738:	d13d      	bne.n	80027b6 <UART_Receive_IT+0x98>
 800273a:	6852      	ldr	r2, [r2, #4]
 800273c:	f3c2 0208 	ubfx	r2, r2, #0, #9
 8002740:	f823 2b02 	strh.w	r2, [r3], #2
 8002744:	8dc4      	ldrh	r4, [r0, #46]	; 0x2e
 8002746:	6283      	str	r3, [r0, #40]	; 0x28
 8002748:	3c01      	subs	r4, #1
 800274a:	b2a4      	uxth	r4, r4
 800274c:	85c4      	strh	r4, [r0, #46]	; 0x2e
 800274e:	2c00      	cmp	r4, #0
 8002750:	d12c      	bne.n	80027ac <UART_Receive_IT+0x8e>
 8002752:	6803      	ldr	r3, [r0, #0]
 8002754:	68da      	ldr	r2, [r3, #12]
 8002756:	f022 0220 	bic.w	r2, r2, #32
 800275a:	60da      	str	r2, [r3, #12]
 800275c:	68da      	ldr	r2, [r3, #12]
 800275e:	f422 7280 	bic.w	r2, r2, #256	; 0x100
 8002762:	60da      	str	r2, [r3, #12]
 8002764:	695a      	ldr	r2, [r3, #20]
 8002766:	f022 0201 	bic.w	r2, r2, #1
 800276a:	615a      	str	r2, [r3, #20]
 800276c:	2320      	movs	r3, #32
 800276e:	f880 303e 	strb.w	r3, [r0, #62]	; 0x3e
 8002772:	6b03      	ldr	r3, [r0, #48]	; 0x30
 8002774:	2b01      	cmp	r3, #1
 8002776:	6803      	ldr	r3, [r0, #0]
 8002778:	d127      	bne.n	80027ca <UART_Receive_IT+0xac>
 800277a:	6304      	str	r4, [r0, #48]	; 0x30
 800277c:	f103 020c 	add.w	r2, r3, #12
 8002780:	e852 2f00 	ldrex	r2, [r2]
 8002784:	f022 0210 	bic.w	r2, r2, #16
 8002788:	f103 040c 	add.w	r4, r3, #12
 800278c:	e844 2100 	strex	r1, r2, [r4]
 8002790:	2900      	cmp	r1, #0
 8002792:	d1f3      	bne.n	800277c <UART_Receive_IT+0x5e>
 8002794:	681a      	ldr	r2, [r3, #0]
 8002796:	06d2      	lsls	r2, r2, #27
 8002798:	d505      	bpl.n	80027a6 <UART_Receive_IT+0x88>
 800279a:	9101      	str	r1, [sp, #4]
 800279c:	681a      	ldr	r2, [r3, #0]
 800279e:	9201      	str	r2, [sp, #4]
 80027a0:	685b      	ldr	r3, [r3, #4]
 80027a2:	9301      	str	r3, [sp, #4]
 80027a4:	9b01      	ldr	r3, [sp, #4]
 80027a6:	8d81      	ldrh	r1, [r0, #44]	; 0x2c
 80027a8:	f7ff ffb8 	bl	800271c <HAL_UARTEx_RxEventCallback>
 80027ac:	2000      	movs	r0, #0
 80027ae:	e010      	b.n	80027d2 <UART_Receive_IT+0xb4>
 80027b0:	b939      	cbnz	r1, 80027c2 <UART_Receive_IT+0xa4>
 80027b2:	6901      	ldr	r1, [r0, #16]
 80027b4:	b929      	cbnz	r1, 80027c2 <UART_Receive_IT+0xa4>
 80027b6:	6852      	ldr	r2, [r2, #4]
 80027b8:	b2d2      	uxtb	r2, r2
 80027ba:	701a      	strb	r2, [r3, #0]
 80027bc:	6a83      	ldr	r3, [r0, #40]	; 0x28
 80027be:	3301      	adds	r3, #1
 80027c0:	e7c0      	b.n	8002744 <UART_Receive_IT+0x26>
 80027c2:	6852      	ldr	r2, [r2, #4]
 80027c4:	f002 027f 	and.w	r2, r2, #127	; 0x7f
 80027c8:	e7f7      	b.n	80027ba <UART_Receive_IT+0x9c>
 80027ca:	f7ff ff9d 	bl	8002708 <HAL_UART_RxCpltCallback>
 80027ce:	e7ed      	b.n	80027ac <UART_Receive_IT+0x8e>
 80027d0:	2002      	movs	r0, #2
 80027d2:	b002      	add	sp, #8
 80027d4:	bd10      	pop	{r4, pc}
	...

080027d8 <HAL_UART_IRQHandler>:
 80027d8:	6803      	ldr	r3, [r0, #0]
 80027da:	b537      	push	{r0, r1, r2, r4, r5, lr}
 80027dc:	681a      	ldr	r2, [r3, #0]
 80027de:	68d9      	ldr	r1, [r3, #12]
 80027e0:	695d      	ldr	r5, [r3, #20]
 80027e2:	f012 0f0f 	tst.w	r2, #15
 80027e6:	4604      	mov	r4, r0
 80027e8:	d108      	bne.n	80027fc <HAL_UART_IRQHandler+0x24>
 80027ea:	0695      	lsls	r5, r2, #26
 80027ec:	d568      	bpl.n	80028c0 <HAL_UART_IRQHandler+0xe8>
 80027ee:	068d      	lsls	r5, r1, #26
 80027f0:	d566      	bpl.n	80028c0 <HAL_UART_IRQHandler+0xe8>
 80027f2:	b003      	add	sp, #12
 80027f4:	e8bd 4030 	ldmia.w	sp!, {r4, r5, lr}
 80027f8:	f7ff bf91 	b.w	800271e <UART_Receive_IT>
 80027fc:	f005 0001 	and.w	r0, r5, #1
 8002800:	f401 7590 	and.w	r5, r1, #288	; 0x120
 8002804:	4305      	orrs	r5, r0
 8002806:	d05b      	beq.n	80028c0 <HAL_UART_IRQHandler+0xe8>
 8002808:	07d5      	lsls	r5, r2, #31
 800280a:	d505      	bpl.n	8002818 <HAL_UART_IRQHandler+0x40>
 800280c:	05cb      	lsls	r3, r1, #23
 800280e:	bf42      	ittt	mi
 8002810:	6c23      	ldrmi	r3, [r4, #64]	; 0x40
 8002812:	f043 0301 	orrmi.w	r3, r3, #1
 8002816:	6423      	strmi	r3, [r4, #64]	; 0x40
 8002818:	0755      	lsls	r5, r2, #29
 800281a:	d504      	bpl.n	8002826 <HAL_UART_IRQHandler+0x4e>
 800281c:	b118      	cbz	r0, 8002826 <HAL_UART_IRQHandler+0x4e>
 800281e:	6c23      	ldr	r3, [r4, #64]	; 0x40
 8002820:	f043 0302 	orr.w	r3, r3, #2
 8002824:	6423      	str	r3, [r4, #64]	; 0x40
 8002826:	0793      	lsls	r3, r2, #30
 8002828:	d504      	bpl.n	8002834 <HAL_UART_IRQHandler+0x5c>
 800282a:	b118      	cbz	r0, 8002834 <HAL_UART_IRQHandler+0x5c>
 800282c:	6c23      	ldr	r3, [r4, #64]	; 0x40
 800282e:	f043 0304 	orr.w	r3, r3, #4
 8002832:	6423      	str	r3, [r4, #64]	; 0x40
 8002834:	0715      	lsls	r5, r2, #28
 8002836:	d507      	bpl.n	8002848 <HAL_UART_IRQHandler+0x70>
 8002838:	f001 0320 	and.w	r3, r1, #32
 800283c:	4303      	orrs	r3, r0
 800283e:	bf1e      	ittt	ne
 8002840:	6c23      	ldrne	r3, [r4, #64]	; 0x40
 8002842:	f043 0308 	orrne.w	r3, r3, #8
 8002846:	6423      	strne	r3, [r4, #64]	; 0x40
 8002848:	6c23      	ldr	r3, [r4, #64]	; 0x40
 800284a:	2b00      	cmp	r3, #0
 800284c:	d032      	beq.n	80028b4 <HAL_UART_IRQHandler+0xdc>
 800284e:	0690      	lsls	r0, r2, #26
 8002850:	d504      	bpl.n	800285c <HAL_UART_IRQHandler+0x84>
 8002852:	068a      	lsls	r2, r1, #26
 8002854:	d502      	bpl.n	800285c <HAL_UART_IRQHandler+0x84>
 8002856:	4620      	mov	r0, r4
 8002858:	f7ff ff61 	bl	800271e <UART_Receive_IT>
 800285c:	6823      	ldr	r3, [r4, #0]
 800285e:	695b      	ldr	r3, [r3, #20]
 8002860:	6c25      	ldr	r5, [r4, #64]	; 0x40
 8002862:	f003 0340 	and.w	r3, r3, #64	; 0x40
 8002866:	f005 0508 	and.w	r5, r5, #8
 800286a:	431d      	orrs	r5, r3
 800286c:	4620      	mov	r0, r4
 800286e:	d023      	beq.n	80028b8 <HAL_UART_IRQHandler+0xe0>
 8002870:	f7ff fda8 	bl	80023c4 <UART_EndRxTransfer>
 8002874:	6822      	ldr	r2, [r4, #0]
 8002876:	6953      	ldr	r3, [r2, #20]
 8002878:	065b      	lsls	r3, r3, #25
 800287a:	d518      	bpl.n	80028ae <HAL_UART_IRQHandler+0xd6>
 800287c:	f102 0314 	add.w	r3, r2, #20
 8002880:	e853 3f00 	ldrex	r3, [r3]
 8002884:	f023 0340 	bic.w	r3, r3, #64	; 0x40
 8002888:	f102 0014 	add.w	r0, r2, #20
 800288c:	e840 3100 	strex	r1, r3, [r0]
 8002890:	2900      	cmp	r1, #0
 8002892:	d1f3      	bne.n	800287c <HAL_UART_IRQHandler+0xa4>
 8002894:	6ba0      	ldr	r0, [r4, #56]	; 0x38
 8002896:	b150      	cbz	r0, 80028ae <HAL_UART_IRQHandler+0xd6>
 8002898:	4b72      	ldr	r3, [pc, #456]	; (8002a64 <HAL_UART_IRQHandler+0x28c>)
 800289a:	6503      	str	r3, [r0, #80]	; 0x50
 800289c:	f7fe fcbe 	bl	800121c <HAL_DMA_Abort_IT>
 80028a0:	b140      	cbz	r0, 80028b4 <HAL_UART_IRQHandler+0xdc>
 80028a2:	6ba0      	ldr	r0, [r4, #56]	; 0x38
 80028a4:	6d03      	ldr	r3, [r0, #80]	; 0x50
 80028a6:	b003      	add	sp, #12
 80028a8:	e8bd 4030 	ldmia.w	sp!, {r4, r5, lr}
 80028ac:	4718      	bx	r3
 80028ae:	4620      	mov	r0, r4
 80028b0:	f7ff ff2b 	bl	800270a <HAL_UART_ErrorCallback>
 80028b4:	b003      	add	sp, #12
 80028b6:	bd30      	pop	{r4, r5, pc}
 80028b8:	f7ff ff27 	bl	800270a <HAL_UART_ErrorCallback>
 80028bc:	6425      	str	r5, [r4, #64]	; 0x40
 80028be:	e7f9      	b.n	80028b4 <HAL_UART_IRQHandler+0xdc>
 80028c0:	6b20      	ldr	r0, [r4, #48]	; 0x30
 80028c2:	2801      	cmp	r0, #1
 80028c4:	f040 8091 	bne.w	80029ea <HAL_UART_IRQHandler+0x212>
 80028c8:	06d5      	lsls	r5, r2, #27
 80028ca:	f140 808e 	bpl.w	80029ea <HAL_UART_IRQHandler+0x212>
 80028ce:	06c8      	lsls	r0, r1, #27
 80028d0:	f140 808b 	bpl.w	80029ea <HAL_UART_IRQHandler+0x212>
 80028d4:	2200      	movs	r2, #0
 80028d6:	9201      	str	r2, [sp, #4]
 80028d8:	681a      	ldr	r2, [r3, #0]
 80028da:	9201      	str	r2, [sp, #4]
 80028dc:	685a      	ldr	r2, [r3, #4]
 80028de:	9201      	str	r2, [sp, #4]
 80028e0:	9a01      	ldr	r2, [sp, #4]
 80028e2:	695a      	ldr	r2, [r3, #20]
 80028e4:	0655      	lsls	r5, r2, #25
 80028e6:	d54c      	bpl.n	8002982 <HAL_UART_IRQHandler+0x1aa>
 80028e8:	6ba1      	ldr	r1, [r4, #56]	; 0x38
 80028ea:	680a      	ldr	r2, [r1, #0]
 80028ec:	6852      	ldr	r2, [r2, #4]
 80028ee:	b292      	uxth	r2, r2
 80028f0:	2a00      	cmp	r2, #0
 80028f2:	d0df      	beq.n	80028b4 <HAL_UART_IRQHandler+0xdc>
 80028f4:	8da0      	ldrh	r0, [r4, #44]	; 0x2c
 80028f6:	4290      	cmp	r0, r2
 80028f8:	d9dc      	bls.n	80028b4 <HAL_UART_IRQHandler+0xdc>
 80028fa:	85e2      	strh	r2, [r4, #46]	; 0x2e
 80028fc:	69ca      	ldr	r2, [r1, #28]
 80028fe:	f5b2 7f80 	cmp.w	r2, #256	; 0x100
 8002902:	d036      	beq.n	8002972 <HAL_UART_IRQHandler+0x19a>
 8002904:	f103 020c 	add.w	r2, r3, #12
 8002908:	e852 2f00 	ldrex	r2, [r2]
 800290c:	f422 7280 	bic.w	r2, r2, #256	; 0x100
 8002910:	f103 000c 	add.w	r0, r3, #12
 8002914:	e840 2100 	strex	r1, r2, [r0]
 8002918:	2900      	cmp	r1, #0
 800291a:	d1f3      	bne.n	8002904 <HAL_UART_IRQHandler+0x12c>
 800291c:	f103 0214 	add.w	r2, r3, #20
 8002920:	e852 2f00 	ldrex	r2, [r2]
 8002924:	f022 0201 	bic.w	r2, r2, #1
 8002928:	f103 0014 	add.w	r0, r3, #20
 800292c:	e840 2100 	strex	r1, r2, [r0]
 8002930:	2900      	cmp	r1, #0
 8002932:	d1f3      	bne.n	800291c <HAL_UART_IRQHandler+0x144>
 8002934:	f103 0214 	add.w	r2, r3, #20
 8002938:	e852 2f00 	ldrex	r2, [r2]
 800293c:	f022 0240 	bic.w	r2, r2, #64	; 0x40
 8002940:	f103 0014 	add.w	r0, r3, #20
 8002944:	e840 2100 	strex	r1, r2, [r0]
 8002948:	2900      	cmp	r1, #0
 800294a:	d1f3      	bne.n	8002934 <HAL_UART_IRQHandler+0x15c>
 800294c:	2220      	movs	r2, #32
 800294e:	f884 203e 	strb.w	r2, [r4, #62]	; 0x3e
 8002952:	6321      	str	r1, [r4, #48]	; 0x30
 8002954:	f103 020c 	add.w	r2, r3, #12
 8002958:	e852 2f00 	ldrex	r2, [r2]
 800295c:	f022 0210 	bic.w	r2, r2, #16
 8002960:	f103 000c 	add.w	r0, r3, #12
 8002964:	e840 2100 	strex	r1, r2, [r0]
 8002968:	2900      	cmp	r1, #0
 800296a:	d1f3      	bne.n	8002954 <HAL_UART_IRQHandler+0x17c>
 800296c:	6ba0      	ldr	r0, [r4, #56]	; 0x38
 800296e:	f7fe fc11 	bl	8001194 <HAL_DMA_Abort>
 8002972:	8de3      	ldrh	r3, [r4, #46]	; 0x2e
 8002974:	8da1      	ldrh	r1, [r4, #44]	; 0x2c
 8002976:	1ac9      	subs	r1, r1, r3
 8002978:	b289      	uxth	r1, r1
 800297a:	4620      	mov	r0, r4
 800297c:	f7ff fece 	bl	800271c <HAL_UARTEx_RxEventCallback>
 8002980:	e798      	b.n	80028b4 <HAL_UART_IRQHandler+0xdc>
 8002982:	8de1      	ldrh	r1, [r4, #46]	; 0x2e
 8002984:	b28a      	uxth	r2, r1
 8002986:	8de1      	ldrh	r1, [r4, #46]	; 0x2e
 8002988:	b289      	uxth	r1, r1
 800298a:	2900      	cmp	r1, #0
 800298c:	d092      	beq.n	80028b4 <HAL_UART_IRQHandler+0xdc>
 800298e:	8da1      	ldrh	r1, [r4, #44]	; 0x2c
 8002990:	1a89      	subs	r1, r1, r2
 8002992:	b289      	uxth	r1, r1
 8002994:	2900      	cmp	r1, #0
 8002996:	d08d      	beq.n	80028b4 <HAL_UART_IRQHandler+0xdc>
 8002998:	f103 020c 	add.w	r2, r3, #12
 800299c:	e852 2f00 	ldrex	r2, [r2]
 80029a0:	f422 7290 	bic.w	r2, r2, #288	; 0x120
 80029a4:	f103 050c 	add.w	r5, r3, #12
 80029a8:	e845 2000 	strex	r0, r2, [r5]
 80029ac:	2800      	cmp	r0, #0
 80029ae:	d1f3      	bne.n	8002998 <HAL_UART_IRQHandler+0x1c0>
 80029b0:	f103 0214 	add.w	r2, r3, #20
 80029b4:	e852 2f00 	ldrex	r2, [r2]
 80029b8:	f022 0201 	bic.w	r2, r2, #1
 80029bc:	f103 0514 	add.w	r5, r3, #20
 80029c0:	e845 2000 	strex	r0, r2, [r5]
 80029c4:	2800      	cmp	r0, #0
 80029c6:	d1f3      	bne.n	80029b0 <HAL_UART_IRQHandler+0x1d8>
 80029c8:	2220      	movs	r2, #32
 80029ca:	f884 203e 	strb.w	r2, [r4, #62]	; 0x3e
 80029ce:	6320      	str	r0, [r4, #48]	; 0x30
 80029d0:	f103 020c 	add.w	r2, r3, #12
 80029d4:	e852 2f00 	ldrex	r2, [r2]
 80029d8:	f022 0210 	bic.w	r2, r2, #16
 80029dc:	f103 050c 	add.w	r5, r3, #12
 80029e0:	e845 2000 	strex	r0, r2, [r5]
 80029e4:	2800      	cmp	r0, #0
 80029e6:	d1f3      	bne.n	80029d0 <HAL_UART_IRQHandler+0x1f8>
 80029e8:	e7c7      	b.n	800297a <HAL_UART_IRQHandler+0x1a2>
 80029ea:	0610      	lsls	r0, r2, #24
 80029ec:	d528      	bpl.n	8002a40 <HAL_UART_IRQHandler+0x268>
 80029ee:	060d      	lsls	r5, r1, #24
 80029f0:	d526      	bpl.n	8002a40 <HAL_UART_IRQHandler+0x268>
 80029f2:	f894 203d 	ldrb.w	r2, [r4, #61]	; 0x3d
 80029f6:	2a21      	cmp	r2, #33	; 0x21
 80029f8:	f47f af5c 	bne.w	80028b4 <HAL_UART_IRQHandler+0xdc>
 80029fc:	68a1      	ldr	r1, [r4, #8]
 80029fe:	6a22      	ldr	r2, [r4, #32]
 8002a00:	f5b1 5f80 	cmp.w	r1, #4096	; 0x1000
 8002a04:	d117      	bne.n	8002a36 <HAL_UART_IRQHandler+0x25e>
 8002a06:	6921      	ldr	r1, [r4, #16]
 8002a08:	b9a9      	cbnz	r1, 8002a36 <HAL_UART_IRQHandler+0x25e>
 8002a0a:	f832 1b02 	ldrh.w	r1, [r2], #2
 8002a0e:	f3c1 0108 	ubfx	r1, r1, #0, #9
 8002a12:	6059      	str	r1, [r3, #4]
 8002a14:	6222      	str	r2, [r4, #32]
 8002a16:	8ce2      	ldrh	r2, [r4, #38]	; 0x26
 8002a18:	3a01      	subs	r2, #1
 8002a1a:	b292      	uxth	r2, r2
 8002a1c:	84e2      	strh	r2, [r4, #38]	; 0x26
 8002a1e:	2a00      	cmp	r2, #0
 8002a20:	f47f af48 	bne.w	80028b4 <HAL_UART_IRQHandler+0xdc>
 8002a24:	68da      	ldr	r2, [r3, #12]
 8002a26:	f022 0280 	bic.w	r2, r2, #128	; 0x80
 8002a2a:	60da      	str	r2, [r3, #12]
 8002a2c:	68da      	ldr	r2, [r3, #12]
 8002a2e:	f042 0240 	orr.w	r2, r2, #64	; 0x40
 8002a32:	60da      	str	r2, [r3, #12]
 8002a34:	e73e      	b.n	80028b4 <HAL_UART_IRQHandler+0xdc>
 8002a36:	1c51      	adds	r1, r2, #1
 8002a38:	6221      	str	r1, [r4, #32]
 8002a3a:	7812      	ldrb	r2, [r2, #0]
 8002a3c:	605a      	str	r2, [r3, #4]
 8002a3e:	e7ea      	b.n	8002a16 <HAL_UART_IRQHandler+0x23e>
 8002a40:	0650      	lsls	r0, r2, #25
 8002a42:	f57f af37 	bpl.w	80028b4 <HAL_UART_IRQHandler+0xdc>
 8002a46:	064a      	lsls	r2, r1, #25
 8002a48:	f57f af34 	bpl.w	80028b4 <HAL_UART_IRQHandler+0xdc>
 8002a4c:	68da      	ldr	r2, [r3, #12]
 8002a4e:	f022 0240 	bic.w	r2, r2, #64	; 0x40
 8002a52:	60da      	str	r2, [r3, #12]
 8002a54:	2320      	movs	r3, #32
 8002a56:	f884 303d 	strb.w	r3, [r4, #61]	; 0x3d
 8002a5a:	4620      	mov	r0, r4
 8002a5c:	f7ff fe53 	bl	8002706 <HAL_UART_TxCpltCallback>
 8002a60:	e728      	b.n	80028b4 <HAL_UART_IRQHandler+0xdc>
 8002a62:	bf00      	nop
 8002a64:	0800270d 	.word	0x0800270d

08002a68 <HAL_GPIO_EXTI_Callback>:
 8002a68:	2802      	cmp	r0, #2
 8002a6a:	d104      	bne.n	8002a76 <HAL_GPIO_EXTI_Callback+0xe>
 8002a6c:	4a04      	ldr	r2, [pc, #16]	; (8002a80 <HAL_GPIO_EXTI_Callback+0x18>)
 8002a6e:	6813      	ldr	r3, [r2, #0]
 8002a70:	3301      	adds	r3, #1
 8002a72:	6013      	str	r3, [r2, #0]
 8002a74:	4770      	bx	lr
 8002a76:	2804      	cmp	r0, #4
 8002a78:	bf0c      	ite	eq
 8002a7a:	4a02      	ldreq	r2, [pc, #8]	; (8002a84 <HAL_GPIO_EXTI_Callback+0x1c>)
 8002a7c:	4a02      	ldrne	r2, [pc, #8]	; (8002a88 <HAL_GPIO_EXTI_Callback+0x20>)
 8002a7e:	e7f6      	b.n	8002a6e <HAL_GPIO_EXTI_Callback+0x6>
 8002a80:	200001fc 	.word	0x200001fc
 8002a84:	20000200 	.word	0x20000200
 8002a88:	20000204 	.word	0x20000204

08002a8c <cpu_loop>:
 8002a8c:	4a20      	ldr	r2, [pc, #128]	; (8002b10 <cpu_loop+0x84>)
 8002a8e:	2300      	movs	r3, #0
 8002a90:	b573      	push	{r0, r1, r4, r5, r6, lr}
 8002a92:	6013      	str	r3, [r2, #0]
 8002a94:	4d1f      	ldr	r5, [pc, #124]	; (8002b14 <cpu_loop+0x88>)
 8002a96:	4a20      	ldr	r2, [pc, #128]	; (8002b18 <cpu_loop+0x8c>)
 8002a98:	4c20      	ldr	r4, [pc, #128]	; (8002b1c <cpu_loop+0x90>)
 8002a9a:	4921      	ldr	r1, [pc, #132]	; (8002b20 <cpu_loop+0x94>)
 8002a9c:	4821      	ldr	r0, [pc, #132]	; (8002b24 <cpu_loop+0x98>)
 8002a9e:	602b      	str	r3, [r5, #0]
 8002aa0:	6013      	str	r3, [r2, #0]
 8002aa2:	6023      	str	r3, [r4, #0]
 8002aa4:	f000 fad2 	bl	800304c <print_UART>
 8002aa8:	f000 fc4c 	bl	8003344 <test_led>
 8002aac:	f44f 60fa 	mov.w	r0, #2000	; 0x7d0
 8002ab0:	f7fe faf4 	bl	800109c <HAL_Delay>
 8002ab4:	f000 fc60 	bl	8003378 <test_pwm>
 8002ab8:	f44f 60fa 	mov.w	r0, #2000	; 0x7d0
 8002abc:	f7fe faee 	bl	800109c <HAL_Delay>
 8002ac0:	f000 fc7e 	bl	80033c0 <test_rs485>
 8002ac4:	f44f 60fa 	mov.w	r0, #2000	; 0x7d0
 8002ac8:	f7fe fae8 	bl	800109c <HAL_Delay>
 8002acc:	f000 f8d8 	bl	8002c80 <lis2ds12_initialization>
 8002ad0:	4e15      	ldr	r6, [pc, #84]	; (8002b28 <cpu_loop+0x9c>)
 8002ad2:	a901      	add	r1, sp, #4
 8002ad4:	4630      	mov	r0, r6
 8002ad6:	f000 f965 	bl	8002da4 <lis2ds12_status_reg_get>
 8002ada:	6822      	ldr	r2, [r4, #0]
 8002adc:	2a05      	cmp	r2, #5
 8002ade:	d009      	beq.n	8002af4 <cpu_loop+0x68>
 8002ae0:	f89d 3004 	ldrb.w	r3, [sp, #4]
 8002ae4:	07db      	lsls	r3, r3, #31
 8002ae6:	d5f4      	bpl.n	8002ad2 <cpu_loop+0x46>
 8002ae8:	f000 f884 	bl	8002bf4 <lis2ds12_get_acceleration>
 8002aec:	6823      	ldr	r3, [r4, #0]
 8002aee:	3301      	adds	r3, #1
 8002af0:	6023      	str	r3, [r4, #0]
 8002af2:	e7ee      	b.n	8002ad2 <cpu_loop+0x46>
 8002af4:	6829      	ldr	r1, [r5, #0]
 8002af6:	480d      	ldr	r0, [pc, #52]	; (8002b2c <cpu_loop+0xa0>)
 8002af8:	f000 faa8 	bl	800304c <print_UART>
 8002afc:	480c      	ldr	r0, [pc, #48]	; (8002b30 <cpu_loop+0xa4>)
 8002afe:	f000 faa5 	bl	800304c <print_UART>
 8002b02:	f44f 60fa 	mov.w	r0, #2000	; 0x7d0
 8002b06:	f7fe fac9 	bl	800109c <HAL_Delay>
 8002b0a:	b002      	add	sp, #8
 8002b0c:	bd70      	pop	{r4, r5, r6, pc}
 8002b0e:	bf00      	nop
 8002b10:	20000200 	.word	0x20000200
 8002b14:	200001fc 	.word	0x200001fc
 8002b18:	20000204 	.word	0x20000204
 8002b1c:	20000208 	.word	0x20000208
 8002b20:	08007da0 	.word	0x08007da0
 8002b24:	08007da4 	.word	0x08007da4
 8002b28:	2000021c 	.word	0x2000021c
 8002b2c:	08007dd6 	.word	0x08007dd6
 8002b30:	08007e1b 	.word	0x08007e1b

08002b34 <cpu_init>:
 8002b34:	2104      	movs	r1, #4
 8002b36:	b508      	push	{r3, lr}
 8002b38:	4804      	ldr	r0, [pc, #16]	; (8002b4c <cpu_init+0x18>)
 8002b3a:	f7ff fc0b 	bl	8002354 <HAL_TIM_PWM_Start>
 8002b3e:	4803      	ldr	r0, [pc, #12]	; (8002b4c <cpu_init+0x18>)
 8002b40:	2108      	movs	r1, #8
 8002b42:	f7ff fc07 	bl	8002354 <HAL_TIM_PWM_Start>
 8002b46:	f7ff ffa1 	bl	8002a8c <cpu_loop>
 8002b4a:	e7fc      	b.n	8002b46 <cpu_init+0x12>
 8002b4c:	200002c4 	.word	0x200002c4

08002b50 <accelerometer_write>:
 8002b50:	b5f7      	push	{r0, r1, r2, r4, r5, r6, r7, lr}
 8002b52:	4e11      	ldr	r6, [pc, #68]	; (8002b98 <accelerometer_write+0x48>)
 8002b54:	4f11      	ldr	r7, [pc, #68]	; (8002b9c <accelerometer_write+0x4c>)
 8002b56:	f88d 1007 	strb.w	r1, [sp, #7]
 8002b5a:	4614      	mov	r4, r2
 8002b5c:	4630      	mov	r0, r6
 8002b5e:	2200      	movs	r2, #0
 8002b60:	2110      	movs	r1, #16
 8002b62:	461d      	mov	r5, r3
 8002b64:	f7fe fc34 	bl	80013d0 <HAL_GPIO_WritePin>
 8002b68:	f10d 0107 	add.w	r1, sp, #7
 8002b6c:	f44f 737a 	mov.w	r3, #1000	; 0x3e8
 8002b70:	2201      	movs	r2, #1
 8002b72:	4638      	mov	r0, r7
 8002b74:	f7fe ffda 	bl	8001b2c <HAL_SPI_Transmit>
 8002b78:	f44f 737a 	mov.w	r3, #1000	; 0x3e8
 8002b7c:	462a      	mov	r2, r5
 8002b7e:	4621      	mov	r1, r4
 8002b80:	4638      	mov	r0, r7
 8002b82:	f7fe ffd3 	bl	8001b2c <HAL_SPI_Transmit>
 8002b86:	4630      	mov	r0, r6
 8002b88:	2201      	movs	r2, #1
 8002b8a:	2110      	movs	r1, #16
 8002b8c:	f7fe fc20 	bl	80013d0 <HAL_GPIO_WritePin>
 8002b90:	2000      	movs	r0, #0
 8002b92:	b003      	add	sp, #12
 8002b94:	bdf0      	pop	{r4, r5, r6, r7, pc}
 8002b96:	bf00      	nop
 8002b98:	40020000 	.word	0x40020000
 8002b9c:	2000026c 	.word	0x2000026c

08002ba0 <accelerometer_read>:
 8002ba0:	b5f7      	push	{r0, r1, r2, r4, r5, r6, r7, lr}
 8002ba2:	4e12      	ldr	r6, [pc, #72]	; (8002bec <accelerometer_read+0x4c>)
 8002ba4:	4f12      	ldr	r7, [pc, #72]	; (8002bf0 <accelerometer_read+0x50>)
 8002ba6:	f061 017f 	orn	r1, r1, #127	; 0x7f
 8002baa:	4614      	mov	r4, r2
 8002bac:	f88d 1007 	strb.w	r1, [sp, #7]
 8002bb0:	4630      	mov	r0, r6
 8002bb2:	2200      	movs	r2, #0
 8002bb4:	2110      	movs	r1, #16
 8002bb6:	461d      	mov	r5, r3
 8002bb8:	f7fe fc0a 	bl	80013d0 <HAL_GPIO_WritePin>
 8002bbc:	f10d 0107 	add.w	r1, sp, #7
 8002bc0:	f44f 737a 	mov.w	r3, #1000	; 0x3e8
 8002bc4:	2201      	movs	r2, #1
 8002bc6:	4638      	mov	r0, r7
 8002bc8:	f7fe ffb0 	bl	8001b2c <HAL_SPI_Transmit>
 8002bcc:	f44f 737a 	mov.w	r3, #1000	; 0x3e8
 8002bd0:	462a      	mov	r2, r5
 8002bd2:	4621      	mov	r1, r4
 8002bd4:	4638      	mov	r0, r7
 8002bd6:	f7ff f945 	bl	8001e64 <HAL_SPI_Receive>
 8002bda:	4630      	mov	r0, r6
 8002bdc:	2201      	movs	r2, #1
 8002bde:	2110      	movs	r1, #16
 8002be0:	f7fe fbf6 	bl	80013d0 <HAL_GPIO_WritePin>
 8002be4:	2000      	movs	r0, #0
 8002be6:	b003      	add	sp, #12
 8002be8:	bdf0      	pop	{r4, r5, r6, r7, pc}
 8002bea:	bf00      	nop
 8002bec:	40020000 	.word	0x40020000
 8002bf0:	2000026c 	.word	0x2000026c

08002bf4 <lis2ds12_get_acceleration>:
 8002bf4:	b573      	push	{r0, r1, r4, r5, r6, lr}
 8002bf6:	2300      	movs	r3, #0
 8002bf8:	4669      	mov	r1, sp
 8002bfa:	481c      	ldr	r0, [pc, #112]	; (8002c6c <lis2ds12_get_acceleration+0x78>)
 8002bfc:	9300      	str	r3, [sp, #0]
 8002bfe:	f8ad 3004 	strh.w	r3, [sp, #4]
 8002c02:	f000 f8d4 	bl	8002dae <lis2ds12_acceleration_raw_get>
 8002c06:	f9bd 0000 	ldrsh.w	r0, [sp]
 8002c0a:	f000 f8bf 	bl	8002d8c <lis2ds12_from_fs4g_to_mg>
 8002c0e:	f9bd 0002 	ldrsh.w	r0, [sp, #2]
 8002c12:	ee10 6a10 	vmov	r6, s0
 8002c16:	f000 f8b9 	bl	8002d8c <lis2ds12_from_fs4g_to_mg>
 8002c1a:	f9bd 0004 	ldrsh.w	r0, [sp, #4]
 8002c1e:	ee10 5a10 	vmov	r5, s0
 8002c22:	f000 f8b3 	bl	8002d8c <lis2ds12_from_fs4g_to_mg>
 8002c26:	4630      	mov	r0, r6
 8002c28:	ee10 4a10 	vmov	r4, s0
 8002c2c:	f7fd fc94 	bl	8000558 <__aeabi_f2d>
 8002c30:	4602      	mov	r2, r0
 8002c32:	460b      	mov	r3, r1
 8002c34:	480e      	ldr	r0, [pc, #56]	; (8002c70 <lis2ds12_get_acceleration+0x7c>)
 8002c36:	f000 fa09 	bl	800304c <print_UART>
 8002c3a:	4628      	mov	r0, r5
 8002c3c:	f7fd fc8c 	bl	8000558 <__aeabi_f2d>
 8002c40:	4602      	mov	r2, r0
 8002c42:	460b      	mov	r3, r1
 8002c44:	480b      	ldr	r0, [pc, #44]	; (8002c74 <lis2ds12_get_acceleration+0x80>)
 8002c46:	f000 fa01 	bl	800304c <print_UART>
 8002c4a:	4620      	mov	r0, r4
 8002c4c:	f7fd fc84 	bl	8000558 <__aeabi_f2d>
 8002c50:	460d      	mov	r5, r1
 8002c52:	460b      	mov	r3, r1
 8002c54:	4604      	mov	r4, r0
 8002c56:	4602      	mov	r2, r0
 8002c58:	4807      	ldr	r0, [pc, #28]	; (8002c78 <lis2ds12_get_acceleration+0x84>)
 8002c5a:	f000 f9f7 	bl	800304c <print_UART>
 8002c5e:	4807      	ldr	r0, [pc, #28]	; (8002c7c <lis2ds12_get_acceleration+0x88>)
 8002c60:	4622      	mov	r2, r4
 8002c62:	462b      	mov	r3, r5
 8002c64:	f000 f9f2 	bl	800304c <print_UART>
 8002c68:	b002      	add	sp, #8
 8002c6a:	bd70      	pop	{r4, r5, r6, pc}
 8002c6c:	2000021c 	.word	0x2000021c
 8002c70:	08007e20 	.word	0x08007e20
 8002c74:	08007e41 	.word	0x08007e41
 8002c78:	08007e62 	.word	0x08007e62
 8002c7c:	08007e83 	.word	0x08007e83

08002c80 <lis2ds12_initialization>:
 8002c80:	b573      	push	{r0, r1, r4, r5, r6, lr}
 8002c82:	4d34      	ldr	r5, [pc, #208]	; (8002d54 <lis2ds12_initialization+0xd4>)
 8002c84:	4b34      	ldr	r3, [pc, #208]	; (8002d58 <lis2ds12_initialization+0xd8>)
 8002c86:	606b      	str	r3, [r5, #4]
 8002c88:	4b34      	ldr	r3, [pc, #208]	; (8002d5c <lis2ds12_initialization+0xdc>)
 8002c8a:	602b      	str	r3, [r5, #0]
 8002c8c:	4e34      	ldr	r6, [pc, #208]	; (8002d60 <lis2ds12_initialization+0xe0>)
 8002c8e:	2300      	movs	r3, #0
 8002c90:	f88d 3007 	strb.w	r3, [sp, #7]
 8002c94:	240b      	movs	r4, #11
 8002c96:	f89d 1007 	ldrb.w	r1, [sp, #7]
 8002c9a:	2943      	cmp	r1, #67	; 0x43
 8002c9c:	d010      	beq.n	8002cc0 <lis2ds12_initialization+0x40>
 8002c9e:	3c01      	subs	r4, #1
 8002ca0:	f014 04ff 	ands.w	r4, r4, #255	; 0xff
 8002ca4:	d103      	bne.n	8002cae <lis2ds12_initialization+0x2e>
 8002ca6:	482f      	ldr	r0, [pc, #188]	; (8002d64 <lis2ds12_initialization+0xe4>)
 8002ca8:	f000 f9d0 	bl	800304c <print_UART>
 8002cac:	e00b      	b.n	8002cc6 <lis2ds12_initialization+0x46>
 8002cae:	f10d 0107 	add.w	r1, sp, #7
 8002cb2:	4628      	mov	r0, r5
 8002cb4:	f000 f899 	bl	8002dea <lis2ds12_device_id_get>
 8002cb8:	4630      	mov	r0, r6
 8002cba:	f000 f9c7 	bl	800304c <print_UART>
 8002cbe:	e7ea      	b.n	8002c96 <lis2ds12_initialization+0x16>
 8002cc0:	4829      	ldr	r0, [pc, #164]	; (8002d68 <lis2ds12_initialization+0xe8>)
 8002cc2:	f000 f9c3 	bl	800304c <print_UART>
 8002cc6:	4d29      	ldr	r5, [pc, #164]	; (8002d6c <lis2ds12_initialization+0xec>)
 8002cc8:	2680      	movs	r6, #128	; 0x80
 8002cca:	f8c5 6080 	str.w	r6, [r5, #128]	; 0x80
 8002cce:	f3bf 8f4f 	dsb	sy
 8002cd2:	f3bf 8f6f 	isb	sy
 8002cd6:	237b      	movs	r3, #123	; 0x7b
 8002cd8:	f88d 3004 	strb.w	r3, [sp, #4]
 8002cdc:	aa01      	add	r2, sp, #4
 8002cde:	2301      	movs	r3, #1
 8002ce0:	2120      	movs	r1, #32
 8002ce2:	481c      	ldr	r0, [pc, #112]	; (8002d54 <lis2ds12_initialization+0xd4>)
 8002ce4:	f000 f84b 	bl	8002d7e <lis2ds12_write_reg>
 8002ce8:	2306      	movs	r3, #6
 8002cea:	f88d 3004 	strb.w	r3, [sp, #4]
 8002cee:	aa01      	add	r2, sp, #4
 8002cf0:	2301      	movs	r3, #1
 8002cf2:	2121      	movs	r1, #33	; 0x21
 8002cf4:	4817      	ldr	r0, [pc, #92]	; (8002d54 <lis2ds12_initialization+0xd4>)
 8002cf6:	f000 f842 	bl	8002d7e <lis2ds12_write_reg>
 8002cfa:	2400      	movs	r4, #0
 8002cfc:	aa01      	add	r2, sp, #4
 8002cfe:	2301      	movs	r3, #1
 8002d00:	2122      	movs	r1, #34	; 0x22
 8002d02:	4814      	ldr	r0, [pc, #80]	; (8002d54 <lis2ds12_initialization+0xd4>)
 8002d04:	f88d 4004 	strb.w	r4, [sp, #4]
 8002d08:	f000 f839 	bl	8002d7e <lis2ds12_write_reg>
 8002d0c:	aa01      	add	r2, sp, #4
 8002d0e:	2301      	movs	r3, #1
 8002d10:	2124      	movs	r1, #36	; 0x24
 8002d12:	4810      	ldr	r0, [pc, #64]	; (8002d54 <lis2ds12_initialization+0xd4>)
 8002d14:	f88d 4004 	strb.w	r4, [sp, #4]
 8002d18:	f000 f831 	bl	8002d7e <lis2ds12_write_reg>
 8002d1c:	aa01      	add	r2, sp, #4
 8002d1e:	2301      	movs	r3, #1
 8002d20:	2125      	movs	r1, #37	; 0x25
 8002d22:	480c      	ldr	r0, [pc, #48]	; (8002d54 <lis2ds12_initialization+0xd4>)
 8002d24:	f88d 4004 	strb.w	r4, [sp, #4]
 8002d28:	f000 f829 	bl	8002d7e <lis2ds12_write_reg>
 8002d2c:	aa01      	add	r2, sp, #4
 8002d2e:	2301      	movs	r3, #1
 8002d30:	212e      	movs	r1, #46	; 0x2e
 8002d32:	4808      	ldr	r0, [pc, #32]	; (8002d54 <lis2ds12_initialization+0xd4>)
 8002d34:	f88d 4004 	strb.w	r4, [sp, #4]
 8002d38:	f000 f821 	bl	8002d7e <lis2ds12_write_reg>
 8002d3c:	2301      	movs	r3, #1
 8002d3e:	aa01      	add	r2, sp, #4
 8002d40:	2123      	movs	r1, #35	; 0x23
 8002d42:	4804      	ldr	r0, [pc, #16]	; (8002d54 <lis2ds12_initialization+0xd4>)
 8002d44:	f88d 3004 	strb.w	r3, [sp, #4]
 8002d48:	f000 f819 	bl	8002d7e <lis2ds12_write_reg>
 8002d4c:	602e      	str	r6, [r5, #0]
 8002d4e:	b002      	add	sp, #8
 8002d50:	bd70      	pop	{r4, r5, r6, pc}
 8002d52:	bf00      	nop
 8002d54:	2000021c 	.word	0x2000021c
 8002d58:	08002ba1 	.word	0x08002ba1
 8002d5c:	08002b51 	.word	0x08002b51
 8002d60:	08007ea4 	.word	0x08007ea4
 8002d64:	08007eff 	.word	0x08007eff
 8002d68:	08007ecd 	.word	0x08007ecd
 8002d6c:	e000e100 	.word	0xe000e100

08002d70 <lis2ds12_read_reg>:
 8002d70:	b410      	push	{r4}
 8002d72:	e9d0 4001 	ldrd	r4, r0, [r0, #4]
 8002d76:	46a4      	mov	ip, r4
 8002d78:	f85d 4b04 	ldr.w	r4, [sp], #4
 8002d7c:	4760      	bx	ip

08002d7e <lis2ds12_write_reg>:
 8002d7e:	b410      	push	{r4}
 8002d80:	6804      	ldr	r4, [r0, #0]
 8002d82:	6880      	ldr	r0, [r0, #8]
 8002d84:	46a4      	mov	ip, r4
 8002d86:	f85d 4b04 	ldr.w	r4, [sp], #4
 8002d8a:	4760      	bx	ip

08002d8c <lis2ds12_from_fs4g_to_mg>:
 8002d8c:	ee07 0a90 	vmov	s15, r0
 8002d90:	eeb8 0ae7 	vcvt.f32.s32	s0, s15
 8002d94:	eddf 7a02 	vldr	s15, [pc, #8]	; 8002da0 <lis2ds12_from_fs4g_to_mg+0x14>
 8002d98:	ee20 0a27 	vmul.f32	s0, s0, s15
 8002d9c:	4770      	bx	lr
 8002d9e:	bf00      	nop
 8002da0:	3df9db23 	.word	0x3df9db23

08002da4 <lis2ds12_status_reg_get>:
 8002da4:	460a      	mov	r2, r1
 8002da6:	2301      	movs	r3, #1
 8002da8:	2127      	movs	r1, #39	; 0x27
 8002daa:	f7ff bfe1 	b.w	8002d70 <lis2ds12_read_reg>

08002dae <lis2ds12_acceleration_raw_get>:
 8002dae:	b513      	push	{r0, r1, r4, lr}
 8002db0:	2306      	movs	r3, #6
 8002db2:	460c      	mov	r4, r1
 8002db4:	466a      	mov	r2, sp
 8002db6:	2128      	movs	r1, #40	; 0x28
 8002db8:	f7ff ffda 	bl	8002d70 <lis2ds12_read_reg>
 8002dbc:	f89d 2001 	ldrb.w	r2, [sp, #1]
 8002dc0:	f89d 3000 	ldrb.w	r3, [sp]
 8002dc4:	eb03 2302 	add.w	r3, r3, r2, lsl #8
 8002dc8:	8023      	strh	r3, [r4, #0]
 8002dca:	f89d 2003 	ldrb.w	r2, [sp, #3]
 8002dce:	f89d 3002 	ldrb.w	r3, [sp, #2]
 8002dd2:	eb03 2302 	add.w	r3, r3, r2, lsl #8
 8002dd6:	8063      	strh	r3, [r4, #2]
 8002dd8:	f89d 2005 	ldrb.w	r2, [sp, #5]
 8002ddc:	f89d 3004 	ldrb.w	r3, [sp, #4]
 8002de0:	eb03 2302 	add.w	r3, r3, r2, lsl #8
 8002de4:	80a3      	strh	r3, [r4, #4]
 8002de6:	b002      	add	sp, #8
 8002de8:	bd10      	pop	{r4, pc}

08002dea <lis2ds12_device_id_get>:
 8002dea:	460a      	mov	r2, r1
 8002dec:	2301      	movs	r3, #1
 8002dee:	210f      	movs	r1, #15
 8002df0:	f7ff bfbe 	b.w	8002d70 <lis2ds12_read_reg>

08002df4 <SystemClock_Config>:
 8002df4:	b510      	push	{r4, lr}
 8002df6:	b094      	sub	sp, #80	; 0x50
 8002df8:	2210      	movs	r2, #16
 8002dfa:	2100      	movs	r1, #0
 8002dfc:	a80a      	add	r0, sp, #40	; 0x28
 8002dfe:	f000 fb5f 	bl	80034c0 <memset>
 8002e02:	2214      	movs	r2, #20
 8002e04:	2100      	movs	r1, #0
 8002e06:	a803      	add	r0, sp, #12
 8002e08:	f000 fb5a 	bl	80034c0 <memset>
 8002e0c:	4b20      	ldr	r3, [pc, #128]	; (8002e90 <SystemClock_Config+0x9c>)
 8002e0e:	2100      	movs	r1, #0
 8002e10:	9101      	str	r1, [sp, #4]
 8002e12:	6c1a      	ldr	r2, [r3, #64]	; 0x40
 8002e14:	f042 5280 	orr.w	r2, r2, #268435456	; 0x10000000
 8002e18:	641a      	str	r2, [r3, #64]	; 0x40
 8002e1a:	6c1b      	ldr	r3, [r3, #64]	; 0x40
 8002e1c:	4a1d      	ldr	r2, [pc, #116]	; (8002e94 <SystemClock_Config+0xa0>)
 8002e1e:	f003 5380 	and.w	r3, r3, #268435456	; 0x10000000
 8002e22:	9301      	str	r3, [sp, #4]
 8002e24:	9b01      	ldr	r3, [sp, #4]
 8002e26:	9102      	str	r1, [sp, #8]
 8002e28:	6813      	ldr	r3, [r2, #0]
 8002e2a:	f423 4340 	bic.w	r3, r3, #49152	; 0xc000
 8002e2e:	f443 4300 	orr.w	r3, r3, #32768	; 0x8000
 8002e32:	6013      	str	r3, [r2, #0]
 8002e34:	6813      	ldr	r3, [r2, #0]
 8002e36:	f403 4340 	and.w	r3, r3, #49152	; 0xc000
 8002e3a:	9302      	str	r3, [sp, #8]
 8002e3c:	9b02      	ldr	r3, [sp, #8]
 8002e3e:	2201      	movs	r2, #1
 8002e40:	f44f 3380 	mov.w	r3, #65536	; 0x10000
 8002e44:	2402      	movs	r4, #2
 8002e46:	e9cd 2308 	strd	r2, r3, [sp, #32]
 8002e4a:	f44f 0380 	mov.w	r3, #4194304	; 0x400000
 8002e4e:	e9cd 430e 	strd	r4, r3, [sp, #56]	; 0x38
 8002e52:	2119      	movs	r1, #25
 8002e54:	23a8      	movs	r3, #168	; 0xa8
 8002e56:	e9cd 1310 	strd	r1, r3, [sp, #64]	; 0x40
 8002e5a:	a808      	add	r0, sp, #32
 8002e5c:	2304      	movs	r3, #4
 8002e5e:	9412      	str	r4, [sp, #72]	; 0x48
 8002e60:	9313      	str	r3, [sp, #76]	; 0x4c
 8002e62:	f7fe fac7 	bl	80013f4 <HAL_RCC_OscConfig>
 8002e66:	b108      	cbz	r0, 8002e6c <SystemClock_Config+0x78>
 8002e68:	b672      	cpsid	i
 8002e6a:	e7fe      	b.n	8002e6a <SystemClock_Config+0x76>
 8002e6c:	230f      	movs	r3, #15
 8002e6e:	e9cd 3403 	strd	r3, r4, [sp, #12]
 8002e72:	f44f 5380 	mov.w	r3, #4096	; 0x1000
 8002e76:	e9cd 3006 	strd	r3, r0, [sp, #24]
 8002e7a:	9005      	str	r0, [sp, #20]
 8002e7c:	4621      	mov	r1, r4
 8002e7e:	a803      	add	r0, sp, #12
 8002e80:	f7fe fc92 	bl	80017a8 <HAL_RCC_ClockConfig>
 8002e84:	b108      	cbz	r0, 8002e8a <SystemClock_Config+0x96>
 8002e86:	b672      	cpsid	i
 8002e88:	e7fe      	b.n	8002e88 <SystemClock_Config+0x94>
 8002e8a:	b014      	add	sp, #80	; 0x50
 8002e8c:	bd10      	pop	{r4, pc}
 8002e8e:	bf00      	nop
 8002e90:	40023800 	.word	0x40023800
 8002e94:	40007000 	.word	0x40007000

08002e98 <main>:
 8002e98:	b500      	push	{lr}
 8002e9a:	b08d      	sub	sp, #52	; 0x34
 8002e9c:	f7fe f8d2 	bl	8001044 <HAL_Init>
 8002ea0:	f7ff ffa8 	bl	8002df4 <SystemClock_Config>
 8002ea4:	2214      	movs	r2, #20
 8002ea6:	2100      	movs	r1, #0
 8002ea8:	eb0d 0002 	add.w	r0, sp, r2
 8002eac:	f000 fb08 	bl	80034c0 <memset>
 8002eb0:	2400      	movs	r4, #0
 8002eb2:	4b5e      	ldr	r3, [pc, #376]	; (800302c <main+0x194>)
 8002eb4:	9400      	str	r4, [sp, #0]
 8002eb6:	6b1a      	ldr	r2, [r3, #48]	; 0x30
 8002eb8:	485d      	ldr	r0, [pc, #372]	; (8003030 <main+0x198>)
 8002eba:	4e5e      	ldr	r6, [pc, #376]	; (8003034 <main+0x19c>)
 8002ebc:	f042 0280 	orr.w	r2, r2, #128	; 0x80
 8002ec0:	631a      	str	r2, [r3, #48]	; 0x30
 8002ec2:	6b1a      	ldr	r2, [r3, #48]	; 0x30
 8002ec4:	f002 0280 	and.w	r2, r2, #128	; 0x80
 8002ec8:	9200      	str	r2, [sp, #0]
 8002eca:	9a00      	ldr	r2, [sp, #0]
 8002ecc:	9401      	str	r4, [sp, #4]
 8002ece:	6b1a      	ldr	r2, [r3, #48]	; 0x30
 8002ed0:	f042 0201 	orr.w	r2, r2, #1
 8002ed4:	631a      	str	r2, [r3, #48]	; 0x30
 8002ed6:	6b1a      	ldr	r2, [r3, #48]	; 0x30
 8002ed8:	f002 0201 	and.w	r2, r2, #1
 8002edc:	9201      	str	r2, [sp, #4]
 8002ede:	9a01      	ldr	r2, [sp, #4]
 8002ee0:	9402      	str	r4, [sp, #8]
 8002ee2:	6b1a      	ldr	r2, [r3, #48]	; 0x30
 8002ee4:	f042 0202 	orr.w	r2, r2, #2
 8002ee8:	631a      	str	r2, [r3, #48]	; 0x30
 8002eea:	6b1b      	ldr	r3, [r3, #48]	; 0x30
 8002eec:	f003 0302 	and.w	r3, r3, #2
 8002ef0:	4622      	mov	r2, r4
 8002ef2:	9302      	str	r3, [sp, #8]
 8002ef4:	f44f 6101 	mov.w	r1, #2064	; 0x810
 8002ef8:	2501      	movs	r5, #1
 8002efa:	9b02      	ldr	r3, [sp, #8]
 8002efc:	f7fe fa68 	bl	80013d0 <HAL_GPIO_WritePin>
 8002f00:	2310      	movs	r3, #16
 8002f02:	484b      	ldr	r0, [pc, #300]	; (8003030 <main+0x198>)
 8002f04:	a905      	add	r1, sp, #20
 8002f06:	e9cd 3505 	strd	r3, r5, [sp, #20]
 8002f0a:	e9cd 4507 	strd	r4, r5, [sp, #28]
 8002f0e:	f7fe f997 	bl	8001240 <HAL_GPIO_Init>
 8002f12:	f44f 1388 	mov.w	r3, #1114112	; 0x110000
 8002f16:	2006      	movs	r0, #6
 8002f18:	e9cd 0305 	strd	r0, r3, [sp, #20]
 8002f1c:	a905      	add	r1, sp, #20
 8002f1e:	4846      	ldr	r0, [pc, #280]	; (8003038 <main+0x1a0>)
 8002f20:	9407      	str	r4, [sp, #28]
 8002f22:	f7fe f98d 	bl	8001240 <HAL_GPIO_Init>
 8002f26:	f44f 6300 	mov.w	r3, #2048	; 0x800
 8002f2a:	4841      	ldr	r0, [pc, #260]	; (8003030 <main+0x198>)
 8002f2c:	a905      	add	r1, sp, #20
 8002f2e:	e9cd 3505 	strd	r3, r5, [sp, #20]
 8002f32:	e9cd 4407 	strd	r4, r4, [sp, #28]
 8002f36:	f7fe f983 	bl	8001240 <HAL_GPIO_Init>
 8002f3a:	4622      	mov	r2, r4
 8002f3c:	4621      	mov	r1, r4
 8002f3e:	2007      	movs	r0, #7
 8002f40:	f7fe f8d2 	bl	80010e8 <HAL_NVIC_SetPriority>
 8002f44:	2007      	movs	r0, #7
 8002f46:	f7fe f901 	bl	800114c <HAL_NVIC_EnableIRQ>
 8002f4a:	4622      	mov	r2, r4
 8002f4c:	4621      	mov	r1, r4
 8002f4e:	2008      	movs	r0, #8
 8002f50:	f7fe f8ca 	bl	80010e8 <HAL_NVIC_SetPriority>
 8002f54:	2008      	movs	r0, #8
 8002f56:	f7fe f8f9 	bl	800114c <HAL_NVIC_EnableIRQ>
 8002f5a:	4838      	ldr	r0, [pc, #224]	; (800303c <main+0x1a4>)
 8002f5c:	f44f 7382 	mov.w	r3, #260	; 0x104
 8002f60:	e9c0 6300 	strd	r6, r3, [r0]
 8002f64:	2302      	movs	r3, #2
 8002f66:	e9c0 3504 	strd	r3, r5, [r0, #16]
 8002f6a:	2608      	movs	r6, #8
 8002f6c:	f44f 7300 	mov.w	r3, #512	; 0x200
 8002f70:	e9c0 3606 	strd	r3, r6, [r0, #24]
 8002f74:	230a      	movs	r3, #10
 8002f76:	62c3      	str	r3, [r0, #44]	; 0x2c
 8002f78:	e9c0 4402 	strd	r4, r4, [r0, #8]
 8002f7c:	e9c0 4408 	strd	r4, r4, [r0, #32]
 8002f80:	6284      	str	r4, [r0, #40]	; 0x28
 8002f82:	f7fe fd77 	bl	8001a74 <HAL_SPI_Init>
 8002f86:	4603      	mov	r3, r0
 8002f88:	b108      	cbz	r0, 8002f8e <main+0xf6>
 8002f8a:	b672      	cpsid	i
 8002f8c:	e7fe      	b.n	8002f8c <main+0xf4>
 8002f8e:	482c      	ldr	r0, [pc, #176]	; (8003040 <main+0x1a8>)
 8002f90:	492c      	ldr	r1, [pc, #176]	; (8003044 <main+0x1ac>)
 8002f92:	6103      	str	r3, [r0, #16]
 8002f94:	f44f 32e1 	mov.w	r2, #115200	; 0x1c200
 8002f98:	e9c0 1200 	strd	r1, r2, [r0]
 8002f9c:	220c      	movs	r2, #12
 8002f9e:	e9c0 3302 	strd	r3, r3, [r0, #8]
 8002fa2:	e9c0 2305 	strd	r2, r3, [r0, #20]
 8002fa6:	61c3      	str	r3, [r0, #28]
 8002fa8:	f7ff face 	bl	8002548 <HAL_UART_Init>
 8002fac:	4605      	mov	r5, r0
 8002fae:	b108      	cbz	r0, 8002fb4 <main+0x11c>
 8002fb0:	b672      	cpsid	i
 8002fb2:	e7fe      	b.n	8002fb2 <main+0x11a>
 8002fb4:	4c24      	ldr	r4, [pc, #144]	; (8003048 <main+0x1b0>)
 8002fb6:	e9cd 0003 	strd	r0, r0, [sp, #12]
 8002fba:	221c      	movs	r2, #28
 8002fbc:	4601      	mov	r1, r0
 8002fbe:	a805      	add	r0, sp, #20
 8002fc0:	f000 fa7e 	bl	80034c0 <memset>
 8002fc4:	2340      	movs	r3, #64	; 0x40
 8002fc6:	f04f 4280 	mov.w	r2, #1073741824	; 0x40000000
 8002fca:	e9c4 2300 	strd	r2, r3, [r4]
 8002fce:	4620      	mov	r0, r4
 8002fd0:	23ff      	movs	r3, #255	; 0xff
 8002fd2:	e9c4 3503 	strd	r3, r5, [r4, #12]
 8002fd6:	60a5      	str	r5, [r4, #8]
 8002fd8:	61a5      	str	r5, [r4, #24]
 8002fda:	f7ff f8a1 	bl	8002120 <HAL_TIM_PWM_Init>
 8002fde:	b108      	cbz	r0, 8002fe4 <main+0x14c>
 8002fe0:	b672      	cpsid	i
 8002fe2:	e7fe      	b.n	8002fe2 <main+0x14a>
 8002fe4:	e9cd 0003 	strd	r0, r0, [sp, #12]
 8002fe8:	a903      	add	r1, sp, #12
 8002fea:	4620      	mov	r0, r4
 8002fec:	f7ff f9b4 	bl	8002358 <HAL_TIMEx_MasterConfigSynchronization>
 8002ff0:	b108      	cbz	r0, 8002ff6 <main+0x15e>
 8002ff2:	b672      	cpsid	i
 8002ff4:	e7fe      	b.n	8002ff4 <main+0x15c>
 8002ff6:	2360      	movs	r3, #96	; 0x60
 8002ff8:	e9cd 3005 	strd	r3, r0, [sp, #20]
 8002ffc:	9007      	str	r0, [sp, #28]
 8002ffe:	9009      	str	r0, [sp, #36]	; 0x24
 8003000:	2204      	movs	r2, #4
 8003002:	a905      	add	r1, sp, #20
 8003004:	4620      	mov	r0, r4
 8003006:	f7ff f8e3 	bl	80021d0 <HAL_TIM_PWM_ConfigChannel>
 800300a:	b108      	cbz	r0, 8003010 <main+0x178>
 800300c:	b672      	cpsid	i
 800300e:	e7fe      	b.n	800300e <main+0x176>
 8003010:	4632      	mov	r2, r6
 8003012:	a905      	add	r1, sp, #20
 8003014:	4620      	mov	r0, r4
 8003016:	f7ff f8db 	bl	80021d0 <HAL_TIM_PWM_ConfigChannel>
 800301a:	b108      	cbz	r0, 8003020 <main+0x188>
 800301c:	b672      	cpsid	i
 800301e:	e7fe      	b.n	800301e <main+0x186>
 8003020:	4620      	mov	r0, r4
 8003022:	f000 f8af 	bl	8003184 <HAL_TIM_MspPostInit>
 8003026:	f7ff fd85 	bl	8002b34 <cpu_init>
 800302a:	e7fe      	b.n	800302a <main+0x192>
 800302c:	40023800 	.word	0x40023800
 8003030:	40020000 	.word	0x40020000
 8003034:	40013000 	.word	0x40013000
 8003038:	40020400 	.word	0x40020400
 800303c:	2000026c 	.word	0x2000026c
 8003040:	20000228 	.word	0x20000228
 8003044:	40011000 	.word	0x40011000
 8003048:	200002c4 	.word	0x200002c4

0800304c <print_UART>:
 800304c:	b40f      	push	{r0, r1, r2, r3}
 800304e:	b530      	push	{r4, r5, lr}
 8003050:	b0b5      	sub	sp, #212	; 0xd4
 8003052:	ac38      	add	r4, sp, #224	; 0xe0
 8003054:	2100      	movs	r1, #0
 8003056:	f854 5b04 	ldr.w	r5, [r4], #4
 800305a:	9102      	str	r1, [sp, #8]
 800305c:	22c4      	movs	r2, #196	; 0xc4
 800305e:	a803      	add	r0, sp, #12
 8003060:	f000 fa2e 	bl	80034c0 <memset>
 8003064:	4622      	mov	r2, r4
 8003066:	4629      	mov	r1, r5
 8003068:	a802      	add	r0, sp, #8
 800306a:	9401      	str	r4, [sp, #4]
 800306c:	f001 ffb0 	bl	8004fd0 <vsiprintf>
 8003070:	480e      	ldr	r0, [pc, #56]	; (80030ac <print_UART+0x60>)
 8003072:	4c0f      	ldr	r4, [pc, #60]	; (80030b0 <print_UART+0x64>)
 8003074:	2201      	movs	r2, #1
 8003076:	f44f 6100 	mov.w	r1, #2048	; 0x800
 800307a:	f7fe f9a9 	bl	80013d0 <HAL_GPIO_WritePin>
 800307e:	a802      	add	r0, sp, #8
 8003080:	f7fd f8ae 	bl	80001e0 <strlen>
 8003084:	2364      	movs	r3, #100	; 0x64
 8003086:	b282      	uxth	r2, r0
 8003088:	a902      	add	r1, sp, #8
 800308a:	4620      	mov	r0, r4
 800308c:	f7ff fa8a 	bl	80025a4 <HAL_UART_Transmit>
 8003090:	2802      	cmp	r0, #2
 8003092:	d0f4      	beq.n	800307e <print_UART+0x32>
 8003094:	4805      	ldr	r0, [pc, #20]	; (80030ac <print_UART+0x60>)
 8003096:	2200      	movs	r2, #0
 8003098:	f44f 6100 	mov.w	r1, #2048	; 0x800
 800309c:	f7fe f998 	bl	80013d0 <HAL_GPIO_WritePin>
 80030a0:	b035      	add	sp, #212	; 0xd4
 80030a2:	e8bd 4030 	ldmia.w	sp!, {r4, r5, lr}
 80030a6:	b004      	add	sp, #16
 80030a8:	4770      	bx	lr
 80030aa:	bf00      	nop
 80030ac:	40020000 	.word	0x40020000
 80030b0:	20000228 	.word	0x20000228

080030b4 <HAL_MspInit>:
 80030b4:	b082      	sub	sp, #8
 80030b6:	4b0c      	ldr	r3, [pc, #48]	; (80030e8 <HAL_MspInit+0x34>)
 80030b8:	2100      	movs	r1, #0
 80030ba:	9100      	str	r1, [sp, #0]
 80030bc:	6c5a      	ldr	r2, [r3, #68]	; 0x44
 80030be:	f442 4280 	orr.w	r2, r2, #16384	; 0x4000
 80030c2:	645a      	str	r2, [r3, #68]	; 0x44
 80030c4:	6c5a      	ldr	r2, [r3, #68]	; 0x44
 80030c6:	f402 4280 	and.w	r2, r2, #16384	; 0x4000
 80030ca:	9200      	str	r2, [sp, #0]
 80030cc:	9a00      	ldr	r2, [sp, #0]
 80030ce:	9101      	str	r1, [sp, #4]
 80030d0:	6c1a      	ldr	r2, [r3, #64]	; 0x40
 80030d2:	f042 5280 	orr.w	r2, r2, #268435456	; 0x10000000
 80030d6:	641a      	str	r2, [r3, #64]	; 0x40
 80030d8:	6c1b      	ldr	r3, [r3, #64]	; 0x40
 80030da:	f003 5380 	and.w	r3, r3, #268435456	; 0x10000000
 80030de:	9301      	str	r3, [sp, #4]
 80030e0:	9b01      	ldr	r3, [sp, #4]
 80030e2:	b002      	add	sp, #8
 80030e4:	4770      	bx	lr
 80030e6:	bf00      	nop
 80030e8:	40023800 	.word	0x40023800

080030ec <HAL_SPI_MspInit>:
 80030ec:	b510      	push	{r4, lr}
 80030ee:	4604      	mov	r4, r0
 80030f0:	b088      	sub	sp, #32
 80030f2:	2214      	movs	r2, #20
 80030f4:	2100      	movs	r1, #0
 80030f6:	a803      	add	r0, sp, #12
 80030f8:	f000 f9e2 	bl	80034c0 <memset>
 80030fc:	6822      	ldr	r2, [r4, #0]
 80030fe:	4b14      	ldr	r3, [pc, #80]	; (8003150 <HAL_SPI_MspInit+0x64>)
 8003100:	429a      	cmp	r2, r3
 8003102:	d123      	bne.n	800314c <HAL_SPI_MspInit+0x60>
 8003104:	f503 3384 	add.w	r3, r3, #67584	; 0x10800
 8003108:	2200      	movs	r2, #0
 800310a:	9201      	str	r2, [sp, #4]
 800310c:	6c59      	ldr	r1, [r3, #68]	; 0x44
 800310e:	f441 5180 	orr.w	r1, r1, #4096	; 0x1000
 8003112:	6459      	str	r1, [r3, #68]	; 0x44
 8003114:	6c59      	ldr	r1, [r3, #68]	; 0x44
 8003116:	f401 5180 	and.w	r1, r1, #4096	; 0x1000
 800311a:	9101      	str	r1, [sp, #4]
 800311c:	9901      	ldr	r1, [sp, #4]
 800311e:	9202      	str	r2, [sp, #8]
 8003120:	6b19      	ldr	r1, [r3, #48]	; 0x30
 8003122:	f041 0101 	orr.w	r1, r1, #1
 8003126:	6319      	str	r1, [r3, #48]	; 0x30
 8003128:	6b1b      	ldr	r3, [r3, #48]	; 0x30
 800312a:	9205      	str	r2, [sp, #20]
 800312c:	f003 0301 	and.w	r3, r3, #1
 8003130:	9302      	str	r3, [sp, #8]
 8003132:	21e0      	movs	r1, #224	; 0xe0
 8003134:	9b02      	ldr	r3, [sp, #8]
 8003136:	2302      	movs	r3, #2
 8003138:	e9cd 1303 	strd	r1, r3, [sp, #12]
 800313c:	2003      	movs	r0, #3
 800313e:	2305      	movs	r3, #5
 8003140:	e9cd 0306 	strd	r0, r3, [sp, #24]
 8003144:	a903      	add	r1, sp, #12
 8003146:	4803      	ldr	r0, [pc, #12]	; (8003154 <HAL_SPI_MspInit+0x68>)
 8003148:	f7fe f87a 	bl	8001240 <HAL_GPIO_Init>
 800314c:	b008      	add	sp, #32
 800314e:	bd10      	pop	{r4, pc}
 8003150:	40013000 	.word	0x40013000
 8003154:	40020000 	.word	0x40020000

08003158 <HAL_TIM_PWM_MspInit>:
 8003158:	6803      	ldr	r3, [r0, #0]
 800315a:	f1b3 4f80 	cmp.w	r3, #1073741824	; 0x40000000
 800315e:	b082      	sub	sp, #8
 8003160:	d10b      	bne.n	800317a <HAL_TIM_PWM_MspInit+0x22>
 8003162:	2300      	movs	r3, #0
 8003164:	9301      	str	r3, [sp, #4]
 8003166:	4b06      	ldr	r3, [pc, #24]	; (8003180 <HAL_TIM_PWM_MspInit+0x28>)
 8003168:	6c1a      	ldr	r2, [r3, #64]	; 0x40
 800316a:	f042 0201 	orr.w	r2, r2, #1
 800316e:	641a      	str	r2, [r3, #64]	; 0x40
 8003170:	6c1b      	ldr	r3, [r3, #64]	; 0x40
 8003172:	f003 0301 	and.w	r3, r3, #1
 8003176:	9301      	str	r3, [sp, #4]
 8003178:	9b01      	ldr	r3, [sp, #4]
 800317a:	b002      	add	sp, #8
 800317c:	4770      	bx	lr
 800317e:	bf00      	nop
 8003180:	40023800 	.word	0x40023800

08003184 <HAL_TIM_MspPostInit>:
 8003184:	b510      	push	{r4, lr}
 8003186:	4604      	mov	r4, r0
 8003188:	b086      	sub	sp, #24
 800318a:	2214      	movs	r2, #20
 800318c:	2100      	movs	r1, #0
 800318e:	a801      	add	r0, sp, #4
 8003190:	f000 f996 	bl	80034c0 <memset>
 8003194:	6823      	ldr	r3, [r4, #0]
 8003196:	f1b3 4f80 	cmp.w	r3, #1073741824	; 0x40000000
 800319a:	d117      	bne.n	80031cc <HAL_TIM_MspPostInit+0x48>
 800319c:	4a0c      	ldr	r2, [pc, #48]	; (80031d0 <HAL_TIM_MspPostInit+0x4c>)
 800319e:	480d      	ldr	r0, [pc, #52]	; (80031d4 <HAL_TIM_MspPostInit+0x50>)
 80031a0:	2300      	movs	r3, #0
 80031a2:	9300      	str	r3, [sp, #0]
 80031a4:	6b11      	ldr	r1, [r2, #48]	; 0x30
 80031a6:	f041 0101 	orr.w	r1, r1, #1
 80031aa:	6311      	str	r1, [r2, #48]	; 0x30
 80031ac:	6b12      	ldr	r2, [r2, #48]	; 0x30
 80031ae:	f002 0201 	and.w	r2, r2, #1
 80031b2:	9200      	str	r2, [sp, #0]
 80031b4:	2106      	movs	r1, #6
 80031b6:	9a00      	ldr	r2, [sp, #0]
 80031b8:	2202      	movs	r2, #2
 80031ba:	e9cd 1201 	strd	r1, r2, [sp, #4]
 80031be:	e9cd 3303 	strd	r3, r3, [sp, #12]
 80031c2:	a901      	add	r1, sp, #4
 80031c4:	2301      	movs	r3, #1
 80031c6:	9305      	str	r3, [sp, #20]
 80031c8:	f7fe f83a 	bl	8001240 <HAL_GPIO_Init>
 80031cc:	b006      	add	sp, #24
 80031ce:	bd10      	pop	{r4, pc}
 80031d0:	40023800 	.word	0x40023800
 80031d4:	40020000 	.word	0x40020000

080031d8 <HAL_UART_MspInit>:
 80031d8:	b510      	push	{r4, lr}
 80031da:	4604      	mov	r4, r0
 80031dc:	b088      	sub	sp, #32
 80031de:	2214      	movs	r2, #20
 80031e0:	2100      	movs	r1, #0
 80031e2:	a803      	add	r0, sp, #12
 80031e4:	f000 f96c 	bl	80034c0 <memset>
 80031e8:	6822      	ldr	r2, [r4, #0]
 80031ea:	4b19      	ldr	r3, [pc, #100]	; (8003250 <HAL_UART_MspInit+0x78>)
 80031ec:	429a      	cmp	r2, r3
 80031ee:	d12c      	bne.n	800324a <HAL_UART_MspInit+0x72>
 80031f0:	f503 3394 	add.w	r3, r3, #75776	; 0x12800
 80031f4:	2400      	movs	r4, #0
 80031f6:	9401      	str	r4, [sp, #4]
 80031f8:	6c5a      	ldr	r2, [r3, #68]	; 0x44
 80031fa:	4816      	ldr	r0, [pc, #88]	; (8003254 <HAL_UART_MspInit+0x7c>)
 80031fc:	f042 0210 	orr.w	r2, r2, #16
 8003200:	645a      	str	r2, [r3, #68]	; 0x44
 8003202:	6c5a      	ldr	r2, [r3, #68]	; 0x44
 8003204:	f002 0210 	and.w	r2, r2, #16
 8003208:	9201      	str	r2, [sp, #4]
 800320a:	9a01      	ldr	r2, [sp, #4]
 800320c:	9402      	str	r4, [sp, #8]
 800320e:	6b1a      	ldr	r2, [r3, #48]	; 0x30
 8003210:	f042 0201 	orr.w	r2, r2, #1
 8003214:	631a      	str	r2, [r3, #48]	; 0x30
 8003216:	6b1b      	ldr	r3, [r3, #48]	; 0x30
 8003218:	9405      	str	r4, [sp, #20]
 800321a:	f003 0301 	and.w	r3, r3, #1
 800321e:	9302      	str	r3, [sp, #8]
 8003220:	f44f 62c0 	mov.w	r2, #1536	; 0x600
 8003224:	9b02      	ldr	r3, [sp, #8]
 8003226:	2302      	movs	r3, #2
 8003228:	e9cd 2303 	strd	r2, r3, [sp, #12]
 800322c:	2103      	movs	r1, #3
 800322e:	2307      	movs	r3, #7
 8003230:	e9cd 1306 	strd	r1, r3, [sp, #24]
 8003234:	a903      	add	r1, sp, #12
 8003236:	f7fe f803 	bl	8001240 <HAL_GPIO_Init>
 800323a:	2025      	movs	r0, #37	; 0x25
 800323c:	4622      	mov	r2, r4
 800323e:	4621      	mov	r1, r4
 8003240:	f7fd ff52 	bl	80010e8 <HAL_NVIC_SetPriority>
 8003244:	2025      	movs	r0, #37	; 0x25
 8003246:	f7fd ff81 	bl	800114c <HAL_NVIC_EnableIRQ>
 800324a:	b008      	add	sp, #32
 800324c:	bd10      	pop	{r4, pc}
 800324e:	bf00      	nop
 8003250:	40011000 	.word	0x40011000
 8003254:	40020000 	.word	0x40020000

08003258 <NMI_Handler>:
 8003258:	e7fe      	b.n	8003258 <NMI_Handler>

0800325a <HardFault_Handler>:
 800325a:	e7fe      	b.n	800325a <HardFault_Handler>

0800325c <MemManage_Handler>:
 800325c:	e7fe      	b.n	800325c <MemManage_Handler>

0800325e <BusFault_Handler>:
 800325e:	e7fe      	b.n	800325e <BusFault_Handler>

08003260 <UsageFault_Handler>:
 8003260:	e7fe      	b.n	8003260 <UsageFault_Handler>

08003262 <SVC_Handler>:
 8003262:	4770      	bx	lr

08003264 <DebugMon_Handler>:
 8003264:	4770      	bx	lr

08003266 <PendSV_Handler>:
 8003266:	4770      	bx	lr

08003268 <SysTick_Handler>:
 8003268:	f7fd bf06 	b.w	8001078 <HAL_IncTick>

0800326c <EXTI1_IRQHandler>:
 800326c:	2002      	movs	r0, #2
 800326e:	f7fe b8b5 	b.w	80013dc <HAL_GPIO_EXTI_IRQHandler>

08003272 <EXTI2_IRQHandler>:
 8003272:	2004      	movs	r0, #4
 8003274:	f7fe b8b2 	b.w	80013dc <HAL_GPIO_EXTI_IRQHandler>

08003278 <USART1_IRQHandler>:
 8003278:	4801      	ldr	r0, [pc, #4]	; (8003280 <USART1_IRQHandler+0x8>)
 800327a:	f7ff baad 	b.w	80027d8 <HAL_UART_IRQHandler>
 800327e:	bf00      	nop
 8003280:	20000228 	.word	0x20000228

08003284 <_getpid>:
 8003284:	2001      	movs	r0, #1
 8003286:	4770      	bx	lr

08003288 <_kill>:
 8003288:	b508      	push	{r3, lr}
 800328a:	f000 f8ef 	bl	800346c <__errno>
 800328e:	2316      	movs	r3, #22
 8003290:	6003      	str	r3, [r0, #0]
 8003292:	f04f 30ff 	mov.w	r0, #4294967295
 8003296:	bd08      	pop	{r3, pc}

08003298 <_exit>:
 8003298:	b508      	push	{r3, lr}
 800329a:	f000 f8e7 	bl	800346c <__errno>
 800329e:	2316      	movs	r3, #22
 80032a0:	6003      	str	r3, [r0, #0]
 80032a2:	e7fe      	b.n	80032a2 <_exit+0xa>

080032a4 <_read>:
 80032a4:	b570      	push	{r4, r5, r6, lr}
 80032a6:	460e      	mov	r6, r1
 80032a8:	4614      	mov	r4, r2
 80032aa:	2500      	movs	r5, #0
 80032ac:	42a5      	cmp	r5, r4
 80032ae:	db01      	blt.n	80032b4 <_read+0x10>
 80032b0:	4620      	mov	r0, r4
 80032b2:	bd70      	pop	{r4, r5, r6, pc}
 80032b4:	f3af 8000 	nop.w
 80032b8:	5570      	strb	r0, [r6, r5]
 80032ba:	3501      	adds	r5, #1
 80032bc:	e7f6      	b.n	80032ac <_read+0x8>

080032be <_write>:
 80032be:	b570      	push	{r4, r5, r6, lr}
 80032c0:	460e      	mov	r6, r1
 80032c2:	4614      	mov	r4, r2
 80032c4:	2500      	movs	r5, #0
 80032c6:	42a5      	cmp	r5, r4
 80032c8:	db01      	blt.n	80032ce <_write+0x10>
 80032ca:	4620      	mov	r0, r4
 80032cc:	bd70      	pop	{r4, r5, r6, pc}
 80032ce:	5d70      	ldrb	r0, [r6, r5]
 80032d0:	f3af 8000 	nop.w
 80032d4:	3501      	adds	r5, #1
 80032d6:	e7f6      	b.n	80032c6 <_write+0x8>

080032d8 <_close>:
 80032d8:	f04f 30ff 	mov.w	r0, #4294967295
 80032dc:	4770      	bx	lr

080032de <_fstat>:
 80032de:	f44f 5300 	mov.w	r3, #8192	; 0x2000
 80032e2:	604b      	str	r3, [r1, #4]
 80032e4:	2000      	movs	r0, #0
 80032e6:	4770      	bx	lr

080032e8 <_isatty>:
 80032e8:	2001      	movs	r0, #1
 80032ea:	4770      	bx	lr

080032ec <_lseek>:
 80032ec:	2000      	movs	r0, #0
 80032ee:	4770      	bx	lr

080032f0 <_sbrk>:
 80032f0:	4b0b      	ldr	r3, [pc, #44]	; (8003320 <_sbrk+0x30>)
 80032f2:	6819      	ldr	r1, [r3, #0]
 80032f4:	b510      	push	{r4, lr}
 80032f6:	4602      	mov	r2, r0
 80032f8:	b909      	cbnz	r1, 80032fe <_sbrk+0xe>
 80032fa:	490a      	ldr	r1, [pc, #40]	; (8003324 <_sbrk+0x34>)
 80032fc:	6019      	str	r1, [r3, #0]
 80032fe:	6818      	ldr	r0, [r3, #0]
 8003300:	4909      	ldr	r1, [pc, #36]	; (8003328 <_sbrk+0x38>)
 8003302:	4c0a      	ldr	r4, [pc, #40]	; (800332c <_sbrk+0x3c>)
 8003304:	4402      	add	r2, r0
 8003306:	1b09      	subs	r1, r1, r4
 8003308:	428a      	cmp	r2, r1
 800330a:	d906      	bls.n	800331a <_sbrk+0x2a>
 800330c:	f000 f8ae 	bl	800346c <__errno>
 8003310:	230c      	movs	r3, #12
 8003312:	6003      	str	r3, [r0, #0]
 8003314:	f04f 30ff 	mov.w	r0, #4294967295
 8003318:	bd10      	pop	{r4, pc}
 800331a:	601a      	str	r2, [r3, #0]
 800331c:	e7fc      	b.n	8003318 <_sbrk+0x28>
 800331e:	bf00      	nop
 8003320:	2000020c 	.word	0x2000020c
 8003324:	20000320 	.word	0x20000320
 8003328:	20010000 	.word	0x20010000
 800332c:	00004000 	.word	0x00004000

08003330 <SystemInit>:
 8003330:	4a03      	ldr	r2, [pc, #12]	; (8003340 <SystemInit+0x10>)
 8003332:	f8d2 3088 	ldr.w	r3, [r2, #136]	; 0x88
 8003336:	f443 0370 	orr.w	r3, r3, #15728640	; 0xf00000
 800333a:	f8c2 3088 	str.w	r3, [r2, #136]	; 0x88
 800333e:	4770      	bx	lr
 8003340:	e000ed00 	.word	0xe000ed00

08003344 <test_led>:
 8003344:	b510      	push	{r4, lr}
 8003346:	480a      	ldr	r0, [pc, #40]	; (8003370 <test_led+0x2c>)
 8003348:	f7ff fe80 	bl	800304c <print_UART>
 800334c:	4b09      	ldr	r3, [pc, #36]	; (8003374 <test_led+0x30>)
 800334e:	f04f 4480 	mov.w	r4, #1073741824	; 0x40000000
 8003352:	68db      	ldr	r3, [r3, #12]
 8003354:	63e3      	str	r3, [r4, #60]	; 0x3c
 8003356:	f44f 60fa 	mov.w	r0, #2000	; 0x7d0
 800335a:	f7fd fe9f 	bl	800109c <HAL_Delay>
 800335e:	2300      	movs	r3, #0
 8003360:	63e3      	str	r3, [r4, #60]	; 0x3c
 8003362:	f44f 60fa 	mov.w	r0, #2000	; 0x7d0
 8003366:	e8bd 4010 	ldmia.w	sp!, {r4, lr}
 800336a:	f7fd be97 	b.w	800109c <HAL_Delay>
 800336e:	bf00      	nop
 8003370:	08007f5c 	.word	0x08007f5c
 8003374:	200002c4 	.word	0x200002c4

08003378 <test_pwm>:
 8003378:	b5f8      	push	{r3, r4, r5, r6, r7, lr}
 800337a:	480f      	ldr	r0, [pc, #60]	; (80033b8 <test_pwm+0x40>)
 800337c:	4f0f      	ldr	r7, [pc, #60]	; (80033bc <test_pwm+0x44>)
 800337e:	f7ff fe65 	bl	800304c <print_UART>
 8003382:	2500      	movs	r5, #0
 8003384:	f04f 4680 	mov.w	r6, #1073741824	; 0x40000000
 8003388:	68fc      	ldr	r4, [r7, #12]
 800338a:	42ac      	cmp	r4, r5
 800338c:	d20d      	bcs.n	80033aa <test_pwm+0x32>
 800338e:	f04f 4580 	mov.w	r5, #1073741824	; 0x40000000
 8003392:	63ac      	str	r4, [r5, #56]	; 0x38
 8003394:	2006      	movs	r0, #6
 8003396:	63ec      	str	r4, [r5, #60]	; 0x3c
 8003398:	f7fd fe80 	bl	800109c <HAL_Delay>
 800339c:	3c01      	subs	r4, #1
 800339e:	d2f8      	bcs.n	8003392 <test_pwm+0x1a>
 80033a0:	e8bd 40f8 	ldmia.w	sp!, {r3, r4, r5, r6, r7, lr}
 80033a4:	200a      	movs	r0, #10
 80033a6:	f7fd be79 	b.w	800109c <HAL_Delay>
 80033aa:	63b5      	str	r5, [r6, #56]	; 0x38
 80033ac:	2006      	movs	r0, #6
 80033ae:	63f5      	str	r5, [r6, #60]	; 0x3c
 80033b0:	f7fd fe74 	bl	800109c <HAL_Delay>
 80033b4:	3501      	adds	r5, #1
 80033b6:	e7e7      	b.n	8003388 <test_pwm+0x10>
 80033b8:	08007f82 	.word	0x08007f82
 80033bc:	200002c4 	.word	0x200002c4

080033c0 <test_rs485>:
 80033c0:	b51f      	push	{r0, r1, r2, r3, r4, lr}
 80033c2:	480e      	ldr	r0, [pc, #56]	; (80033fc <test_rs485+0x3c>)
 80033c4:	f7ff fe42 	bl	800304c <print_UART>
 80033c8:	480d      	ldr	r0, [pc, #52]	; (8003400 <test_rs485+0x40>)
 80033ca:	f7ff fe3f 	bl	800304c <print_UART>
 80033ce:	480d      	ldr	r0, [pc, #52]	; (8003404 <test_rs485+0x44>)
 80033d0:	f242 7310 	movw	r3, #10000	; 0x2710
 80033d4:	2203      	movs	r2, #3
 80033d6:	a901      	add	r1, sp, #4
 80033d8:	f7ff f939 	bl	800264e <HAL_UART_Receive>
 80033dc:	b960      	cbnz	r0, 80033f8 <test_rs485+0x38>
 80033de:	490a      	ldr	r1, [pc, #40]	; (8003408 <test_rs485+0x48>)
 80033e0:	a801      	add	r0, sp, #4
 80033e2:	f000 ff15 	bl	8004210 <strstr>
 80033e6:	b128      	cbz	r0, 80033f4 <test_rs485+0x34>
 80033e8:	4808      	ldr	r0, [pc, #32]	; (800340c <test_rs485+0x4c>)
 80033ea:	f7ff fe2f 	bl	800304c <print_UART>
 80033ee:	b005      	add	sp, #20
 80033f0:	f85d fb04 	ldr.w	pc, [sp], #4
 80033f4:	4806      	ldr	r0, [pc, #24]	; (8003410 <test_rs485+0x50>)
 80033f6:	e7f8      	b.n	80033ea <test_rs485+0x2a>
 80033f8:	4806      	ldr	r0, [pc, #24]	; (8003414 <test_rs485+0x54>)
 80033fa:	e7f6      	b.n	80033ea <test_rs485+0x2a>
 80033fc:	08007fa4 	.word	0x08007fa4
 8003400:	08007fcc 	.word	0x08007fcc
 8003404:	20000228 	.word	0x20000228
 8003408:	08008007 	.word	0x08008007
 800340c:	0800800b 	.word	0x0800800b
 8003410:	08008034 	.word	0x08008034
 8003414:	08008065 	.word	0x08008065

08003418 <Reset_Handler>:
 8003418:	f8df d034 	ldr.w	sp, [pc, #52]	; 8003450 <LoopFillZerobss+0x12>
 800341c:	480d      	ldr	r0, [pc, #52]	; (8003454 <LoopFillZerobss+0x16>)
 800341e:	490e      	ldr	r1, [pc, #56]	; (8003458 <LoopFillZerobss+0x1a>)
 8003420:	4a0e      	ldr	r2, [pc, #56]	; (800345c <LoopFillZerobss+0x1e>)
 8003422:	2300      	movs	r3, #0
 8003424:	e002      	b.n	800342c <LoopCopyDataInit>

08003426 <CopyDataInit>:
 8003426:	58d4      	ldr	r4, [r2, r3]
 8003428:	50c4      	str	r4, [r0, r3]
 800342a:	3304      	adds	r3, #4

0800342c <LoopCopyDataInit>:
 800342c:	18c4      	adds	r4, r0, r3
 800342e:	428c      	cmp	r4, r1
 8003430:	d3f9      	bcc.n	8003426 <CopyDataInit>
 8003432:	4a0b      	ldr	r2, [pc, #44]	; (8003460 <LoopFillZerobss+0x22>)
 8003434:	4c0b      	ldr	r4, [pc, #44]	; (8003464 <LoopFillZerobss+0x26>)
 8003436:	2300      	movs	r3, #0
 8003438:	e001      	b.n	800343e <LoopFillZerobss>

0800343a <FillZerobss>:
 800343a:	6013      	str	r3, [r2, #0]
 800343c:	3204      	adds	r2, #4

0800343e <LoopFillZerobss>:
 800343e:	42a2      	cmp	r2, r4
 8003440:	d3fb      	bcc.n	800343a <FillZerobss>
 8003442:	f7ff ff75 	bl	8003330 <SystemInit>
 8003446:	f000 f817 	bl	8003478 <__libc_init_array>
 800344a:	f7ff fd25 	bl	8002e98 <main>
 800344e:	4770      	bx	lr
 8003450:	20010000 	.word	0x20010000
 8003454:	20000000 	.word	0x20000000
 8003458:	200001e0 	.word	0x200001e0
 800345c:	0800854c 	.word	0x0800854c
 8003460:	200001e0 	.word	0x200001e0
 8003464:	2000031c 	.word	0x2000031c

08003468 <ADC_IRQHandler>:
 8003468:	e7fe      	b.n	8003468 <ADC_IRQHandler>
	...

0800346c <__errno>:
 800346c:	4b01      	ldr	r3, [pc, #4]	; (8003474 <__errno+0x8>)
 800346e:	6818      	ldr	r0, [r3, #0]
 8003470:	4770      	bx	lr
 8003472:	bf00      	nop
 8003474:	2000000c 	.word	0x2000000c

08003478 <__libc_init_array>:
 8003478:	b570      	push	{r4, r5, r6, lr}
 800347a:	4d0d      	ldr	r5, [pc, #52]	; (80034b0 <__libc_init_array+0x38>)
 800347c:	4c0d      	ldr	r4, [pc, #52]	; (80034b4 <__libc_init_array+0x3c>)
 800347e:	1b64      	subs	r4, r4, r5
 8003480:	10a4      	asrs	r4, r4, #2
 8003482:	2600      	movs	r6, #0
 8003484:	42a6      	cmp	r6, r4
 8003486:	d109      	bne.n	800349c <__libc_init_array+0x24>
 8003488:	4d0b      	ldr	r5, [pc, #44]	; (80034b8 <__libc_init_array+0x40>)
 800348a:	4c0c      	ldr	r4, [pc, #48]	; (80034bc <__libc_init_array+0x44>)
 800348c:	f004 fc7c 	bl	8007d88 <_init>
 8003490:	1b64      	subs	r4, r4, r5
 8003492:	10a4      	asrs	r4, r4, #2
 8003494:	2600      	movs	r6, #0
 8003496:	42a6      	cmp	r6, r4
 8003498:	d105      	bne.n	80034a6 <__libc_init_array+0x2e>
 800349a:	bd70      	pop	{r4, r5, r6, pc}
 800349c:	f855 3b04 	ldr.w	r3, [r5], #4
 80034a0:	4798      	blx	r3
 80034a2:	3601      	adds	r6, #1
 80034a4:	e7ee      	b.n	8003484 <__libc_init_array+0xc>
 80034a6:	f855 3b04 	ldr.w	r3, [r5], #4
 80034aa:	4798      	blx	r3
 80034ac:	3601      	adds	r6, #1
 80034ae:	e7f2      	b.n	8003496 <__libc_init_array+0x1e>
 80034b0:	08008544 	.word	0x08008544
 80034b4:	08008544 	.word	0x08008544
 80034b8:	08008544 	.word	0x08008544
 80034bc:	08008548 	.word	0x08008548

080034c0 <memset>:
 80034c0:	4402      	add	r2, r0
 80034c2:	4603      	mov	r3, r0
 80034c4:	4293      	cmp	r3, r2
 80034c6:	d100      	bne.n	80034ca <memset+0xa>
 80034c8:	4770      	bx	lr
 80034ca:	f803 1b01 	strb.w	r1, [r3], #1
 80034ce:	e7f9      	b.n	80034c4 <memset+0x4>

080034d0 <__cvt>:
 80034d0:	e92d 47ff 	stmdb	sp!, {r0, r1, r2, r3, r4, r5, r6, r7, r8, r9, sl, lr}
 80034d4:	ec55 4b10 	vmov	r4, r5, d0
 80034d8:	2d00      	cmp	r5, #0
 80034da:	460e      	mov	r6, r1
 80034dc:	4619      	mov	r1, r3
 80034de:	462b      	mov	r3, r5
 80034e0:	bfbb      	ittet	lt
 80034e2:	f105 4300 	addlt.w	r3, r5, #2147483648	; 0x80000000
 80034e6:	461d      	movlt	r5, r3
 80034e8:	2300      	movge	r3, #0
 80034ea:	232d      	movlt	r3, #45	; 0x2d
 80034ec:	700b      	strb	r3, [r1, #0]
 80034ee:	9b0d      	ldr	r3, [sp, #52]	; 0x34
 80034f0:	f8dd a030 	ldr.w	sl, [sp, #48]	; 0x30
 80034f4:	4691      	mov	r9, r2
 80034f6:	f023 0820 	bic.w	r8, r3, #32
 80034fa:	bfbc      	itt	lt
 80034fc:	4622      	movlt	r2, r4
 80034fe:	4614      	movlt	r4, r2
 8003500:	f1b8 0f46 	cmp.w	r8, #70	; 0x46
 8003504:	d005      	beq.n	8003512 <__cvt+0x42>
 8003506:	f1b8 0f45 	cmp.w	r8, #69	; 0x45
 800350a:	d100      	bne.n	800350e <__cvt+0x3e>
 800350c:	3601      	adds	r6, #1
 800350e:	2102      	movs	r1, #2
 8003510:	e000      	b.n	8003514 <__cvt+0x44>
 8003512:	2103      	movs	r1, #3
 8003514:	ab03      	add	r3, sp, #12
 8003516:	9301      	str	r3, [sp, #4]
 8003518:	ab02      	add	r3, sp, #8
 800351a:	9300      	str	r3, [sp, #0]
 800351c:	ec45 4b10 	vmov	d0, r4, r5
 8003520:	4653      	mov	r3, sl
 8003522:	4632      	mov	r2, r6
 8003524:	f001 fdec 	bl	8005100 <_dtoa_r>
 8003528:	f1b8 0f47 	cmp.w	r8, #71	; 0x47
 800352c:	4607      	mov	r7, r0
 800352e:	d102      	bne.n	8003536 <__cvt+0x66>
 8003530:	f019 0f01 	tst.w	r9, #1
 8003534:	d022      	beq.n	800357c <__cvt+0xac>
 8003536:	f1b8 0f46 	cmp.w	r8, #70	; 0x46
 800353a:	eb07 0906 	add.w	r9, r7, r6
 800353e:	d110      	bne.n	8003562 <__cvt+0x92>
 8003540:	783b      	ldrb	r3, [r7, #0]
 8003542:	2b30      	cmp	r3, #48	; 0x30
 8003544:	d10a      	bne.n	800355c <__cvt+0x8c>
 8003546:	2200      	movs	r2, #0
 8003548:	2300      	movs	r3, #0
 800354a:	4620      	mov	r0, r4
 800354c:	4629      	mov	r1, r5
 800354e:	f7fd fac3 	bl	8000ad8 <__aeabi_dcmpeq>
 8003552:	b918      	cbnz	r0, 800355c <__cvt+0x8c>
 8003554:	f1c6 0601 	rsb	r6, r6, #1
 8003558:	f8ca 6000 	str.w	r6, [sl]
 800355c:	f8da 3000 	ldr.w	r3, [sl]
 8003560:	4499      	add	r9, r3
 8003562:	2200      	movs	r2, #0
 8003564:	2300      	movs	r3, #0
 8003566:	4620      	mov	r0, r4
 8003568:	4629      	mov	r1, r5
 800356a:	f7fd fab5 	bl	8000ad8 <__aeabi_dcmpeq>
 800356e:	b108      	cbz	r0, 8003574 <__cvt+0xa4>
 8003570:	f8cd 900c 	str.w	r9, [sp, #12]
 8003574:	2230      	movs	r2, #48	; 0x30
 8003576:	9b03      	ldr	r3, [sp, #12]
 8003578:	454b      	cmp	r3, r9
 800357a:	d307      	bcc.n	800358c <__cvt+0xbc>
 800357c:	9b03      	ldr	r3, [sp, #12]
 800357e:	9a0e      	ldr	r2, [sp, #56]	; 0x38
 8003580:	1bdb      	subs	r3, r3, r7
 8003582:	4638      	mov	r0, r7
 8003584:	6013      	str	r3, [r2, #0]
 8003586:	b004      	add	sp, #16
 8003588:	e8bd 87f0 	ldmia.w	sp!, {r4, r5, r6, r7, r8, r9, sl, pc}
 800358c:	1c59      	adds	r1, r3, #1
 800358e:	9103      	str	r1, [sp, #12]
 8003590:	701a      	strb	r2, [r3, #0]
 8003592:	e7f0      	b.n	8003576 <__cvt+0xa6>

08003594 <__exponent>:
 8003594:	b5f7      	push	{r0, r1, r2, r4, r5, r6, r7, lr}
 8003596:	4603      	mov	r3, r0
 8003598:	2900      	cmp	r1, #0
 800359a:	bfb8      	it	lt
 800359c:	4249      	neglt	r1, r1
 800359e:	f803 2b02 	strb.w	r2, [r3], #2
 80035a2:	bfb4      	ite	lt
 80035a4:	222d      	movlt	r2, #45	; 0x2d
 80035a6:	222b      	movge	r2, #43	; 0x2b
 80035a8:	2909      	cmp	r1, #9
 80035aa:	7042      	strb	r2, [r0, #1]
 80035ac:	dd2a      	ble.n	8003604 <__exponent+0x70>
 80035ae:	f10d 0407 	add.w	r4, sp, #7
 80035b2:	46a4      	mov	ip, r4
 80035b4:	270a      	movs	r7, #10
 80035b6:	46a6      	mov	lr, r4
 80035b8:	460a      	mov	r2, r1
 80035ba:	fb91 f6f7 	sdiv	r6, r1, r7
 80035be:	fb07 1516 	mls	r5, r7, r6, r1
 80035c2:	3530      	adds	r5, #48	; 0x30
 80035c4:	2a63      	cmp	r2, #99	; 0x63
 80035c6:	f104 34ff 	add.w	r4, r4, #4294967295
 80035ca:	f80e 5c01 	strb.w	r5, [lr, #-1]
 80035ce:	4631      	mov	r1, r6
 80035d0:	dcf1      	bgt.n	80035b6 <__exponent+0x22>
 80035d2:	3130      	adds	r1, #48	; 0x30
 80035d4:	f1ae 0502 	sub.w	r5, lr, #2
 80035d8:	f804 1c01 	strb.w	r1, [r4, #-1]
 80035dc:	1c44      	adds	r4, r0, #1
 80035de:	4629      	mov	r1, r5
 80035e0:	4561      	cmp	r1, ip
 80035e2:	d30a      	bcc.n	80035fa <__exponent+0x66>
 80035e4:	f10d 0209 	add.w	r2, sp, #9
 80035e8:	eba2 020e 	sub.w	r2, r2, lr
 80035ec:	4565      	cmp	r5, ip
 80035ee:	bf88      	it	hi
 80035f0:	2200      	movhi	r2, #0
 80035f2:	4413      	add	r3, r2
 80035f4:	1a18      	subs	r0, r3, r0
 80035f6:	b003      	add	sp, #12
 80035f8:	bdf0      	pop	{r4, r5, r6, r7, pc}
 80035fa:	f811 2b01 	ldrb.w	r2, [r1], #1
 80035fe:	f804 2f01 	strb.w	r2, [r4, #1]!
 8003602:	e7ed      	b.n	80035e0 <__exponent+0x4c>
 8003604:	2330      	movs	r3, #48	; 0x30
 8003606:	3130      	adds	r1, #48	; 0x30
 8003608:	7083      	strb	r3, [r0, #2]
 800360a:	70c1      	strb	r1, [r0, #3]
 800360c:	1d03      	adds	r3, r0, #4
 800360e:	e7f1      	b.n	80035f4 <__exponent+0x60>

08003610 <_printf_float>:
 8003610:	e92d 4ff0 	stmdb	sp!, {r4, r5, r6, r7, r8, r9, sl, fp, lr}
 8003614:	ed2d 8b02 	vpush	{d8}
 8003618:	b08d      	sub	sp, #52	; 0x34
 800361a:	460c      	mov	r4, r1
 800361c:	f8dd 8060 	ldr.w	r8, [sp, #96]	; 0x60
 8003620:	4616      	mov	r6, r2
 8003622:	461f      	mov	r7, r3
 8003624:	4605      	mov	r5, r0
 8003626:	f002 fec7 	bl	80063b8 <_localeconv_r>
 800362a:	f8d0 a000 	ldr.w	sl, [r0]
 800362e:	4650      	mov	r0, sl
 8003630:	f7fc fdd6 	bl	80001e0 <strlen>
 8003634:	2300      	movs	r3, #0
 8003636:	930a      	str	r3, [sp, #40]	; 0x28
 8003638:	6823      	ldr	r3, [r4, #0]
 800363a:	9305      	str	r3, [sp, #20]
 800363c:	f8d8 3000 	ldr.w	r3, [r8]
 8003640:	f894 b018 	ldrb.w	fp, [r4, #24]
 8003644:	3307      	adds	r3, #7
 8003646:	f023 0307 	bic.w	r3, r3, #7
 800364a:	f103 0208 	add.w	r2, r3, #8
 800364e:	f8c8 2000 	str.w	r2, [r8]
 8003652:	e9d3 2300 	ldrd	r2, r3, [r3]
 8003656:	e9c4 2312 	strd	r2, r3, [r4, #72]	; 0x48
 800365a:	e9d4 8912 	ldrd	r8, r9, [r4, #72]	; 0x48
 800365e:	f029 4300 	bic.w	r3, r9, #2147483648	; 0x80000000
 8003662:	9307      	str	r3, [sp, #28]
 8003664:	f8cd 8018 	str.w	r8, [sp, #24]
 8003668:	ee08 0a10 	vmov	s16, r0
 800366c:	4b9f      	ldr	r3, [pc, #636]	; (80038ec <_printf_float+0x2dc>)
 800366e:	e9dd 0106 	ldrd	r0, r1, [sp, #24]
 8003672:	f04f 32ff 	mov.w	r2, #4294967295
 8003676:	f7fd fa61 	bl	8000b3c <__aeabi_dcmpun>
 800367a:	bb88      	cbnz	r0, 80036e0 <_printf_float+0xd0>
 800367c:	e9dd 0106 	ldrd	r0, r1, [sp, #24]
 8003680:	4b9a      	ldr	r3, [pc, #616]	; (80038ec <_printf_float+0x2dc>)
 8003682:	f04f 32ff 	mov.w	r2, #4294967295
 8003686:	f7fd fa3b 	bl	8000b00 <__aeabi_dcmple>
 800368a:	bb48      	cbnz	r0, 80036e0 <_printf_float+0xd0>
 800368c:	2200      	movs	r2, #0
 800368e:	2300      	movs	r3, #0
 8003690:	4640      	mov	r0, r8
 8003692:	4649      	mov	r1, r9
 8003694:	f7fd fa2a 	bl	8000aec <__aeabi_dcmplt>
 8003698:	b110      	cbz	r0, 80036a0 <_printf_float+0x90>
 800369a:	232d      	movs	r3, #45	; 0x2d
 800369c:	f884 3043 	strb.w	r3, [r4, #67]	; 0x43
 80036a0:	4b93      	ldr	r3, [pc, #588]	; (80038f0 <_printf_float+0x2e0>)
 80036a2:	4894      	ldr	r0, [pc, #592]	; (80038f4 <_printf_float+0x2e4>)
 80036a4:	f1bb 0f47 	cmp.w	fp, #71	; 0x47
 80036a8:	bf94      	ite	ls
 80036aa:	4698      	movls	r8, r3
 80036ac:	4680      	movhi	r8, r0
 80036ae:	2303      	movs	r3, #3
 80036b0:	6123      	str	r3, [r4, #16]
 80036b2:	9b05      	ldr	r3, [sp, #20]
 80036b4:	f023 0204 	bic.w	r2, r3, #4
 80036b8:	6022      	str	r2, [r4, #0]
 80036ba:	f04f 0900 	mov.w	r9, #0
 80036be:	9700      	str	r7, [sp, #0]
 80036c0:	4633      	mov	r3, r6
 80036c2:	aa0b      	add	r2, sp, #44	; 0x2c
 80036c4:	4621      	mov	r1, r4
 80036c6:	4628      	mov	r0, r5
 80036c8:	f000 f9d8 	bl	8003a7c <_printf_common>
 80036cc:	3001      	adds	r0, #1
 80036ce:	f040 8090 	bne.w	80037f2 <_printf_float+0x1e2>
 80036d2:	f04f 30ff 	mov.w	r0, #4294967295
 80036d6:	b00d      	add	sp, #52	; 0x34
 80036d8:	ecbd 8b02 	vpop	{d8}
 80036dc:	e8bd 8ff0 	ldmia.w	sp!, {r4, r5, r6, r7, r8, r9, sl, fp, pc}
 80036e0:	4642      	mov	r2, r8
 80036e2:	464b      	mov	r3, r9
 80036e4:	4640      	mov	r0, r8
 80036e6:	4649      	mov	r1, r9
 80036e8:	f7fd fa28 	bl	8000b3c <__aeabi_dcmpun>
 80036ec:	b140      	cbz	r0, 8003700 <_printf_float+0xf0>
 80036ee:	464b      	mov	r3, r9
 80036f0:	2b00      	cmp	r3, #0
 80036f2:	bfbc      	itt	lt
 80036f4:	232d      	movlt	r3, #45	; 0x2d
 80036f6:	f884 3043 	strblt.w	r3, [r4, #67]	; 0x43
 80036fa:	487f      	ldr	r0, [pc, #508]	; (80038f8 <_printf_float+0x2e8>)
 80036fc:	4b7f      	ldr	r3, [pc, #508]	; (80038fc <_printf_float+0x2ec>)
 80036fe:	e7d1      	b.n	80036a4 <_printf_float+0x94>
 8003700:	6863      	ldr	r3, [r4, #4]
 8003702:	f00b 02df 	and.w	r2, fp, #223	; 0xdf
 8003706:	9206      	str	r2, [sp, #24]
 8003708:	1c5a      	adds	r2, r3, #1
 800370a:	d13f      	bne.n	800378c <_printf_float+0x17c>
 800370c:	2306      	movs	r3, #6
 800370e:	6063      	str	r3, [r4, #4]
 8003710:	9b05      	ldr	r3, [sp, #20]
 8003712:	6861      	ldr	r1, [r4, #4]
 8003714:	f443 6280 	orr.w	r2, r3, #1024	; 0x400
 8003718:	2300      	movs	r3, #0
 800371a:	9303      	str	r3, [sp, #12]
 800371c:	ab0a      	add	r3, sp, #40	; 0x28
 800371e:	e9cd b301 	strd	fp, r3, [sp, #4]
 8003722:	ab09      	add	r3, sp, #36	; 0x24
 8003724:	ec49 8b10 	vmov	d0, r8, r9
 8003728:	9300      	str	r3, [sp, #0]
 800372a:	6022      	str	r2, [r4, #0]
 800372c:	f10d 0323 	add.w	r3, sp, #35	; 0x23
 8003730:	4628      	mov	r0, r5
 8003732:	f7ff fecd 	bl	80034d0 <__cvt>
 8003736:	9b06      	ldr	r3, [sp, #24]
 8003738:	9909      	ldr	r1, [sp, #36]	; 0x24
 800373a:	2b47      	cmp	r3, #71	; 0x47
 800373c:	4680      	mov	r8, r0
 800373e:	d108      	bne.n	8003752 <_printf_float+0x142>
 8003740:	1cc8      	adds	r0, r1, #3
 8003742:	db02      	blt.n	800374a <_printf_float+0x13a>
 8003744:	6863      	ldr	r3, [r4, #4]
 8003746:	4299      	cmp	r1, r3
 8003748:	dd41      	ble.n	80037ce <_printf_float+0x1be>
 800374a:	f1ab 0b02 	sub.w	fp, fp, #2
 800374e:	fa5f fb8b 	uxtb.w	fp, fp
 8003752:	f1bb 0f65 	cmp.w	fp, #101	; 0x65
 8003756:	d820      	bhi.n	800379a <_printf_float+0x18a>
 8003758:	3901      	subs	r1, #1
 800375a:	465a      	mov	r2, fp
 800375c:	f104 0050 	add.w	r0, r4, #80	; 0x50
 8003760:	9109      	str	r1, [sp, #36]	; 0x24
 8003762:	f7ff ff17 	bl	8003594 <__exponent>
 8003766:	9a0a      	ldr	r2, [sp, #40]	; 0x28
 8003768:	1813      	adds	r3, r2, r0
 800376a:	2a01      	cmp	r2, #1
 800376c:	4681      	mov	r9, r0
 800376e:	6123      	str	r3, [r4, #16]
 8003770:	dc02      	bgt.n	8003778 <_printf_float+0x168>
 8003772:	6822      	ldr	r2, [r4, #0]
 8003774:	07d2      	lsls	r2, r2, #31
 8003776:	d501      	bpl.n	800377c <_printf_float+0x16c>
 8003778:	3301      	adds	r3, #1
 800377a:	6123      	str	r3, [r4, #16]
 800377c:	f89d 3023 	ldrb.w	r3, [sp, #35]	; 0x23
 8003780:	2b00      	cmp	r3, #0
 8003782:	d09c      	beq.n	80036be <_printf_float+0xae>
 8003784:	232d      	movs	r3, #45	; 0x2d
 8003786:	f884 3043 	strb.w	r3, [r4, #67]	; 0x43
 800378a:	e798      	b.n	80036be <_printf_float+0xae>
 800378c:	9a06      	ldr	r2, [sp, #24]
 800378e:	2a47      	cmp	r2, #71	; 0x47
 8003790:	d1be      	bne.n	8003710 <_printf_float+0x100>
 8003792:	2b00      	cmp	r3, #0
 8003794:	d1bc      	bne.n	8003710 <_printf_float+0x100>
 8003796:	2301      	movs	r3, #1
 8003798:	e7b9      	b.n	800370e <_printf_float+0xfe>
 800379a:	f1bb 0f66 	cmp.w	fp, #102	; 0x66
 800379e:	d118      	bne.n	80037d2 <_printf_float+0x1c2>
 80037a0:	2900      	cmp	r1, #0
 80037a2:	6863      	ldr	r3, [r4, #4]
 80037a4:	dd0b      	ble.n	80037be <_printf_float+0x1ae>
 80037a6:	6121      	str	r1, [r4, #16]
 80037a8:	b913      	cbnz	r3, 80037b0 <_printf_float+0x1a0>
 80037aa:	6822      	ldr	r2, [r4, #0]
 80037ac:	07d0      	lsls	r0, r2, #31
 80037ae:	d502      	bpl.n	80037b6 <_printf_float+0x1a6>
 80037b0:	3301      	adds	r3, #1
 80037b2:	440b      	add	r3, r1
 80037b4:	6123      	str	r3, [r4, #16]
 80037b6:	65a1      	str	r1, [r4, #88]	; 0x58
 80037b8:	f04f 0900 	mov.w	r9, #0
 80037bc:	e7de      	b.n	800377c <_printf_float+0x16c>
 80037be:	b913      	cbnz	r3, 80037c6 <_printf_float+0x1b6>
 80037c0:	6822      	ldr	r2, [r4, #0]
 80037c2:	07d2      	lsls	r2, r2, #31
 80037c4:	d501      	bpl.n	80037ca <_printf_float+0x1ba>
 80037c6:	3302      	adds	r3, #2
 80037c8:	e7f4      	b.n	80037b4 <_printf_float+0x1a4>
 80037ca:	2301      	movs	r3, #1
 80037cc:	e7f2      	b.n	80037b4 <_printf_float+0x1a4>
 80037ce:	f04f 0b67 	mov.w	fp, #103	; 0x67
 80037d2:	9b0a      	ldr	r3, [sp, #40]	; 0x28
 80037d4:	4299      	cmp	r1, r3
 80037d6:	db05      	blt.n	80037e4 <_printf_float+0x1d4>
 80037d8:	6823      	ldr	r3, [r4, #0]
 80037da:	6121      	str	r1, [r4, #16]
 80037dc:	07d8      	lsls	r0, r3, #31
 80037de:	d5ea      	bpl.n	80037b6 <_printf_float+0x1a6>
 80037e0:	1c4b      	adds	r3, r1, #1
 80037e2:	e7e7      	b.n	80037b4 <_printf_float+0x1a4>
 80037e4:	2900      	cmp	r1, #0
 80037e6:	bfd4      	ite	le
 80037e8:	f1c1 0202 	rsble	r2, r1, #2
 80037ec:	2201      	movgt	r2, #1
 80037ee:	4413      	add	r3, r2
 80037f0:	e7e0      	b.n	80037b4 <_printf_float+0x1a4>
 80037f2:	6823      	ldr	r3, [r4, #0]
 80037f4:	055a      	lsls	r2, r3, #21
 80037f6:	d407      	bmi.n	8003808 <_printf_float+0x1f8>
 80037f8:	6923      	ldr	r3, [r4, #16]
 80037fa:	4642      	mov	r2, r8
 80037fc:	4631      	mov	r1, r6
 80037fe:	4628      	mov	r0, r5
 8003800:	47b8      	blx	r7
 8003802:	3001      	adds	r0, #1
 8003804:	d12c      	bne.n	8003860 <_printf_float+0x250>
 8003806:	e764      	b.n	80036d2 <_printf_float+0xc2>
 8003808:	f1bb 0f65 	cmp.w	fp, #101	; 0x65
 800380c:	f240 80e0 	bls.w	80039d0 <_printf_float+0x3c0>
 8003810:	e9d4 0112 	ldrd	r0, r1, [r4, #72]	; 0x48
 8003814:	2200      	movs	r2, #0
 8003816:	2300      	movs	r3, #0
 8003818:	f7fd f95e 	bl	8000ad8 <__aeabi_dcmpeq>
 800381c:	2800      	cmp	r0, #0
 800381e:	d034      	beq.n	800388a <_printf_float+0x27a>
 8003820:	4a37      	ldr	r2, [pc, #220]	; (8003900 <_printf_float+0x2f0>)
 8003822:	2301      	movs	r3, #1
 8003824:	4631      	mov	r1, r6
 8003826:	4628      	mov	r0, r5
 8003828:	47b8      	blx	r7
 800382a:	3001      	adds	r0, #1
 800382c:	f43f af51 	beq.w	80036d2 <_printf_float+0xc2>
 8003830:	e9dd 2309 	ldrd	r2, r3, [sp, #36]	; 0x24
 8003834:	429a      	cmp	r2, r3
 8003836:	db02      	blt.n	800383e <_printf_float+0x22e>
 8003838:	6823      	ldr	r3, [r4, #0]
 800383a:	07d8      	lsls	r0, r3, #31
 800383c:	d510      	bpl.n	8003860 <_printf_float+0x250>
 800383e:	ee18 3a10 	vmov	r3, s16
 8003842:	4652      	mov	r2, sl
 8003844:	4631      	mov	r1, r6
 8003846:	4628      	mov	r0, r5
 8003848:	47b8      	blx	r7
 800384a:	3001      	adds	r0, #1
 800384c:	f43f af41 	beq.w	80036d2 <_printf_float+0xc2>
 8003850:	f04f 0800 	mov.w	r8, #0
 8003854:	f104 091a 	add.w	r9, r4, #26
 8003858:	9b0a      	ldr	r3, [sp, #40]	; 0x28
 800385a:	3b01      	subs	r3, #1
 800385c:	4543      	cmp	r3, r8
 800385e:	dc09      	bgt.n	8003874 <_printf_float+0x264>
 8003860:	6823      	ldr	r3, [r4, #0]
 8003862:	079b      	lsls	r3, r3, #30
 8003864:	f100 8105 	bmi.w	8003a72 <_printf_float+0x462>
 8003868:	68e0      	ldr	r0, [r4, #12]
 800386a:	9b0b      	ldr	r3, [sp, #44]	; 0x2c
 800386c:	4298      	cmp	r0, r3
 800386e:	bfb8      	it	lt
 8003870:	4618      	movlt	r0, r3
 8003872:	e730      	b.n	80036d6 <_printf_float+0xc6>
 8003874:	2301      	movs	r3, #1
 8003876:	464a      	mov	r2, r9
 8003878:	4631      	mov	r1, r6
 800387a:	4628      	mov	r0, r5
 800387c:	47b8      	blx	r7
 800387e:	3001      	adds	r0, #1
 8003880:	f43f af27 	beq.w	80036d2 <_printf_float+0xc2>
 8003884:	f108 0801 	add.w	r8, r8, #1
 8003888:	e7e6      	b.n	8003858 <_printf_float+0x248>
 800388a:	9b09      	ldr	r3, [sp, #36]	; 0x24
 800388c:	2b00      	cmp	r3, #0
 800388e:	dc39      	bgt.n	8003904 <_printf_float+0x2f4>
 8003890:	4a1b      	ldr	r2, [pc, #108]	; (8003900 <_printf_float+0x2f0>)
 8003892:	2301      	movs	r3, #1
 8003894:	4631      	mov	r1, r6
 8003896:	4628      	mov	r0, r5
 8003898:	47b8      	blx	r7
 800389a:	3001      	adds	r0, #1
 800389c:	f43f af19 	beq.w	80036d2 <_printf_float+0xc2>
 80038a0:	e9dd 2309 	ldrd	r2, r3, [sp, #36]	; 0x24
 80038a4:	4313      	orrs	r3, r2
 80038a6:	d102      	bne.n	80038ae <_printf_float+0x29e>
 80038a8:	6823      	ldr	r3, [r4, #0]
 80038aa:	07d9      	lsls	r1, r3, #31
 80038ac:	d5d8      	bpl.n	8003860 <_printf_float+0x250>
 80038ae:	ee18 3a10 	vmov	r3, s16
 80038b2:	4652      	mov	r2, sl
 80038b4:	4631      	mov	r1, r6
 80038b6:	4628      	mov	r0, r5
 80038b8:	47b8      	blx	r7
 80038ba:	3001      	adds	r0, #1
 80038bc:	f43f af09 	beq.w	80036d2 <_printf_float+0xc2>
 80038c0:	f04f 0900 	mov.w	r9, #0
 80038c4:	f104 0a1a 	add.w	sl, r4, #26
 80038c8:	9b09      	ldr	r3, [sp, #36]	; 0x24
 80038ca:	425b      	negs	r3, r3
 80038cc:	454b      	cmp	r3, r9
 80038ce:	dc01      	bgt.n	80038d4 <_printf_float+0x2c4>
 80038d0:	9b0a      	ldr	r3, [sp, #40]	; 0x28
 80038d2:	e792      	b.n	80037fa <_printf_float+0x1ea>
 80038d4:	2301      	movs	r3, #1
 80038d6:	4652      	mov	r2, sl
 80038d8:	4631      	mov	r1, r6
 80038da:	4628      	mov	r0, r5
 80038dc:	47b8      	blx	r7
 80038de:	3001      	adds	r0, #1
 80038e0:	f43f aef7 	beq.w	80036d2 <_printf_float+0xc2>
 80038e4:	f109 0901 	add.w	r9, r9, #1
 80038e8:	e7ee      	b.n	80038c8 <_printf_float+0x2b8>
 80038ea:	bf00      	nop
 80038ec:	7fefffff 	.word	0x7fefffff
 80038f0:	08008088 	.word	0x08008088
 80038f4:	0800808c 	.word	0x0800808c
 80038f8:	08008094 	.word	0x08008094
 80038fc:	08008090 	.word	0x08008090
 8003900:	08008098 	.word	0x08008098
 8003904:	9a0a      	ldr	r2, [sp, #40]	; 0x28
 8003906:	6da3      	ldr	r3, [r4, #88]	; 0x58
 8003908:	429a      	cmp	r2, r3
 800390a:	bfa8      	it	ge
 800390c:	461a      	movge	r2, r3
 800390e:	2a00      	cmp	r2, #0
 8003910:	4691      	mov	r9, r2
 8003912:	dc37      	bgt.n	8003984 <_printf_float+0x374>
 8003914:	f04f 0b00 	mov.w	fp, #0
 8003918:	ea29 79e9 	bic.w	r9, r9, r9, asr #31
 800391c:	f104 021a 	add.w	r2, r4, #26
 8003920:	6da3      	ldr	r3, [r4, #88]	; 0x58
 8003922:	9305      	str	r3, [sp, #20]
 8003924:	eba3 0309 	sub.w	r3, r3, r9
 8003928:	455b      	cmp	r3, fp
 800392a:	dc33      	bgt.n	8003994 <_printf_float+0x384>
 800392c:	e9dd 2309 	ldrd	r2, r3, [sp, #36]	; 0x24
 8003930:	429a      	cmp	r2, r3
 8003932:	db3b      	blt.n	80039ac <_printf_float+0x39c>
 8003934:	6823      	ldr	r3, [r4, #0]
 8003936:	07da      	lsls	r2, r3, #31
 8003938:	d438      	bmi.n	80039ac <_printf_float+0x39c>
 800393a:	9a0a      	ldr	r2, [sp, #40]	; 0x28
 800393c:	9b05      	ldr	r3, [sp, #20]
 800393e:	9909      	ldr	r1, [sp, #36]	; 0x24
 8003940:	1ad3      	subs	r3, r2, r3
 8003942:	eba2 0901 	sub.w	r9, r2, r1
 8003946:	4599      	cmp	r9, r3
 8003948:	bfa8      	it	ge
 800394a:	4699      	movge	r9, r3
 800394c:	f1b9 0f00 	cmp.w	r9, #0
 8003950:	dc35      	bgt.n	80039be <_printf_float+0x3ae>
 8003952:	f04f 0800 	mov.w	r8, #0
 8003956:	ea29 79e9 	bic.w	r9, r9, r9, asr #31
 800395a:	f104 0a1a 	add.w	sl, r4, #26
 800395e:	e9dd 2309 	ldrd	r2, r3, [sp, #36]	; 0x24
 8003962:	1a9b      	subs	r3, r3, r2
 8003964:	eba3 0309 	sub.w	r3, r3, r9
 8003968:	4543      	cmp	r3, r8
 800396a:	f77f af79 	ble.w	8003860 <_printf_float+0x250>
 800396e:	2301      	movs	r3, #1
 8003970:	4652      	mov	r2, sl
 8003972:	4631      	mov	r1, r6
 8003974:	4628      	mov	r0, r5
 8003976:	47b8      	blx	r7
 8003978:	3001      	adds	r0, #1
 800397a:	f43f aeaa 	beq.w	80036d2 <_printf_float+0xc2>
 800397e:	f108 0801 	add.w	r8, r8, #1
 8003982:	e7ec      	b.n	800395e <_printf_float+0x34e>
 8003984:	4613      	mov	r3, r2
 8003986:	4631      	mov	r1, r6
 8003988:	4642      	mov	r2, r8
 800398a:	4628      	mov	r0, r5
 800398c:	47b8      	blx	r7
 800398e:	3001      	adds	r0, #1
 8003990:	d1c0      	bne.n	8003914 <_printf_float+0x304>
 8003992:	e69e      	b.n	80036d2 <_printf_float+0xc2>
 8003994:	2301      	movs	r3, #1
 8003996:	4631      	mov	r1, r6
 8003998:	4628      	mov	r0, r5
 800399a:	9205      	str	r2, [sp, #20]
 800399c:	47b8      	blx	r7
 800399e:	3001      	adds	r0, #1
 80039a0:	f43f ae97 	beq.w	80036d2 <_printf_float+0xc2>
 80039a4:	9a05      	ldr	r2, [sp, #20]
 80039a6:	f10b 0b01 	add.w	fp, fp, #1
 80039aa:	e7b9      	b.n	8003920 <_printf_float+0x310>
 80039ac:	ee18 3a10 	vmov	r3, s16
 80039b0:	4652      	mov	r2, sl
 80039b2:	4631      	mov	r1, r6
 80039b4:	4628      	mov	r0, r5
 80039b6:	47b8      	blx	r7
 80039b8:	3001      	adds	r0, #1
 80039ba:	d1be      	bne.n	800393a <_printf_float+0x32a>
 80039bc:	e689      	b.n	80036d2 <_printf_float+0xc2>
 80039be:	9a05      	ldr	r2, [sp, #20]
 80039c0:	464b      	mov	r3, r9
 80039c2:	4442      	add	r2, r8
 80039c4:	4631      	mov	r1, r6
 80039c6:	4628      	mov	r0, r5
 80039c8:	47b8      	blx	r7
 80039ca:	3001      	adds	r0, #1
 80039cc:	d1c1      	bne.n	8003952 <_printf_float+0x342>
 80039ce:	e680      	b.n	80036d2 <_printf_float+0xc2>
 80039d0:	9a0a      	ldr	r2, [sp, #40]	; 0x28
 80039d2:	2a01      	cmp	r2, #1
 80039d4:	dc01      	bgt.n	80039da <_printf_float+0x3ca>
 80039d6:	07db      	lsls	r3, r3, #31
 80039d8:	d538      	bpl.n	8003a4c <_printf_float+0x43c>
 80039da:	2301      	movs	r3, #1
 80039dc:	4642      	mov	r2, r8
 80039de:	4631      	mov	r1, r6
 80039e0:	4628      	mov	r0, r5
 80039e2:	47b8      	blx	r7
 80039e4:	3001      	adds	r0, #1
 80039e6:	f43f ae74 	beq.w	80036d2 <_printf_float+0xc2>
 80039ea:	ee18 3a10 	vmov	r3, s16
 80039ee:	4652      	mov	r2, sl
 80039f0:	4631      	mov	r1, r6
 80039f2:	4628      	mov	r0, r5
 80039f4:	47b8      	blx	r7
 80039f6:	3001      	adds	r0, #1
 80039f8:	f43f ae6b 	beq.w	80036d2 <_printf_float+0xc2>
 80039fc:	e9d4 0112 	ldrd	r0, r1, [r4, #72]	; 0x48
 8003a00:	2200      	movs	r2, #0
 8003a02:	2300      	movs	r3, #0
 8003a04:	f7fd f868 	bl	8000ad8 <__aeabi_dcmpeq>
 8003a08:	b9d8      	cbnz	r0, 8003a42 <_printf_float+0x432>
 8003a0a:	9b0a      	ldr	r3, [sp, #40]	; 0x28
 8003a0c:	f108 0201 	add.w	r2, r8, #1
 8003a10:	3b01      	subs	r3, #1
 8003a12:	4631      	mov	r1, r6
 8003a14:	4628      	mov	r0, r5
 8003a16:	47b8      	blx	r7
 8003a18:	3001      	adds	r0, #1
 8003a1a:	d10e      	bne.n	8003a3a <_printf_float+0x42a>
 8003a1c:	e659      	b.n	80036d2 <_printf_float+0xc2>
 8003a1e:	2301      	movs	r3, #1
 8003a20:	4652      	mov	r2, sl
 8003a22:	4631      	mov	r1, r6
 8003a24:	4628      	mov	r0, r5
 8003a26:	47b8      	blx	r7
 8003a28:	3001      	adds	r0, #1
 8003a2a:	f43f ae52 	beq.w	80036d2 <_printf_float+0xc2>
 8003a2e:	f108 0801 	add.w	r8, r8, #1
 8003a32:	9b0a      	ldr	r3, [sp, #40]	; 0x28
 8003a34:	3b01      	subs	r3, #1
 8003a36:	4543      	cmp	r3, r8
 8003a38:	dcf1      	bgt.n	8003a1e <_printf_float+0x40e>
 8003a3a:	464b      	mov	r3, r9
 8003a3c:	f104 0250 	add.w	r2, r4, #80	; 0x50
 8003a40:	e6dc      	b.n	80037fc <_printf_float+0x1ec>
 8003a42:	f04f 0800 	mov.w	r8, #0
 8003a46:	f104 0a1a 	add.w	sl, r4, #26
 8003a4a:	e7f2      	b.n	8003a32 <_printf_float+0x422>
 8003a4c:	2301      	movs	r3, #1
 8003a4e:	4642      	mov	r2, r8
 8003a50:	e7df      	b.n	8003a12 <_printf_float+0x402>
 8003a52:	2301      	movs	r3, #1
 8003a54:	464a      	mov	r2, r9
 8003a56:	4631      	mov	r1, r6
 8003a58:	4628      	mov	r0, r5
 8003a5a:	47b8      	blx	r7
 8003a5c:	3001      	adds	r0, #1
 8003a5e:	f43f ae38 	beq.w	80036d2 <_printf_float+0xc2>
 8003a62:	f108 0801 	add.w	r8, r8, #1
 8003a66:	68e3      	ldr	r3, [r4, #12]
 8003a68:	990b      	ldr	r1, [sp, #44]	; 0x2c
 8003a6a:	1a5b      	subs	r3, r3, r1
 8003a6c:	4543      	cmp	r3, r8
 8003a6e:	dcf0      	bgt.n	8003a52 <_printf_float+0x442>
 8003a70:	e6fa      	b.n	8003868 <_printf_float+0x258>
 8003a72:	f04f 0800 	mov.w	r8, #0
 8003a76:	f104 0919 	add.w	r9, r4, #25
 8003a7a:	e7f4      	b.n	8003a66 <_printf_float+0x456>

08003a7c <_printf_common>:
 8003a7c:	e92d 47f0 	stmdb	sp!, {r4, r5, r6, r7, r8, r9, sl, lr}
 8003a80:	4616      	mov	r6, r2
 8003a82:	4699      	mov	r9, r3
 8003a84:	688a      	ldr	r2, [r1, #8]
 8003a86:	690b      	ldr	r3, [r1, #16]
 8003a88:	f8dd 8020 	ldr.w	r8, [sp, #32]
 8003a8c:	4293      	cmp	r3, r2
 8003a8e:	bfb8      	it	lt
 8003a90:	4613      	movlt	r3, r2
 8003a92:	6033      	str	r3, [r6, #0]
 8003a94:	f891 2043 	ldrb.w	r2, [r1, #67]	; 0x43
 8003a98:	4607      	mov	r7, r0
 8003a9a:	460c      	mov	r4, r1
 8003a9c:	b10a      	cbz	r2, 8003aa2 <_printf_common+0x26>
 8003a9e:	3301      	adds	r3, #1
 8003aa0:	6033      	str	r3, [r6, #0]
 8003aa2:	6823      	ldr	r3, [r4, #0]
 8003aa4:	0699      	lsls	r1, r3, #26
 8003aa6:	bf42      	ittt	mi
 8003aa8:	6833      	ldrmi	r3, [r6, #0]
 8003aaa:	3302      	addmi	r3, #2
 8003aac:	6033      	strmi	r3, [r6, #0]
 8003aae:	6825      	ldr	r5, [r4, #0]
 8003ab0:	f015 0506 	ands.w	r5, r5, #6
 8003ab4:	d106      	bne.n	8003ac4 <_printf_common+0x48>
 8003ab6:	f104 0a19 	add.w	sl, r4, #25
 8003aba:	68e3      	ldr	r3, [r4, #12]
 8003abc:	6832      	ldr	r2, [r6, #0]
 8003abe:	1a9b      	subs	r3, r3, r2
 8003ac0:	42ab      	cmp	r3, r5
 8003ac2:	dc26      	bgt.n	8003b12 <_printf_common+0x96>
 8003ac4:	f894 2043 	ldrb.w	r2, [r4, #67]	; 0x43
 8003ac8:	1e13      	subs	r3, r2, #0
 8003aca:	6822      	ldr	r2, [r4, #0]
 8003acc:	bf18      	it	ne
 8003ace:	2301      	movne	r3, #1
 8003ad0:	0692      	lsls	r2, r2, #26
 8003ad2:	d42b      	bmi.n	8003b2c <_printf_common+0xb0>
 8003ad4:	f104 0243 	add.w	r2, r4, #67	; 0x43
 8003ad8:	4649      	mov	r1, r9
 8003ada:	4638      	mov	r0, r7
 8003adc:	47c0      	blx	r8
 8003ade:	3001      	adds	r0, #1
 8003ae0:	d01e      	beq.n	8003b20 <_printf_common+0xa4>
 8003ae2:	6823      	ldr	r3, [r4, #0]
 8003ae4:	68e5      	ldr	r5, [r4, #12]
 8003ae6:	6832      	ldr	r2, [r6, #0]
 8003ae8:	f003 0306 	and.w	r3, r3, #6
 8003aec:	2b04      	cmp	r3, #4
 8003aee:	bf08      	it	eq
 8003af0:	1aad      	subeq	r5, r5, r2
 8003af2:	68a3      	ldr	r3, [r4, #8]
 8003af4:	6922      	ldr	r2, [r4, #16]
 8003af6:	bf0c      	ite	eq
 8003af8:	ea25 75e5 	biceq.w	r5, r5, r5, asr #31
 8003afc:	2500      	movne	r5, #0
 8003afe:	4293      	cmp	r3, r2
 8003b00:	bfc4      	itt	gt
 8003b02:	1a9b      	subgt	r3, r3, r2
 8003b04:	18ed      	addgt	r5, r5, r3
 8003b06:	2600      	movs	r6, #0
 8003b08:	341a      	adds	r4, #26
 8003b0a:	42b5      	cmp	r5, r6
 8003b0c:	d11a      	bne.n	8003b44 <_printf_common+0xc8>
 8003b0e:	2000      	movs	r0, #0
 8003b10:	e008      	b.n	8003b24 <_printf_common+0xa8>
 8003b12:	2301      	movs	r3, #1
 8003b14:	4652      	mov	r2, sl
 8003b16:	4649      	mov	r1, r9
 8003b18:	4638      	mov	r0, r7
 8003b1a:	47c0      	blx	r8
 8003b1c:	3001      	adds	r0, #1
 8003b1e:	d103      	bne.n	8003b28 <_printf_common+0xac>
 8003b20:	f04f 30ff 	mov.w	r0, #4294967295
 8003b24:	e8bd 87f0 	ldmia.w	sp!, {r4, r5, r6, r7, r8, r9, sl, pc}
 8003b28:	3501      	adds	r5, #1
 8003b2a:	e7c6      	b.n	8003aba <_printf_common+0x3e>
 8003b2c:	18e1      	adds	r1, r4, r3
 8003b2e:	1c5a      	adds	r2, r3, #1
 8003b30:	2030      	movs	r0, #48	; 0x30
 8003b32:	f881 0043 	strb.w	r0, [r1, #67]	; 0x43
 8003b36:	4422      	add	r2, r4
 8003b38:	f894 1045 	ldrb.w	r1, [r4, #69]	; 0x45
 8003b3c:	f882 1043 	strb.w	r1, [r2, #67]	; 0x43
 8003b40:	3302      	adds	r3, #2
 8003b42:	e7c7      	b.n	8003ad4 <_printf_common+0x58>
 8003b44:	2301      	movs	r3, #1
 8003b46:	4622      	mov	r2, r4
 8003b48:	4649      	mov	r1, r9
 8003b4a:	4638      	mov	r0, r7
 8003b4c:	47c0      	blx	r8
 8003b4e:	3001      	adds	r0, #1
 8003b50:	d0e6      	beq.n	8003b20 <_printf_common+0xa4>
 8003b52:	3601      	adds	r6, #1
 8003b54:	e7d9      	b.n	8003b0a <_printf_common+0x8e>
	...

08003b58 <_printf_i>:
 8003b58:	e92d 47ff 	stmdb	sp!, {r0, r1, r2, r3, r4, r5, r6, r7, r8, r9, sl, lr}
 8003b5c:	460c      	mov	r4, r1
 8003b5e:	4691      	mov	r9, r2
 8003b60:	7e27      	ldrb	r7, [r4, #24]
 8003b62:	990c      	ldr	r1, [sp, #48]	; 0x30
 8003b64:	2f78      	cmp	r7, #120	; 0x78
 8003b66:	4680      	mov	r8, r0
 8003b68:	469a      	mov	sl, r3
 8003b6a:	f104 0243 	add.w	r2, r4, #67	; 0x43
 8003b6e:	d807      	bhi.n	8003b80 <_printf_i+0x28>
 8003b70:	2f62      	cmp	r7, #98	; 0x62
 8003b72:	d80a      	bhi.n	8003b8a <_printf_i+0x32>
 8003b74:	2f00      	cmp	r7, #0
 8003b76:	f000 80d8 	beq.w	8003d2a <_printf_i+0x1d2>
 8003b7a:	2f58      	cmp	r7, #88	; 0x58
 8003b7c:	f000 80a3 	beq.w	8003cc6 <_printf_i+0x16e>
 8003b80:	f104 0642 	add.w	r6, r4, #66	; 0x42
 8003b84:	f884 7042 	strb.w	r7, [r4, #66]	; 0x42
 8003b88:	e03a      	b.n	8003c00 <_printf_i+0xa8>
 8003b8a:	f1a7 0363 	sub.w	r3, r7, #99	; 0x63
 8003b8e:	2b15      	cmp	r3, #21
 8003b90:	d8f6      	bhi.n	8003b80 <_printf_i+0x28>
 8003b92:	a001      	add	r0, pc, #4	; (adr r0, 8003b98 <_printf_i+0x40>)
 8003b94:	f850 f023 	ldr.w	pc, [r0, r3, lsl #2]
 8003b98:	08003bf1 	.word	0x08003bf1
 8003b9c:	08003c05 	.word	0x08003c05
 8003ba0:	08003b81 	.word	0x08003b81
 8003ba4:	08003b81 	.word	0x08003b81
 8003ba8:	08003b81 	.word	0x08003b81
 8003bac:	08003b81 	.word	0x08003b81
 8003bb0:	08003c05 	.word	0x08003c05
 8003bb4:	08003b81 	.word	0x08003b81
 8003bb8:	08003b81 	.word	0x08003b81
 8003bbc:	08003b81 	.word	0x08003b81
 8003bc0:	08003b81 	.word	0x08003b81
 8003bc4:	08003d11 	.word	0x08003d11
 8003bc8:	08003c35 	.word	0x08003c35
 8003bcc:	08003cf3 	.word	0x08003cf3
 8003bd0:	08003b81 	.word	0x08003b81
 8003bd4:	08003b81 	.word	0x08003b81
 8003bd8:	08003d33 	.word	0x08003d33
 8003bdc:	08003b81 	.word	0x08003b81
 8003be0:	08003c35 	.word	0x08003c35
 8003be4:	08003b81 	.word	0x08003b81
 8003be8:	08003b81 	.word	0x08003b81
 8003bec:	08003cfb 	.word	0x08003cfb
 8003bf0:	680b      	ldr	r3, [r1, #0]
 8003bf2:	1d1a      	adds	r2, r3, #4
 8003bf4:	681b      	ldr	r3, [r3, #0]
 8003bf6:	600a      	str	r2, [r1, #0]
 8003bf8:	f104 0642 	add.w	r6, r4, #66	; 0x42
 8003bfc:	f884 3042 	strb.w	r3, [r4, #66]	; 0x42
 8003c00:	2301      	movs	r3, #1
 8003c02:	e0a3      	b.n	8003d4c <_printf_i+0x1f4>
 8003c04:	6825      	ldr	r5, [r4, #0]
 8003c06:	6808      	ldr	r0, [r1, #0]
 8003c08:	062e      	lsls	r6, r5, #24
 8003c0a:	f100 0304 	add.w	r3, r0, #4
 8003c0e:	d50a      	bpl.n	8003c26 <_printf_i+0xce>
 8003c10:	6805      	ldr	r5, [r0, #0]
 8003c12:	600b      	str	r3, [r1, #0]
 8003c14:	2d00      	cmp	r5, #0
 8003c16:	da03      	bge.n	8003c20 <_printf_i+0xc8>
 8003c18:	232d      	movs	r3, #45	; 0x2d
 8003c1a:	426d      	negs	r5, r5
 8003c1c:	f884 3043 	strb.w	r3, [r4, #67]	; 0x43
 8003c20:	485e      	ldr	r0, [pc, #376]	; (8003d9c <_printf_i+0x244>)
 8003c22:	230a      	movs	r3, #10
 8003c24:	e019      	b.n	8003c5a <_printf_i+0x102>
 8003c26:	f015 0f40 	tst.w	r5, #64	; 0x40
 8003c2a:	6805      	ldr	r5, [r0, #0]
 8003c2c:	600b      	str	r3, [r1, #0]
 8003c2e:	bf18      	it	ne
 8003c30:	b22d      	sxthne	r5, r5
 8003c32:	e7ef      	b.n	8003c14 <_printf_i+0xbc>
 8003c34:	680b      	ldr	r3, [r1, #0]
 8003c36:	6825      	ldr	r5, [r4, #0]
 8003c38:	1d18      	adds	r0, r3, #4
 8003c3a:	6008      	str	r0, [r1, #0]
 8003c3c:	0628      	lsls	r0, r5, #24
 8003c3e:	d501      	bpl.n	8003c44 <_printf_i+0xec>
 8003c40:	681d      	ldr	r5, [r3, #0]
 8003c42:	e002      	b.n	8003c4a <_printf_i+0xf2>
 8003c44:	0669      	lsls	r1, r5, #25
 8003c46:	d5fb      	bpl.n	8003c40 <_printf_i+0xe8>
 8003c48:	881d      	ldrh	r5, [r3, #0]
 8003c4a:	4854      	ldr	r0, [pc, #336]	; (8003d9c <_printf_i+0x244>)
 8003c4c:	2f6f      	cmp	r7, #111	; 0x6f
 8003c4e:	bf0c      	ite	eq
 8003c50:	2308      	moveq	r3, #8
 8003c52:	230a      	movne	r3, #10
 8003c54:	2100      	movs	r1, #0
 8003c56:	f884 1043 	strb.w	r1, [r4, #67]	; 0x43
 8003c5a:	6866      	ldr	r6, [r4, #4]
 8003c5c:	60a6      	str	r6, [r4, #8]
 8003c5e:	2e00      	cmp	r6, #0
 8003c60:	bfa2      	ittt	ge
 8003c62:	6821      	ldrge	r1, [r4, #0]
 8003c64:	f021 0104 	bicge.w	r1, r1, #4
 8003c68:	6021      	strge	r1, [r4, #0]
 8003c6a:	b90d      	cbnz	r5, 8003c70 <_printf_i+0x118>
 8003c6c:	2e00      	cmp	r6, #0
 8003c6e:	d04d      	beq.n	8003d0c <_printf_i+0x1b4>
 8003c70:	4616      	mov	r6, r2
 8003c72:	fbb5 f1f3 	udiv	r1, r5, r3
 8003c76:	fb03 5711 	mls	r7, r3, r1, r5
 8003c7a:	5dc7      	ldrb	r7, [r0, r7]
 8003c7c:	f806 7d01 	strb.w	r7, [r6, #-1]!
 8003c80:	462f      	mov	r7, r5
 8003c82:	42bb      	cmp	r3, r7
 8003c84:	460d      	mov	r5, r1
 8003c86:	d9f4      	bls.n	8003c72 <_printf_i+0x11a>
 8003c88:	2b08      	cmp	r3, #8
 8003c8a:	d10b      	bne.n	8003ca4 <_printf_i+0x14c>
 8003c8c:	6823      	ldr	r3, [r4, #0]
 8003c8e:	07df      	lsls	r7, r3, #31
 8003c90:	d508      	bpl.n	8003ca4 <_printf_i+0x14c>
 8003c92:	6923      	ldr	r3, [r4, #16]
 8003c94:	6861      	ldr	r1, [r4, #4]
 8003c96:	4299      	cmp	r1, r3
 8003c98:	bfde      	ittt	le
 8003c9a:	2330      	movle	r3, #48	; 0x30
 8003c9c:	f806 3c01 	strble.w	r3, [r6, #-1]
 8003ca0:	f106 36ff 	addle.w	r6, r6, #4294967295
 8003ca4:	1b92      	subs	r2, r2, r6
 8003ca6:	6122      	str	r2, [r4, #16]
 8003ca8:	f8cd a000 	str.w	sl, [sp]
 8003cac:	464b      	mov	r3, r9
 8003cae:	aa03      	add	r2, sp, #12
 8003cb0:	4621      	mov	r1, r4
 8003cb2:	4640      	mov	r0, r8
 8003cb4:	f7ff fee2 	bl	8003a7c <_printf_common>
 8003cb8:	3001      	adds	r0, #1
 8003cba:	d14c      	bne.n	8003d56 <_printf_i+0x1fe>
 8003cbc:	f04f 30ff 	mov.w	r0, #4294967295
 8003cc0:	b004      	add	sp, #16
 8003cc2:	e8bd 87f0 	ldmia.w	sp!, {r4, r5, r6, r7, r8, r9, sl, pc}
 8003cc6:	4835      	ldr	r0, [pc, #212]	; (8003d9c <_printf_i+0x244>)
 8003cc8:	f884 7045 	strb.w	r7, [r4, #69]	; 0x45
 8003ccc:	6823      	ldr	r3, [r4, #0]
 8003cce:	680e      	ldr	r6, [r1, #0]
 8003cd0:	061f      	lsls	r7, r3, #24
 8003cd2:	f856 5b04 	ldr.w	r5, [r6], #4
 8003cd6:	600e      	str	r6, [r1, #0]
 8003cd8:	d514      	bpl.n	8003d04 <_printf_i+0x1ac>
 8003cda:	07d9      	lsls	r1, r3, #31
 8003cdc:	bf44      	itt	mi
 8003cde:	f043 0320 	orrmi.w	r3, r3, #32
 8003ce2:	6023      	strmi	r3, [r4, #0]
 8003ce4:	b91d      	cbnz	r5, 8003cee <_printf_i+0x196>
 8003ce6:	6823      	ldr	r3, [r4, #0]
 8003ce8:	f023 0320 	bic.w	r3, r3, #32
 8003cec:	6023      	str	r3, [r4, #0]
 8003cee:	2310      	movs	r3, #16
 8003cf0:	e7b0      	b.n	8003c54 <_printf_i+0xfc>
 8003cf2:	6823      	ldr	r3, [r4, #0]
 8003cf4:	f043 0320 	orr.w	r3, r3, #32
 8003cf8:	6023      	str	r3, [r4, #0]
 8003cfa:	2378      	movs	r3, #120	; 0x78
 8003cfc:	4828      	ldr	r0, [pc, #160]	; (8003da0 <_printf_i+0x248>)
 8003cfe:	f884 3045 	strb.w	r3, [r4, #69]	; 0x45
 8003d02:	e7e3      	b.n	8003ccc <_printf_i+0x174>
 8003d04:	065e      	lsls	r6, r3, #25
 8003d06:	bf48      	it	mi
 8003d08:	b2ad      	uxthmi	r5, r5
 8003d0a:	e7e6      	b.n	8003cda <_printf_i+0x182>
 8003d0c:	4616      	mov	r6, r2
 8003d0e:	e7bb      	b.n	8003c88 <_printf_i+0x130>
 8003d10:	680b      	ldr	r3, [r1, #0]
 8003d12:	6826      	ldr	r6, [r4, #0]
 8003d14:	6960      	ldr	r0, [r4, #20]
 8003d16:	1d1d      	adds	r5, r3, #4
 8003d18:	600d      	str	r5, [r1, #0]
 8003d1a:	0635      	lsls	r5, r6, #24
 8003d1c:	681b      	ldr	r3, [r3, #0]
 8003d1e:	d501      	bpl.n	8003d24 <_printf_i+0x1cc>
 8003d20:	6018      	str	r0, [r3, #0]
 8003d22:	e002      	b.n	8003d2a <_printf_i+0x1d2>
 8003d24:	0671      	lsls	r1, r6, #25
 8003d26:	d5fb      	bpl.n	8003d20 <_printf_i+0x1c8>
 8003d28:	8018      	strh	r0, [r3, #0]
 8003d2a:	2300      	movs	r3, #0
 8003d2c:	6123      	str	r3, [r4, #16]
 8003d2e:	4616      	mov	r6, r2
 8003d30:	e7ba      	b.n	8003ca8 <_printf_i+0x150>
 8003d32:	680b      	ldr	r3, [r1, #0]
 8003d34:	1d1a      	adds	r2, r3, #4
 8003d36:	600a      	str	r2, [r1, #0]
 8003d38:	681e      	ldr	r6, [r3, #0]
 8003d3a:	6862      	ldr	r2, [r4, #4]
 8003d3c:	2100      	movs	r1, #0
 8003d3e:	4630      	mov	r0, r6
 8003d40:	f7fc fa56 	bl	80001f0 <memchr>
 8003d44:	b108      	cbz	r0, 8003d4a <_printf_i+0x1f2>
 8003d46:	1b80      	subs	r0, r0, r6
 8003d48:	6060      	str	r0, [r4, #4]
 8003d4a:	6863      	ldr	r3, [r4, #4]
 8003d4c:	6123      	str	r3, [r4, #16]
 8003d4e:	2300      	movs	r3, #0
 8003d50:	f884 3043 	strb.w	r3, [r4, #67]	; 0x43
 8003d54:	e7a8      	b.n	8003ca8 <_printf_i+0x150>
 8003d56:	6923      	ldr	r3, [r4, #16]
 8003d58:	4632      	mov	r2, r6
 8003d5a:	4649      	mov	r1, r9
 8003d5c:	4640      	mov	r0, r8
 8003d5e:	47d0      	blx	sl
 8003d60:	3001      	adds	r0, #1
 8003d62:	d0ab      	beq.n	8003cbc <_printf_i+0x164>
 8003d64:	6823      	ldr	r3, [r4, #0]
 8003d66:	079b      	lsls	r3, r3, #30
 8003d68:	d413      	bmi.n	8003d92 <_printf_i+0x23a>
 8003d6a:	68e0      	ldr	r0, [r4, #12]
 8003d6c:	9b03      	ldr	r3, [sp, #12]
 8003d6e:	4298      	cmp	r0, r3
 8003d70:	bfb8      	it	lt
 8003d72:	4618      	movlt	r0, r3
 8003d74:	e7a4      	b.n	8003cc0 <_printf_i+0x168>
 8003d76:	2301      	movs	r3, #1
 8003d78:	4632      	mov	r2, r6
 8003d7a:	4649      	mov	r1, r9
 8003d7c:	4640      	mov	r0, r8
 8003d7e:	47d0      	blx	sl
 8003d80:	3001      	adds	r0, #1
 8003d82:	d09b      	beq.n	8003cbc <_printf_i+0x164>
 8003d84:	3501      	adds	r5, #1
 8003d86:	68e3      	ldr	r3, [r4, #12]
 8003d88:	9903      	ldr	r1, [sp, #12]
 8003d8a:	1a5b      	subs	r3, r3, r1
 8003d8c:	42ab      	cmp	r3, r5
 8003d8e:	dcf2      	bgt.n	8003d76 <_printf_i+0x21e>
 8003d90:	e7eb      	b.n	8003d6a <_printf_i+0x212>
 8003d92:	2500      	movs	r5, #0
 8003d94:	f104 0619 	add.w	r6, r4, #25
 8003d98:	e7f5      	b.n	8003d86 <_printf_i+0x22e>
 8003d9a:	bf00      	nop
 8003d9c:	0800809a 	.word	0x0800809a
 8003da0:	080080ab 	.word	0x080080ab

08003da4 <_scanf_float>:
 8003da4:	e92d 4ff0 	stmdb	sp!, {r4, r5, r6, r7, r8, r9, sl, fp, lr}
 8003da8:	b087      	sub	sp, #28
 8003daa:	4617      	mov	r7, r2
 8003dac:	9303      	str	r3, [sp, #12]
 8003dae:	688b      	ldr	r3, [r1, #8]
 8003db0:	1e5a      	subs	r2, r3, #1
 8003db2:	f5b2 7fae 	cmp.w	r2, #348	; 0x15c
 8003db6:	bf83      	ittte	hi
 8003db8:	f46f 75ae 	mvnhi.w	r5, #348	; 0x15c
 8003dbc:	195b      	addhi	r3, r3, r5
 8003dbe:	9302      	strhi	r3, [sp, #8]
 8003dc0:	2300      	movls	r3, #0
 8003dc2:	bf86      	itte	hi
 8003dc4:	f240 135d 	movwhi	r3, #349	; 0x15d
 8003dc8:	608b      	strhi	r3, [r1, #8]
 8003dca:	9302      	strls	r3, [sp, #8]
 8003dcc:	680b      	ldr	r3, [r1, #0]
 8003dce:	468b      	mov	fp, r1
 8003dd0:	2500      	movs	r5, #0
 8003dd2:	f443 63f0 	orr.w	r3, r3, #1920	; 0x780
 8003dd6:	f84b 3b1c 	str.w	r3, [fp], #28
 8003dda:	e9cd 5504 	strd	r5, r5, [sp, #16]
 8003dde:	4680      	mov	r8, r0
 8003de0:	460c      	mov	r4, r1
 8003de2:	465e      	mov	r6, fp
 8003de4:	46aa      	mov	sl, r5
 8003de6:	46a9      	mov	r9, r5
 8003de8:	9501      	str	r5, [sp, #4]
 8003dea:	68a2      	ldr	r2, [r4, #8]
 8003dec:	b152      	cbz	r2, 8003e04 <_scanf_float+0x60>
 8003dee:	683b      	ldr	r3, [r7, #0]
 8003df0:	781b      	ldrb	r3, [r3, #0]
 8003df2:	2b4e      	cmp	r3, #78	; 0x4e
 8003df4:	d864      	bhi.n	8003ec0 <_scanf_float+0x11c>
 8003df6:	2b40      	cmp	r3, #64	; 0x40
 8003df8:	d83c      	bhi.n	8003e74 <_scanf_float+0xd0>
 8003dfa:	f1a3 012b 	sub.w	r1, r3, #43	; 0x2b
 8003dfe:	b2c8      	uxtb	r0, r1
 8003e00:	280e      	cmp	r0, #14
 8003e02:	d93a      	bls.n	8003e7a <_scanf_float+0xd6>
 8003e04:	f1b9 0f00 	cmp.w	r9, #0
 8003e08:	d003      	beq.n	8003e12 <_scanf_float+0x6e>
 8003e0a:	6823      	ldr	r3, [r4, #0]
 8003e0c:	f423 7380 	bic.w	r3, r3, #256	; 0x100
 8003e10:	6023      	str	r3, [r4, #0]
 8003e12:	f10a 3aff 	add.w	sl, sl, #4294967295
 8003e16:	f1ba 0f01 	cmp.w	sl, #1
 8003e1a:	f200 8113 	bhi.w	8004044 <_scanf_float+0x2a0>
 8003e1e:	455e      	cmp	r6, fp
 8003e20:	f200 8105 	bhi.w	800402e <_scanf_float+0x28a>
 8003e24:	2501      	movs	r5, #1
 8003e26:	4628      	mov	r0, r5
 8003e28:	b007      	add	sp, #28
 8003e2a:	e8bd 8ff0 	ldmia.w	sp!, {r4, r5, r6, r7, r8, r9, sl, fp, pc}
 8003e2e:	f1a3 0261 	sub.w	r2, r3, #97	; 0x61
 8003e32:	2a0d      	cmp	r2, #13
 8003e34:	d8e6      	bhi.n	8003e04 <_scanf_float+0x60>
 8003e36:	a101      	add	r1, pc, #4	; (adr r1, 8003e3c <_scanf_float+0x98>)
 8003e38:	f851 f022 	ldr.w	pc, [r1, r2, lsl #2]
 8003e3c:	08003f7b 	.word	0x08003f7b
 8003e40:	08003e05 	.word	0x08003e05
 8003e44:	08003e05 	.word	0x08003e05
 8003e48:	08003e05 	.word	0x08003e05
 8003e4c:	08003fdb 	.word	0x08003fdb
 8003e50:	08003fb3 	.word	0x08003fb3
 8003e54:	08003e05 	.word	0x08003e05
 8003e58:	08003e05 	.word	0x08003e05
 8003e5c:	08003f89 	.word	0x08003f89
 8003e60:	08003e05 	.word	0x08003e05
 8003e64:	08003e05 	.word	0x08003e05
 8003e68:	08003e05 	.word	0x08003e05
 8003e6c:	08003e05 	.word	0x08003e05
 8003e70:	08003f41 	.word	0x08003f41
 8003e74:	f1a3 0241 	sub.w	r2, r3, #65	; 0x41
 8003e78:	e7db      	b.n	8003e32 <_scanf_float+0x8e>
 8003e7a:	290e      	cmp	r1, #14
 8003e7c:	d8c2      	bhi.n	8003e04 <_scanf_float+0x60>
 8003e7e:	a001      	add	r0, pc, #4	; (adr r0, 8003e84 <_scanf_float+0xe0>)
 8003e80:	f850 f021 	ldr.w	pc, [r0, r1, lsl #2]
 8003e84:	08003f33 	.word	0x08003f33
 8003e88:	08003e05 	.word	0x08003e05
 8003e8c:	08003f33 	.word	0x08003f33
 8003e90:	08003fc7 	.word	0x08003fc7
 8003e94:	08003e05 	.word	0x08003e05
 8003e98:	08003ee1 	.word	0x08003ee1
 8003e9c:	08003f1d 	.word	0x08003f1d
 8003ea0:	08003f1d 	.word	0x08003f1d
 8003ea4:	08003f1d 	.word	0x08003f1d
 8003ea8:	08003f1d 	.word	0x08003f1d
 8003eac:	08003f1d 	.word	0x08003f1d
 8003eb0:	08003f1d 	.word	0x08003f1d
 8003eb4:	08003f1d 	.word	0x08003f1d
 8003eb8:	08003f1d 	.word	0x08003f1d
 8003ebc:	08003f1d 	.word	0x08003f1d
 8003ec0:	2b6e      	cmp	r3, #110	; 0x6e
 8003ec2:	d809      	bhi.n	8003ed8 <_scanf_float+0x134>
 8003ec4:	2b60      	cmp	r3, #96	; 0x60
 8003ec6:	d8b2      	bhi.n	8003e2e <_scanf_float+0x8a>
 8003ec8:	2b54      	cmp	r3, #84	; 0x54
 8003eca:	d077      	beq.n	8003fbc <_scanf_float+0x218>
 8003ecc:	2b59      	cmp	r3, #89	; 0x59
 8003ece:	d199      	bne.n	8003e04 <_scanf_float+0x60>
 8003ed0:	2d07      	cmp	r5, #7
 8003ed2:	d197      	bne.n	8003e04 <_scanf_float+0x60>
 8003ed4:	2508      	movs	r5, #8
 8003ed6:	e029      	b.n	8003f2c <_scanf_float+0x188>
 8003ed8:	2b74      	cmp	r3, #116	; 0x74
 8003eda:	d06f      	beq.n	8003fbc <_scanf_float+0x218>
 8003edc:	2b79      	cmp	r3, #121	; 0x79
 8003ede:	e7f6      	b.n	8003ece <_scanf_float+0x12a>
 8003ee0:	6821      	ldr	r1, [r4, #0]
 8003ee2:	05c8      	lsls	r0, r1, #23
 8003ee4:	d51a      	bpl.n	8003f1c <_scanf_float+0x178>
 8003ee6:	9b02      	ldr	r3, [sp, #8]
 8003ee8:	f021 0180 	bic.w	r1, r1, #128	; 0x80
 8003eec:	6021      	str	r1, [r4, #0]
 8003eee:	f109 0901 	add.w	r9, r9, #1
 8003ef2:	b11b      	cbz	r3, 8003efc <_scanf_float+0x158>
 8003ef4:	3b01      	subs	r3, #1
 8003ef6:	3201      	adds	r2, #1
 8003ef8:	9302      	str	r3, [sp, #8]
 8003efa:	60a2      	str	r2, [r4, #8]
 8003efc:	68a3      	ldr	r3, [r4, #8]
 8003efe:	3b01      	subs	r3, #1
 8003f00:	60a3      	str	r3, [r4, #8]
 8003f02:	6923      	ldr	r3, [r4, #16]
 8003f04:	3301      	adds	r3, #1
 8003f06:	6123      	str	r3, [r4, #16]
 8003f08:	687b      	ldr	r3, [r7, #4]
 8003f0a:	3b01      	subs	r3, #1
 8003f0c:	2b00      	cmp	r3, #0
 8003f0e:	607b      	str	r3, [r7, #4]
 8003f10:	f340 8084 	ble.w	800401c <_scanf_float+0x278>
 8003f14:	683b      	ldr	r3, [r7, #0]
 8003f16:	3301      	adds	r3, #1
 8003f18:	603b      	str	r3, [r7, #0]
 8003f1a:	e766      	b.n	8003dea <_scanf_float+0x46>
 8003f1c:	eb1a 0f05 	cmn.w	sl, r5
 8003f20:	f47f af70 	bne.w	8003e04 <_scanf_float+0x60>
 8003f24:	6822      	ldr	r2, [r4, #0]
 8003f26:	f422 72c0 	bic.w	r2, r2, #384	; 0x180
 8003f2a:	6022      	str	r2, [r4, #0]
 8003f2c:	f806 3b01 	strb.w	r3, [r6], #1
 8003f30:	e7e4      	b.n	8003efc <_scanf_float+0x158>
 8003f32:	6822      	ldr	r2, [r4, #0]
 8003f34:	0610      	lsls	r0, r2, #24
 8003f36:	f57f af65 	bpl.w	8003e04 <_scanf_float+0x60>
 8003f3a:	f022 0280 	bic.w	r2, r2, #128	; 0x80
 8003f3e:	e7f4      	b.n	8003f2a <_scanf_float+0x186>
 8003f40:	f1ba 0f00 	cmp.w	sl, #0
 8003f44:	d10e      	bne.n	8003f64 <_scanf_float+0x1c0>
 8003f46:	f1b9 0f00 	cmp.w	r9, #0
 8003f4a:	d10e      	bne.n	8003f6a <_scanf_float+0x1c6>
 8003f4c:	6822      	ldr	r2, [r4, #0]
 8003f4e:	f402 61e0 	and.w	r1, r2, #1792	; 0x700
 8003f52:	f5b1 6fe0 	cmp.w	r1, #1792	; 0x700
 8003f56:	d108      	bne.n	8003f6a <_scanf_float+0x1c6>
 8003f58:	f422 62f0 	bic.w	r2, r2, #1920	; 0x780
 8003f5c:	6022      	str	r2, [r4, #0]
 8003f5e:	f04f 0a01 	mov.w	sl, #1
 8003f62:	e7e3      	b.n	8003f2c <_scanf_float+0x188>
 8003f64:	f1ba 0f02 	cmp.w	sl, #2
 8003f68:	d055      	beq.n	8004016 <_scanf_float+0x272>
 8003f6a:	2d01      	cmp	r5, #1
 8003f6c:	d002      	beq.n	8003f74 <_scanf_float+0x1d0>
 8003f6e:	2d04      	cmp	r5, #4
 8003f70:	f47f af48 	bne.w	8003e04 <_scanf_float+0x60>
 8003f74:	3501      	adds	r5, #1
 8003f76:	b2ed      	uxtb	r5, r5
 8003f78:	e7d8      	b.n	8003f2c <_scanf_float+0x188>
 8003f7a:	f1ba 0f01 	cmp.w	sl, #1
 8003f7e:	f47f af41 	bne.w	8003e04 <_scanf_float+0x60>
 8003f82:	f04f 0a02 	mov.w	sl, #2
 8003f86:	e7d1      	b.n	8003f2c <_scanf_float+0x188>
 8003f88:	b97d      	cbnz	r5, 8003faa <_scanf_float+0x206>
 8003f8a:	f1b9 0f00 	cmp.w	r9, #0
 8003f8e:	f47f af3c 	bne.w	8003e0a <_scanf_float+0x66>
 8003f92:	6822      	ldr	r2, [r4, #0]
 8003f94:	f402 61e0 	and.w	r1, r2, #1792	; 0x700
 8003f98:	f5b1 6fe0 	cmp.w	r1, #1792	; 0x700
 8003f9c:	f47f af39 	bne.w	8003e12 <_scanf_float+0x6e>
 8003fa0:	f422 62f0 	bic.w	r2, r2, #1920	; 0x780
 8003fa4:	6022      	str	r2, [r4, #0]
 8003fa6:	2501      	movs	r5, #1
 8003fa8:	e7c0      	b.n	8003f2c <_scanf_float+0x188>
 8003faa:	2d03      	cmp	r5, #3
 8003fac:	d0e2      	beq.n	8003f74 <_scanf_float+0x1d0>
 8003fae:	2d05      	cmp	r5, #5
 8003fb0:	e7de      	b.n	8003f70 <_scanf_float+0x1cc>
 8003fb2:	2d02      	cmp	r5, #2
 8003fb4:	f47f af26 	bne.w	8003e04 <_scanf_float+0x60>
 8003fb8:	2503      	movs	r5, #3
 8003fba:	e7b7      	b.n	8003f2c <_scanf_float+0x188>
 8003fbc:	2d06      	cmp	r5, #6
 8003fbe:	f47f af21 	bne.w	8003e04 <_scanf_float+0x60>
 8003fc2:	2507      	movs	r5, #7
 8003fc4:	e7b2      	b.n	8003f2c <_scanf_float+0x188>
 8003fc6:	6822      	ldr	r2, [r4, #0]
 8003fc8:	0591      	lsls	r1, r2, #22
 8003fca:	f57f af1b 	bpl.w	8003e04 <_scanf_float+0x60>
 8003fce:	f422 7220 	bic.w	r2, r2, #640	; 0x280
 8003fd2:	6022      	str	r2, [r4, #0]
 8003fd4:	f8cd 9004 	str.w	r9, [sp, #4]
 8003fd8:	e7a8      	b.n	8003f2c <_scanf_float+0x188>
 8003fda:	6822      	ldr	r2, [r4, #0]
 8003fdc:	f402 61a0 	and.w	r1, r2, #1280	; 0x500
 8003fe0:	f5b1 6f80 	cmp.w	r1, #1024	; 0x400
 8003fe4:	d006      	beq.n	8003ff4 <_scanf_float+0x250>
 8003fe6:	0550      	lsls	r0, r2, #21
 8003fe8:	f57f af0c 	bpl.w	8003e04 <_scanf_float+0x60>
 8003fec:	f1b9 0f00 	cmp.w	r9, #0
 8003ff0:	f43f af0f 	beq.w	8003e12 <_scanf_float+0x6e>
 8003ff4:	0591      	lsls	r1, r2, #22
 8003ff6:	bf58      	it	pl
 8003ff8:	9901      	ldrpl	r1, [sp, #4]
 8003ffa:	f422 62f0 	bic.w	r2, r2, #1920	; 0x780
 8003ffe:	bf58      	it	pl
 8004000:	eba9 0101 	subpl.w	r1, r9, r1
 8004004:	f442 72c0 	orr.w	r2, r2, #384	; 0x180
 8004008:	bf58      	it	pl
 800400a:	e9cd 1604 	strdpl	r1, r6, [sp, #16]
 800400e:	6022      	str	r2, [r4, #0]
 8004010:	f04f 0900 	mov.w	r9, #0
 8004014:	e78a      	b.n	8003f2c <_scanf_float+0x188>
 8004016:	f04f 0a03 	mov.w	sl, #3
 800401a:	e787      	b.n	8003f2c <_scanf_float+0x188>
 800401c:	f8d4 3180 	ldr.w	r3, [r4, #384]	; 0x180
 8004020:	4639      	mov	r1, r7
 8004022:	4640      	mov	r0, r8
 8004024:	4798      	blx	r3
 8004026:	2800      	cmp	r0, #0
 8004028:	f43f aedf 	beq.w	8003dea <_scanf_float+0x46>
 800402c:	e6ea      	b.n	8003e04 <_scanf_float+0x60>
 800402e:	f8d4 317c 	ldr.w	r3, [r4, #380]	; 0x17c
 8004032:	f816 1d01 	ldrb.w	r1, [r6, #-1]!
 8004036:	463a      	mov	r2, r7
 8004038:	4640      	mov	r0, r8
 800403a:	4798      	blx	r3
 800403c:	6923      	ldr	r3, [r4, #16]
 800403e:	3b01      	subs	r3, #1
 8004040:	6123      	str	r3, [r4, #16]
 8004042:	e6ec      	b.n	8003e1e <_scanf_float+0x7a>
 8004044:	1e6b      	subs	r3, r5, #1
 8004046:	2b06      	cmp	r3, #6
 8004048:	d825      	bhi.n	8004096 <_scanf_float+0x2f2>
 800404a:	2d02      	cmp	r5, #2
 800404c:	d836      	bhi.n	80040bc <_scanf_float+0x318>
 800404e:	455e      	cmp	r6, fp
 8004050:	f67f aee8 	bls.w	8003e24 <_scanf_float+0x80>
 8004054:	f8d4 317c 	ldr.w	r3, [r4, #380]	; 0x17c
 8004058:	f816 1d01 	ldrb.w	r1, [r6, #-1]!
 800405c:	463a      	mov	r2, r7
 800405e:	4640      	mov	r0, r8
 8004060:	4798      	blx	r3
 8004062:	6923      	ldr	r3, [r4, #16]
 8004064:	3b01      	subs	r3, #1
 8004066:	6123      	str	r3, [r4, #16]
 8004068:	e7f1      	b.n	800404e <_scanf_float+0x2aa>
 800406a:	9802      	ldr	r0, [sp, #8]
 800406c:	f8d4 317c 	ldr.w	r3, [r4, #380]	; 0x17c
 8004070:	f810 1d01 	ldrb.w	r1, [r0, #-1]!
 8004074:	9002      	str	r0, [sp, #8]
 8004076:	463a      	mov	r2, r7
 8004078:	4640      	mov	r0, r8
 800407a:	4798      	blx	r3
 800407c:	6923      	ldr	r3, [r4, #16]
 800407e:	3b01      	subs	r3, #1
 8004080:	6123      	str	r3, [r4, #16]
 8004082:	f10a 3aff 	add.w	sl, sl, #4294967295
 8004086:	fa5f fa8a 	uxtb.w	sl, sl
 800408a:	f1ba 0f02 	cmp.w	sl, #2
 800408e:	d1ec      	bne.n	800406a <_scanf_float+0x2c6>
 8004090:	3d03      	subs	r5, #3
 8004092:	b2ed      	uxtb	r5, r5
 8004094:	1b76      	subs	r6, r6, r5
 8004096:	6823      	ldr	r3, [r4, #0]
 8004098:	05da      	lsls	r2, r3, #23
 800409a:	d52f      	bpl.n	80040fc <_scanf_float+0x358>
 800409c:	055b      	lsls	r3, r3, #21
 800409e:	d510      	bpl.n	80040c2 <_scanf_float+0x31e>
 80040a0:	455e      	cmp	r6, fp
 80040a2:	f67f aebf 	bls.w	8003e24 <_scanf_float+0x80>
 80040a6:	f8d4 317c 	ldr.w	r3, [r4, #380]	; 0x17c
 80040aa:	f816 1d01 	ldrb.w	r1, [r6, #-1]!
 80040ae:	463a      	mov	r2, r7
 80040b0:	4640      	mov	r0, r8
 80040b2:	4798      	blx	r3
 80040b4:	6923      	ldr	r3, [r4, #16]
 80040b6:	3b01      	subs	r3, #1
 80040b8:	6123      	str	r3, [r4, #16]
 80040ba:	e7f1      	b.n	80040a0 <_scanf_float+0x2fc>
 80040bc:	46aa      	mov	sl, r5
 80040be:	9602      	str	r6, [sp, #8]
 80040c0:	e7df      	b.n	8004082 <_scanf_float+0x2de>
 80040c2:	f816 1c01 	ldrb.w	r1, [r6, #-1]
 80040c6:	6923      	ldr	r3, [r4, #16]
 80040c8:	2965      	cmp	r1, #101	; 0x65
 80040ca:	f103 33ff 	add.w	r3, r3, #4294967295
 80040ce:	f106 35ff 	add.w	r5, r6, #4294967295
 80040d2:	6123      	str	r3, [r4, #16]
 80040d4:	d00c      	beq.n	80040f0 <_scanf_float+0x34c>
 80040d6:	2945      	cmp	r1, #69	; 0x45
 80040d8:	d00a      	beq.n	80040f0 <_scanf_float+0x34c>
 80040da:	f8d4 317c 	ldr.w	r3, [r4, #380]	; 0x17c
 80040de:	463a      	mov	r2, r7
 80040e0:	4640      	mov	r0, r8
 80040e2:	4798      	blx	r3
 80040e4:	6923      	ldr	r3, [r4, #16]
 80040e6:	f816 1c02 	ldrb.w	r1, [r6, #-2]
 80040ea:	3b01      	subs	r3, #1
 80040ec:	1eb5      	subs	r5, r6, #2
 80040ee:	6123      	str	r3, [r4, #16]
 80040f0:	f8d4 317c 	ldr.w	r3, [r4, #380]	; 0x17c
 80040f4:	463a      	mov	r2, r7
 80040f6:	4640      	mov	r0, r8
 80040f8:	4798      	blx	r3
 80040fa:	462e      	mov	r6, r5
 80040fc:	6825      	ldr	r5, [r4, #0]
 80040fe:	f015 0510 	ands.w	r5, r5, #16
 8004102:	d158      	bne.n	80041b6 <_scanf_float+0x412>
 8004104:	7035      	strb	r5, [r6, #0]
 8004106:	6823      	ldr	r3, [r4, #0]
 8004108:	f403 63c0 	and.w	r3, r3, #1536	; 0x600
 800410c:	f5b3 6f80 	cmp.w	r3, #1024	; 0x400
 8004110:	d11c      	bne.n	800414c <_scanf_float+0x3a8>
 8004112:	9b01      	ldr	r3, [sp, #4]
 8004114:	454b      	cmp	r3, r9
 8004116:	eba3 0209 	sub.w	r2, r3, r9
 800411a:	d124      	bne.n	8004166 <_scanf_float+0x3c2>
 800411c:	2200      	movs	r2, #0
 800411e:	4659      	mov	r1, fp
 8004120:	4640      	mov	r0, r8
 8004122:	f000 feb3 	bl	8004e8c <_strtod_r>
 8004126:	9b03      	ldr	r3, [sp, #12]
 8004128:	6821      	ldr	r1, [r4, #0]
 800412a:	681b      	ldr	r3, [r3, #0]
 800412c:	f011 0f02 	tst.w	r1, #2
 8004130:	ec57 6b10 	vmov	r6, r7, d0
 8004134:	f103 0204 	add.w	r2, r3, #4
 8004138:	d020      	beq.n	800417c <_scanf_float+0x3d8>
 800413a:	9903      	ldr	r1, [sp, #12]
 800413c:	600a      	str	r2, [r1, #0]
 800413e:	681b      	ldr	r3, [r3, #0]
 8004140:	e9c3 6700 	strd	r6, r7, [r3]
 8004144:	68e3      	ldr	r3, [r4, #12]
 8004146:	3301      	adds	r3, #1
 8004148:	60e3      	str	r3, [r4, #12]
 800414a:	e66c      	b.n	8003e26 <_scanf_float+0x82>
 800414c:	9b04      	ldr	r3, [sp, #16]
 800414e:	2b00      	cmp	r3, #0
 8004150:	d0e4      	beq.n	800411c <_scanf_float+0x378>
 8004152:	9905      	ldr	r1, [sp, #20]
 8004154:	230a      	movs	r3, #10
 8004156:	462a      	mov	r2, r5
 8004158:	3101      	adds	r1, #1
 800415a:	4640      	mov	r0, r8
 800415c:	f000 ff20 	bl	8004fa0 <_strtol_r>
 8004160:	9b04      	ldr	r3, [sp, #16]
 8004162:	9e05      	ldr	r6, [sp, #20]
 8004164:	1ac2      	subs	r2, r0, r3
 8004166:	f204 136f 	addw	r3, r4, #367	; 0x16f
 800416a:	429e      	cmp	r6, r3
 800416c:	bf28      	it	cs
 800416e:	f504 76b7 	addcs.w	r6, r4, #366	; 0x16e
 8004172:	4912      	ldr	r1, [pc, #72]	; (80041bc <_scanf_float+0x418>)
 8004174:	4630      	mov	r0, r6
 8004176:	f000 f82b 	bl	80041d0 <siprintf>
 800417a:	e7cf      	b.n	800411c <_scanf_float+0x378>
 800417c:	f011 0f04 	tst.w	r1, #4
 8004180:	9903      	ldr	r1, [sp, #12]
 8004182:	600a      	str	r2, [r1, #0]
 8004184:	d1db      	bne.n	800413e <_scanf_float+0x39a>
 8004186:	f8d3 8000 	ldr.w	r8, [r3]
 800418a:	ee10 2a10 	vmov	r2, s0
 800418e:	ee10 0a10 	vmov	r0, s0
 8004192:	463b      	mov	r3, r7
 8004194:	4639      	mov	r1, r7
 8004196:	f7fc fcd1 	bl	8000b3c <__aeabi_dcmpun>
 800419a:	b128      	cbz	r0, 80041a8 <_scanf_float+0x404>
 800419c:	4808      	ldr	r0, [pc, #32]	; (80041c0 <_scanf_float+0x41c>)
 800419e:	f000 f811 	bl	80041c4 <nanf>
 80041a2:	ed88 0a00 	vstr	s0, [r8]
 80041a6:	e7cd      	b.n	8004144 <_scanf_float+0x3a0>
 80041a8:	4630      	mov	r0, r6
 80041aa:	4639      	mov	r1, r7
 80041ac:	f7fc fd24 	bl	8000bf8 <__aeabi_d2f>
 80041b0:	f8c8 0000 	str.w	r0, [r8]
 80041b4:	e7c6      	b.n	8004144 <_scanf_float+0x3a0>
 80041b6:	2500      	movs	r5, #0
 80041b8:	e635      	b.n	8003e26 <_scanf_float+0x82>
 80041ba:	bf00      	nop
 80041bc:	080080bc 	.word	0x080080bc
 80041c0:	08007e1f 	.word	0x08007e1f

080041c4 <nanf>:
 80041c4:	ed9f 0a01 	vldr	s0, [pc, #4]	; 80041cc <nanf+0x8>
 80041c8:	4770      	bx	lr
 80041ca:	bf00      	nop
 80041cc:	7fc00000 	.word	0x7fc00000

080041d0 <siprintf>:
 80041d0:	b40e      	push	{r1, r2, r3}
 80041d2:	b500      	push	{lr}
 80041d4:	b09c      	sub	sp, #112	; 0x70
 80041d6:	ab1d      	add	r3, sp, #116	; 0x74
 80041d8:	9002      	str	r0, [sp, #8]
 80041da:	9006      	str	r0, [sp, #24]
 80041dc:	f06f 4100 	mvn.w	r1, #2147483648	; 0x80000000
 80041e0:	4809      	ldr	r0, [pc, #36]	; (8004208 <siprintf+0x38>)
 80041e2:	9107      	str	r1, [sp, #28]
 80041e4:	9104      	str	r1, [sp, #16]
 80041e6:	4909      	ldr	r1, [pc, #36]	; (800420c <siprintf+0x3c>)
 80041e8:	f853 2b04 	ldr.w	r2, [r3], #4
 80041ec:	9105      	str	r1, [sp, #20]
 80041ee:	6800      	ldr	r0, [r0, #0]
 80041f0:	9301      	str	r3, [sp, #4]
 80041f2:	a902      	add	r1, sp, #8
 80041f4:	f002 fedc 	bl	8006fb0 <_svfiprintf_r>
 80041f8:	9b02      	ldr	r3, [sp, #8]
 80041fa:	2200      	movs	r2, #0
 80041fc:	701a      	strb	r2, [r3, #0]
 80041fe:	b01c      	add	sp, #112	; 0x70
 8004200:	f85d eb04 	ldr.w	lr, [sp], #4
 8004204:	b003      	add	sp, #12
 8004206:	4770      	bx	lr
 8004208:	2000000c 	.word	0x2000000c
 800420c:	ffff0208 	.word	0xffff0208

08004210 <strstr>:
 8004210:	b5f0      	push	{r4, r5, r6, r7, lr}
 8004212:	780c      	ldrb	r4, [r1, #0]
 8004214:	b164      	cbz	r4, 8004230 <strstr+0x20>
 8004216:	4603      	mov	r3, r0
 8004218:	781a      	ldrb	r2, [r3, #0]
 800421a:	4618      	mov	r0, r3
 800421c:	1c5e      	adds	r6, r3, #1
 800421e:	b90a      	cbnz	r2, 8004224 <strstr+0x14>
 8004220:	4610      	mov	r0, r2
 8004222:	e005      	b.n	8004230 <strstr+0x20>
 8004224:	4294      	cmp	r4, r2
 8004226:	d108      	bne.n	800423a <strstr+0x2a>
 8004228:	460d      	mov	r5, r1
 800422a:	f815 2f01 	ldrb.w	r2, [r5, #1]!
 800422e:	b902      	cbnz	r2, 8004232 <strstr+0x22>
 8004230:	bdf0      	pop	{r4, r5, r6, r7, pc}
 8004232:	f813 7f01 	ldrb.w	r7, [r3, #1]!
 8004236:	4297      	cmp	r7, r2
 8004238:	d0f7      	beq.n	800422a <strstr+0x1a>
 800423a:	4633      	mov	r3, r6
 800423c:	e7ec      	b.n	8004218 <strstr+0x8>

0800423e <sulp>:
 800423e:	b570      	push	{r4, r5, r6, lr}
 8004240:	4604      	mov	r4, r0
 8004242:	460d      	mov	r5, r1
 8004244:	ec45 4b10 	vmov	d0, r4, r5
 8004248:	4616      	mov	r6, r2
 800424a:	f002 fc4d 	bl	8006ae8 <__ulp>
 800424e:	ec51 0b10 	vmov	r0, r1, d0
 8004252:	b17e      	cbz	r6, 8004274 <sulp+0x36>
 8004254:	f3c5 530a 	ubfx	r3, r5, #20, #11
 8004258:	f1c3 036b 	rsb	r3, r3, #107	; 0x6b
 800425c:	2b00      	cmp	r3, #0
 800425e:	dd09      	ble.n	8004274 <sulp+0x36>
 8004260:	051b      	lsls	r3, r3, #20
 8004262:	f103 557f 	add.w	r5, r3, #1069547520	; 0x3fc00000
 8004266:	2400      	movs	r4, #0
 8004268:	f505 1540 	add.w	r5, r5, #3145728	; 0x300000
 800426c:	4622      	mov	r2, r4
 800426e:	462b      	mov	r3, r5
 8004270:	f7fc f9ca 	bl	8000608 <__aeabi_dmul>
 8004274:	bd70      	pop	{r4, r5, r6, pc}
	...

08004278 <_strtod_l>:
 8004278:	e92d 4ff0 	stmdb	sp!, {r4, r5, r6, r7, r8, r9, sl, fp, lr}
 800427c:	b0a3      	sub	sp, #140	; 0x8c
 800427e:	461f      	mov	r7, r3
 8004280:	2300      	movs	r3, #0
 8004282:	931e      	str	r3, [sp, #120]	; 0x78
 8004284:	4ba4      	ldr	r3, [pc, #656]	; (8004518 <_strtod_l+0x2a0>)
 8004286:	9219      	str	r2, [sp, #100]	; 0x64
 8004288:	681b      	ldr	r3, [r3, #0]
 800428a:	9307      	str	r3, [sp, #28]
 800428c:	4604      	mov	r4, r0
 800428e:	4618      	mov	r0, r3
 8004290:	4688      	mov	r8, r1
 8004292:	f7fb ffa5 	bl	80001e0 <strlen>
 8004296:	f04f 0a00 	mov.w	sl, #0
 800429a:	4605      	mov	r5, r0
 800429c:	f04f 0b00 	mov.w	fp, #0
 80042a0:	f8cd 8074 	str.w	r8, [sp, #116]	; 0x74
 80042a4:	9b1d      	ldr	r3, [sp, #116]	; 0x74
 80042a6:	781a      	ldrb	r2, [r3, #0]
 80042a8:	2a2b      	cmp	r2, #43	; 0x2b
 80042aa:	d04c      	beq.n	8004346 <_strtod_l+0xce>
 80042ac:	d839      	bhi.n	8004322 <_strtod_l+0xaa>
 80042ae:	2a0d      	cmp	r2, #13
 80042b0:	d832      	bhi.n	8004318 <_strtod_l+0xa0>
 80042b2:	2a08      	cmp	r2, #8
 80042b4:	d832      	bhi.n	800431c <_strtod_l+0xa4>
 80042b6:	2a00      	cmp	r2, #0
 80042b8:	d03c      	beq.n	8004334 <_strtod_l+0xbc>
 80042ba:	2300      	movs	r3, #0
 80042bc:	930e      	str	r3, [sp, #56]	; 0x38
 80042be:	9e1d      	ldr	r6, [sp, #116]	; 0x74
 80042c0:	7833      	ldrb	r3, [r6, #0]
 80042c2:	2b30      	cmp	r3, #48	; 0x30
 80042c4:	f040 80b4 	bne.w	8004430 <_strtod_l+0x1b8>
 80042c8:	7873      	ldrb	r3, [r6, #1]
 80042ca:	f003 03df 	and.w	r3, r3, #223	; 0xdf
 80042ce:	2b58      	cmp	r3, #88	; 0x58
 80042d0:	d16c      	bne.n	80043ac <_strtod_l+0x134>
 80042d2:	9b0e      	ldr	r3, [sp, #56]	; 0x38
 80042d4:	9301      	str	r3, [sp, #4]
 80042d6:	ab1e      	add	r3, sp, #120	; 0x78
 80042d8:	9702      	str	r7, [sp, #8]
 80042da:	9300      	str	r3, [sp, #0]
 80042dc:	4a8f      	ldr	r2, [pc, #572]	; (800451c <_strtod_l+0x2a4>)
 80042de:	ab1f      	add	r3, sp, #124	; 0x7c
 80042e0:	a91d      	add	r1, sp, #116	; 0x74
 80042e2:	4620      	mov	r0, r4
 80042e4:	f001 fd60 	bl	8005da8 <__gethex>
 80042e8:	f010 0707 	ands.w	r7, r0, #7
 80042ec:	4605      	mov	r5, r0
 80042ee:	d005      	beq.n	80042fc <_strtod_l+0x84>
 80042f0:	2f06      	cmp	r7, #6
 80042f2:	d12a      	bne.n	800434a <_strtod_l+0xd2>
 80042f4:	3601      	adds	r6, #1
 80042f6:	2300      	movs	r3, #0
 80042f8:	961d      	str	r6, [sp, #116]	; 0x74
 80042fa:	930e      	str	r3, [sp, #56]	; 0x38
 80042fc:	9b19      	ldr	r3, [sp, #100]	; 0x64
 80042fe:	2b00      	cmp	r3, #0
 8004300:	f040 8596 	bne.w	8004e30 <_strtod_l+0xbb8>
 8004304:	9b0e      	ldr	r3, [sp, #56]	; 0x38
 8004306:	b1db      	cbz	r3, 8004340 <_strtod_l+0xc8>
 8004308:	4652      	mov	r2, sl
 800430a:	f10b 4300 	add.w	r3, fp, #2147483648	; 0x80000000
 800430e:	ec43 2b10 	vmov	d0, r2, r3
 8004312:	b023      	add	sp, #140	; 0x8c
 8004314:	e8bd 8ff0 	ldmia.w	sp!, {r4, r5, r6, r7, r8, r9, sl, fp, pc}
 8004318:	2a20      	cmp	r2, #32
 800431a:	d1ce      	bne.n	80042ba <_strtod_l+0x42>
 800431c:	3301      	adds	r3, #1
 800431e:	931d      	str	r3, [sp, #116]	; 0x74
 8004320:	e7c0      	b.n	80042a4 <_strtod_l+0x2c>
 8004322:	2a2d      	cmp	r2, #45	; 0x2d
 8004324:	d1c9      	bne.n	80042ba <_strtod_l+0x42>
 8004326:	2201      	movs	r2, #1
 8004328:	920e      	str	r2, [sp, #56]	; 0x38
 800432a:	1c5a      	adds	r2, r3, #1
 800432c:	921d      	str	r2, [sp, #116]	; 0x74
 800432e:	785b      	ldrb	r3, [r3, #1]
 8004330:	2b00      	cmp	r3, #0
 8004332:	d1c4      	bne.n	80042be <_strtod_l+0x46>
 8004334:	9b19      	ldr	r3, [sp, #100]	; 0x64
 8004336:	f8cd 8074 	str.w	r8, [sp, #116]	; 0x74
 800433a:	2b00      	cmp	r3, #0
 800433c:	f040 8576 	bne.w	8004e2c <_strtod_l+0xbb4>
 8004340:	4652      	mov	r2, sl
 8004342:	465b      	mov	r3, fp
 8004344:	e7e3      	b.n	800430e <_strtod_l+0x96>
 8004346:	2200      	movs	r2, #0
 8004348:	e7ee      	b.n	8004328 <_strtod_l+0xb0>
 800434a:	9a1e      	ldr	r2, [sp, #120]	; 0x78
 800434c:	b13a      	cbz	r2, 800435e <_strtod_l+0xe6>
 800434e:	2135      	movs	r1, #53	; 0x35
 8004350:	a820      	add	r0, sp, #128	; 0x80
 8004352:	f002 fcd4 	bl	8006cfe <__copybits>
 8004356:	991e      	ldr	r1, [sp, #120]	; 0x78
 8004358:	4620      	mov	r0, r4
 800435a:	f002 f899 	bl	8006490 <_Bfree>
 800435e:	3f01      	subs	r7, #1
 8004360:	2f05      	cmp	r7, #5
 8004362:	d807      	bhi.n	8004374 <_strtod_l+0xfc>
 8004364:	e8df f007 	tbb	[pc, r7]
 8004368:	1d180b0e 	.word	0x1d180b0e
 800436c:	030e      	.short	0x030e
 800436e:	f04f 0b00 	mov.w	fp, #0
 8004372:	46da      	mov	sl, fp
 8004374:	0728      	lsls	r0, r5, #28
 8004376:	d5c1      	bpl.n	80042fc <_strtod_l+0x84>
 8004378:	f04b 4b00 	orr.w	fp, fp, #2147483648	; 0x80000000
 800437c:	e7be      	b.n	80042fc <_strtod_l+0x84>
 800437e:	e9dd ab20 	ldrd	sl, fp, [sp, #128]	; 0x80
 8004382:	e7f7      	b.n	8004374 <_strtod_l+0xfc>
 8004384:	e9dd a320 	ldrd	sl, r3, [sp, #128]	; 0x80
 8004388:	9a1f      	ldr	r2, [sp, #124]	; 0x7c
 800438a:	f423 1380 	bic.w	r3, r3, #1048576	; 0x100000
 800438e:	f202 4233 	addw	r2, r2, #1075	; 0x433
 8004392:	ea43 5b02 	orr.w	fp, r3, r2, lsl #20
 8004396:	e7ed      	b.n	8004374 <_strtod_l+0xfc>
 8004398:	f8df b184 	ldr.w	fp, [pc, #388]	; 8004520 <_strtod_l+0x2a8>
 800439c:	f04f 0a00 	mov.w	sl, #0
 80043a0:	e7e8      	b.n	8004374 <_strtod_l+0xfc>
 80043a2:	f06f 4b00 	mvn.w	fp, #2147483648	; 0x80000000
 80043a6:	f04f 3aff 	mov.w	sl, #4294967295
 80043aa:	e7e3      	b.n	8004374 <_strtod_l+0xfc>
 80043ac:	9b1d      	ldr	r3, [sp, #116]	; 0x74
 80043ae:	1c5a      	adds	r2, r3, #1
 80043b0:	921d      	str	r2, [sp, #116]	; 0x74
 80043b2:	785b      	ldrb	r3, [r3, #1]
 80043b4:	2b30      	cmp	r3, #48	; 0x30
 80043b6:	d0f9      	beq.n	80043ac <_strtod_l+0x134>
 80043b8:	2b00      	cmp	r3, #0
 80043ba:	d09f      	beq.n	80042fc <_strtod_l+0x84>
 80043bc:	2301      	movs	r3, #1
 80043be:	f04f 0900 	mov.w	r9, #0
 80043c2:	9304      	str	r3, [sp, #16]
 80043c4:	9b1d      	ldr	r3, [sp, #116]	; 0x74
 80043c6:	930a      	str	r3, [sp, #40]	; 0x28
 80043c8:	f8cd 9024 	str.w	r9, [sp, #36]	; 0x24
 80043cc:	464f      	mov	r7, r9
 80043ce:	220a      	movs	r2, #10
 80043d0:	981d      	ldr	r0, [sp, #116]	; 0x74
 80043d2:	7806      	ldrb	r6, [r0, #0]
 80043d4:	f1a6 0330 	sub.w	r3, r6, #48	; 0x30
 80043d8:	b2d9      	uxtb	r1, r3
 80043da:	2909      	cmp	r1, #9
 80043dc:	d92a      	bls.n	8004434 <_strtod_l+0x1bc>
 80043de:	9907      	ldr	r1, [sp, #28]
 80043e0:	462a      	mov	r2, r5
 80043e2:	f002 fefd 	bl	80071e0 <strncmp>
 80043e6:	b398      	cbz	r0, 8004450 <_strtod_l+0x1d8>
 80043e8:	2000      	movs	r0, #0
 80043ea:	4633      	mov	r3, r6
 80043ec:	463d      	mov	r5, r7
 80043ee:	9007      	str	r0, [sp, #28]
 80043f0:	4602      	mov	r2, r0
 80043f2:	2b65      	cmp	r3, #101	; 0x65
 80043f4:	d001      	beq.n	80043fa <_strtod_l+0x182>
 80043f6:	2b45      	cmp	r3, #69	; 0x45
 80043f8:	d118      	bne.n	800442c <_strtod_l+0x1b4>
 80043fa:	b91d      	cbnz	r5, 8004404 <_strtod_l+0x18c>
 80043fc:	9b04      	ldr	r3, [sp, #16]
 80043fe:	4303      	orrs	r3, r0
 8004400:	d098      	beq.n	8004334 <_strtod_l+0xbc>
 8004402:	2500      	movs	r5, #0
 8004404:	f8dd 8074 	ldr.w	r8, [sp, #116]	; 0x74
 8004408:	f108 0301 	add.w	r3, r8, #1
 800440c:	931d      	str	r3, [sp, #116]	; 0x74
 800440e:	f898 3001 	ldrb.w	r3, [r8, #1]
 8004412:	2b2b      	cmp	r3, #43	; 0x2b
 8004414:	d075      	beq.n	8004502 <_strtod_l+0x28a>
 8004416:	2b2d      	cmp	r3, #45	; 0x2d
 8004418:	d07b      	beq.n	8004512 <_strtod_l+0x29a>
 800441a:	f04f 0c00 	mov.w	ip, #0
 800441e:	f1a3 0130 	sub.w	r1, r3, #48	; 0x30
 8004422:	2909      	cmp	r1, #9
 8004424:	f240 8082 	bls.w	800452c <_strtod_l+0x2b4>
 8004428:	f8cd 8074 	str.w	r8, [sp, #116]	; 0x74
 800442c:	2600      	movs	r6, #0
 800442e:	e09d      	b.n	800456c <_strtod_l+0x2f4>
 8004430:	2300      	movs	r3, #0
 8004432:	e7c4      	b.n	80043be <_strtod_l+0x146>
 8004434:	2f08      	cmp	r7, #8
 8004436:	bfd8      	it	le
 8004438:	9909      	ldrle	r1, [sp, #36]	; 0x24
 800443a:	f100 0001 	add.w	r0, r0, #1
 800443e:	bfda      	itte	le
 8004440:	fb02 3301 	mlale	r3, r2, r1, r3
 8004444:	9309      	strle	r3, [sp, #36]	; 0x24
 8004446:	fb02 3909 	mlagt	r9, r2, r9, r3
 800444a:	3701      	adds	r7, #1
 800444c:	901d      	str	r0, [sp, #116]	; 0x74
 800444e:	e7bf      	b.n	80043d0 <_strtod_l+0x158>
 8004450:	9b1d      	ldr	r3, [sp, #116]	; 0x74
 8004452:	195a      	adds	r2, r3, r5
 8004454:	921d      	str	r2, [sp, #116]	; 0x74
 8004456:	5d5b      	ldrb	r3, [r3, r5]
 8004458:	2f00      	cmp	r7, #0
 800445a:	d037      	beq.n	80044cc <_strtod_l+0x254>
 800445c:	9007      	str	r0, [sp, #28]
 800445e:	463d      	mov	r5, r7
 8004460:	f1a3 0230 	sub.w	r2, r3, #48	; 0x30
 8004464:	2a09      	cmp	r2, #9
 8004466:	d912      	bls.n	800448e <_strtod_l+0x216>
 8004468:	2201      	movs	r2, #1
 800446a:	e7c2      	b.n	80043f2 <_strtod_l+0x17a>
 800446c:	9b1d      	ldr	r3, [sp, #116]	; 0x74
 800446e:	1c5a      	adds	r2, r3, #1
 8004470:	921d      	str	r2, [sp, #116]	; 0x74
 8004472:	785b      	ldrb	r3, [r3, #1]
 8004474:	3001      	adds	r0, #1
 8004476:	2b30      	cmp	r3, #48	; 0x30
 8004478:	d0f8      	beq.n	800446c <_strtod_l+0x1f4>
 800447a:	f1a3 0231 	sub.w	r2, r3, #49	; 0x31
 800447e:	2a08      	cmp	r2, #8
 8004480:	f200 84db 	bhi.w	8004e3a <_strtod_l+0xbc2>
 8004484:	9a1d      	ldr	r2, [sp, #116]	; 0x74
 8004486:	9007      	str	r0, [sp, #28]
 8004488:	2000      	movs	r0, #0
 800448a:	920a      	str	r2, [sp, #40]	; 0x28
 800448c:	4605      	mov	r5, r0
 800448e:	3b30      	subs	r3, #48	; 0x30
 8004490:	f100 0201 	add.w	r2, r0, #1
 8004494:	d014      	beq.n	80044c0 <_strtod_l+0x248>
 8004496:	9907      	ldr	r1, [sp, #28]
 8004498:	4411      	add	r1, r2
 800449a:	9107      	str	r1, [sp, #28]
 800449c:	462a      	mov	r2, r5
 800449e:	eb00 0e05 	add.w	lr, r0, r5
 80044a2:	210a      	movs	r1, #10
 80044a4:	4572      	cmp	r2, lr
 80044a6:	d113      	bne.n	80044d0 <_strtod_l+0x258>
 80044a8:	182a      	adds	r2, r5, r0
 80044aa:	2a08      	cmp	r2, #8
 80044ac:	f105 0501 	add.w	r5, r5, #1
 80044b0:	4405      	add	r5, r0
 80044b2:	dc1c      	bgt.n	80044ee <_strtod_l+0x276>
 80044b4:	9909      	ldr	r1, [sp, #36]	; 0x24
 80044b6:	220a      	movs	r2, #10
 80044b8:	fb02 3301 	mla	r3, r2, r1, r3
 80044bc:	9309      	str	r3, [sp, #36]	; 0x24
 80044be:	2200      	movs	r2, #0
 80044c0:	9b1d      	ldr	r3, [sp, #116]	; 0x74
 80044c2:	1c59      	adds	r1, r3, #1
 80044c4:	911d      	str	r1, [sp, #116]	; 0x74
 80044c6:	785b      	ldrb	r3, [r3, #1]
 80044c8:	4610      	mov	r0, r2
 80044ca:	e7c9      	b.n	8004460 <_strtod_l+0x1e8>
 80044cc:	4638      	mov	r0, r7
 80044ce:	e7d2      	b.n	8004476 <_strtod_l+0x1fe>
 80044d0:	2a08      	cmp	r2, #8
 80044d2:	dc04      	bgt.n	80044de <_strtod_l+0x266>
 80044d4:	9e09      	ldr	r6, [sp, #36]	; 0x24
 80044d6:	434e      	muls	r6, r1
 80044d8:	9609      	str	r6, [sp, #36]	; 0x24
 80044da:	3201      	adds	r2, #1
 80044dc:	e7e2      	b.n	80044a4 <_strtod_l+0x22c>
 80044de:	f102 0c01 	add.w	ip, r2, #1
 80044e2:	f1bc 0f10 	cmp.w	ip, #16
 80044e6:	bfd8      	it	le
 80044e8:	fb01 f909 	mulle.w	r9, r1, r9
 80044ec:	e7f5      	b.n	80044da <_strtod_l+0x262>
 80044ee:	2d10      	cmp	r5, #16
 80044f0:	bfdc      	itt	le
 80044f2:	220a      	movle	r2, #10
 80044f4:	fb02 3909 	mlale	r9, r2, r9, r3
 80044f8:	e7e1      	b.n	80044be <_strtod_l+0x246>
 80044fa:	2300      	movs	r3, #0
 80044fc:	9307      	str	r3, [sp, #28]
 80044fe:	2201      	movs	r2, #1
 8004500:	e77c      	b.n	80043fc <_strtod_l+0x184>
 8004502:	f04f 0c00 	mov.w	ip, #0
 8004506:	f108 0302 	add.w	r3, r8, #2
 800450a:	931d      	str	r3, [sp, #116]	; 0x74
 800450c:	f898 3002 	ldrb.w	r3, [r8, #2]
 8004510:	e785      	b.n	800441e <_strtod_l+0x1a6>
 8004512:	f04f 0c01 	mov.w	ip, #1
 8004516:	e7f6      	b.n	8004506 <_strtod_l+0x28e>
 8004518:	08008318 	.word	0x08008318
 800451c:	080080c4 	.word	0x080080c4
 8004520:	7ff00000 	.word	0x7ff00000
 8004524:	9b1d      	ldr	r3, [sp, #116]	; 0x74
 8004526:	1c59      	adds	r1, r3, #1
 8004528:	911d      	str	r1, [sp, #116]	; 0x74
 800452a:	785b      	ldrb	r3, [r3, #1]
 800452c:	2b30      	cmp	r3, #48	; 0x30
 800452e:	d0f9      	beq.n	8004524 <_strtod_l+0x2ac>
 8004530:	f1a3 0131 	sub.w	r1, r3, #49	; 0x31
 8004534:	2908      	cmp	r1, #8
 8004536:	f63f af79 	bhi.w	800442c <_strtod_l+0x1b4>
 800453a:	f1a3 0e30 	sub.w	lr, r3, #48	; 0x30
 800453e:	9b1d      	ldr	r3, [sp, #116]	; 0x74
 8004540:	9308      	str	r3, [sp, #32]
 8004542:	9b1d      	ldr	r3, [sp, #116]	; 0x74
 8004544:	1c59      	adds	r1, r3, #1
 8004546:	911d      	str	r1, [sp, #116]	; 0x74
 8004548:	785b      	ldrb	r3, [r3, #1]
 800454a:	f1a3 0630 	sub.w	r6, r3, #48	; 0x30
 800454e:	2e09      	cmp	r6, #9
 8004550:	d937      	bls.n	80045c2 <_strtod_l+0x34a>
 8004552:	9e08      	ldr	r6, [sp, #32]
 8004554:	1b89      	subs	r1, r1, r6
 8004556:	2908      	cmp	r1, #8
 8004558:	f644 661f 	movw	r6, #19999	; 0x4e1f
 800455c:	dc02      	bgt.n	8004564 <_strtod_l+0x2ec>
 800455e:	4576      	cmp	r6, lr
 8004560:	bfa8      	it	ge
 8004562:	4676      	movge	r6, lr
 8004564:	f1bc 0f00 	cmp.w	ip, #0
 8004568:	d000      	beq.n	800456c <_strtod_l+0x2f4>
 800456a:	4276      	negs	r6, r6
 800456c:	2d00      	cmp	r5, #0
 800456e:	d14f      	bne.n	8004610 <_strtod_l+0x398>
 8004570:	9904      	ldr	r1, [sp, #16]
 8004572:	4301      	orrs	r1, r0
 8004574:	f47f aec2 	bne.w	80042fc <_strtod_l+0x84>
 8004578:	2a00      	cmp	r2, #0
 800457a:	f47f aedb 	bne.w	8004334 <_strtod_l+0xbc>
 800457e:	2b69      	cmp	r3, #105	; 0x69
 8004580:	d027      	beq.n	80045d2 <_strtod_l+0x35a>
 8004582:	dc24      	bgt.n	80045ce <_strtod_l+0x356>
 8004584:	2b49      	cmp	r3, #73	; 0x49
 8004586:	d024      	beq.n	80045d2 <_strtod_l+0x35a>
 8004588:	2b4e      	cmp	r3, #78	; 0x4e
 800458a:	f47f aed3 	bne.w	8004334 <_strtod_l+0xbc>
 800458e:	499e      	ldr	r1, [pc, #632]	; (8004808 <_strtod_l+0x590>)
 8004590:	a81d      	add	r0, sp, #116	; 0x74
 8004592:	f001 fe61 	bl	8006258 <__match>
 8004596:	2800      	cmp	r0, #0
 8004598:	f43f aecc 	beq.w	8004334 <_strtod_l+0xbc>
 800459c:	9b1d      	ldr	r3, [sp, #116]	; 0x74
 800459e:	781b      	ldrb	r3, [r3, #0]
 80045a0:	2b28      	cmp	r3, #40	; 0x28
 80045a2:	d12d      	bne.n	8004600 <_strtod_l+0x388>
 80045a4:	4999      	ldr	r1, [pc, #612]	; (800480c <_strtod_l+0x594>)
 80045a6:	aa20      	add	r2, sp, #128	; 0x80
 80045a8:	a81d      	add	r0, sp, #116	; 0x74
 80045aa:	f001 fe69 	bl	8006280 <__hexnan>
 80045ae:	2805      	cmp	r0, #5
 80045b0:	d126      	bne.n	8004600 <_strtod_l+0x388>
 80045b2:	9b21      	ldr	r3, [sp, #132]	; 0x84
 80045b4:	f8dd a080 	ldr.w	sl, [sp, #128]	; 0x80
 80045b8:	f043 4bff 	orr.w	fp, r3, #2139095040	; 0x7f800000
 80045bc:	f44b 0be0 	orr.w	fp, fp, #7340032	; 0x700000
 80045c0:	e69c      	b.n	80042fc <_strtod_l+0x84>
 80045c2:	210a      	movs	r1, #10
 80045c4:	fb01 3e0e 	mla	lr, r1, lr, r3
 80045c8:	f1ae 0e30 	sub.w	lr, lr, #48	; 0x30
 80045cc:	e7b9      	b.n	8004542 <_strtod_l+0x2ca>
 80045ce:	2b6e      	cmp	r3, #110	; 0x6e
 80045d0:	e7db      	b.n	800458a <_strtod_l+0x312>
 80045d2:	498f      	ldr	r1, [pc, #572]	; (8004810 <_strtod_l+0x598>)
 80045d4:	a81d      	add	r0, sp, #116	; 0x74
 80045d6:	f001 fe3f 	bl	8006258 <__match>
 80045da:	2800      	cmp	r0, #0
 80045dc:	f43f aeaa 	beq.w	8004334 <_strtod_l+0xbc>
 80045e0:	9b1d      	ldr	r3, [sp, #116]	; 0x74
 80045e2:	498c      	ldr	r1, [pc, #560]	; (8004814 <_strtod_l+0x59c>)
 80045e4:	3b01      	subs	r3, #1
 80045e6:	a81d      	add	r0, sp, #116	; 0x74
 80045e8:	931d      	str	r3, [sp, #116]	; 0x74
 80045ea:	f001 fe35 	bl	8006258 <__match>
 80045ee:	b910      	cbnz	r0, 80045f6 <_strtod_l+0x37e>
 80045f0:	9b1d      	ldr	r3, [sp, #116]	; 0x74
 80045f2:	3301      	adds	r3, #1
 80045f4:	931d      	str	r3, [sp, #116]	; 0x74
 80045f6:	f8df b22c 	ldr.w	fp, [pc, #556]	; 8004824 <_strtod_l+0x5ac>
 80045fa:	f04f 0a00 	mov.w	sl, #0
 80045fe:	e67d      	b.n	80042fc <_strtod_l+0x84>
 8004600:	4885      	ldr	r0, [pc, #532]	; (8004818 <_strtod_l+0x5a0>)
 8004602:	f002 fdd5 	bl	80071b0 <nan>
 8004606:	ed8d 0b04 	vstr	d0, [sp, #16]
 800460a:	e9dd ab04 	ldrd	sl, fp, [sp, #16]
 800460e:	e675      	b.n	80042fc <_strtod_l+0x84>
 8004610:	9b07      	ldr	r3, [sp, #28]
 8004612:	9809      	ldr	r0, [sp, #36]	; 0x24
 8004614:	1af3      	subs	r3, r6, r3
 8004616:	2f00      	cmp	r7, #0
 8004618:	bf08      	it	eq
 800461a:	462f      	moveq	r7, r5
 800461c:	2d10      	cmp	r5, #16
 800461e:	9308      	str	r3, [sp, #32]
 8004620:	46a8      	mov	r8, r5
 8004622:	bfa8      	it	ge
 8004624:	f04f 0810 	movge.w	r8, #16
 8004628:	f7fb ff74 	bl	8000514 <__aeabi_ui2d>
 800462c:	2d09      	cmp	r5, #9
 800462e:	4682      	mov	sl, r0
 8004630:	468b      	mov	fp, r1
 8004632:	dd13      	ble.n	800465c <_strtod_l+0x3e4>
 8004634:	4b79      	ldr	r3, [pc, #484]	; (800481c <_strtod_l+0x5a4>)
 8004636:	eb03 03c8 	add.w	r3, r3, r8, lsl #3
 800463a:	e953 2312 	ldrd	r2, r3, [r3, #-72]	; 0x48
 800463e:	f7fb ffe3 	bl	8000608 <__aeabi_dmul>
 8004642:	4682      	mov	sl, r0
 8004644:	4648      	mov	r0, r9
 8004646:	468b      	mov	fp, r1
 8004648:	f7fb ff64 	bl	8000514 <__aeabi_ui2d>
 800464c:	4602      	mov	r2, r0
 800464e:	460b      	mov	r3, r1
 8004650:	4650      	mov	r0, sl
 8004652:	4659      	mov	r1, fp
 8004654:	f7fb fe22 	bl	800029c <__adddf3>
 8004658:	4682      	mov	sl, r0
 800465a:	468b      	mov	fp, r1
 800465c:	2d0f      	cmp	r5, #15
 800465e:	dc38      	bgt.n	80046d2 <_strtod_l+0x45a>
 8004660:	9b08      	ldr	r3, [sp, #32]
 8004662:	2b00      	cmp	r3, #0
 8004664:	f43f ae4a 	beq.w	80042fc <_strtod_l+0x84>
 8004668:	dd24      	ble.n	80046b4 <_strtod_l+0x43c>
 800466a:	2b16      	cmp	r3, #22
 800466c:	dc0b      	bgt.n	8004686 <_strtod_l+0x40e>
 800466e:	4d6b      	ldr	r5, [pc, #428]	; (800481c <_strtod_l+0x5a4>)
 8004670:	eb05 05c3 	add.w	r5, r5, r3, lsl #3
 8004674:	e9d5 0100 	ldrd	r0, r1, [r5]
 8004678:	4652      	mov	r2, sl
 800467a:	465b      	mov	r3, fp
 800467c:	f7fb ffc4 	bl	8000608 <__aeabi_dmul>
 8004680:	4682      	mov	sl, r0
 8004682:	468b      	mov	fp, r1
 8004684:	e63a      	b.n	80042fc <_strtod_l+0x84>
 8004686:	9a08      	ldr	r2, [sp, #32]
 8004688:	f1c5 0325 	rsb	r3, r5, #37	; 0x25
 800468c:	4293      	cmp	r3, r2
 800468e:	db20      	blt.n	80046d2 <_strtod_l+0x45a>
 8004690:	4c62      	ldr	r4, [pc, #392]	; (800481c <_strtod_l+0x5a4>)
 8004692:	f1c5 050f 	rsb	r5, r5, #15
 8004696:	eb04 01c5 	add.w	r1, r4, r5, lsl #3
 800469a:	4652      	mov	r2, sl
 800469c:	465b      	mov	r3, fp
 800469e:	e9d1 0100 	ldrd	r0, r1, [r1]
 80046a2:	f7fb ffb1 	bl	8000608 <__aeabi_dmul>
 80046a6:	9b08      	ldr	r3, [sp, #32]
 80046a8:	1b5d      	subs	r5, r3, r5
 80046aa:	eb04 04c5 	add.w	r4, r4, r5, lsl #3
 80046ae:	e9d4 2300 	ldrd	r2, r3, [r4]
 80046b2:	e7e3      	b.n	800467c <_strtod_l+0x404>
 80046b4:	9b08      	ldr	r3, [sp, #32]
 80046b6:	3316      	adds	r3, #22
 80046b8:	db0b      	blt.n	80046d2 <_strtod_l+0x45a>
 80046ba:	9b07      	ldr	r3, [sp, #28]
 80046bc:	4a57      	ldr	r2, [pc, #348]	; (800481c <_strtod_l+0x5a4>)
 80046be:	1b9e      	subs	r6, r3, r6
 80046c0:	eb02 06c6 	add.w	r6, r2, r6, lsl #3
 80046c4:	e9d6 2300 	ldrd	r2, r3, [r6]
 80046c8:	4650      	mov	r0, sl
 80046ca:	4659      	mov	r1, fp
 80046cc:	f7fc f8c6 	bl	800085c <__aeabi_ddiv>
 80046d0:	e7d6      	b.n	8004680 <_strtod_l+0x408>
 80046d2:	9b08      	ldr	r3, [sp, #32]
 80046d4:	eba5 0808 	sub.w	r8, r5, r8
 80046d8:	4498      	add	r8, r3
 80046da:	f1b8 0f00 	cmp.w	r8, #0
 80046de:	dd71      	ble.n	80047c4 <_strtod_l+0x54c>
 80046e0:	f018 030f 	ands.w	r3, r8, #15
 80046e4:	d00a      	beq.n	80046fc <_strtod_l+0x484>
 80046e6:	494d      	ldr	r1, [pc, #308]	; (800481c <_strtod_l+0x5a4>)
 80046e8:	eb01 01c3 	add.w	r1, r1, r3, lsl #3
 80046ec:	4652      	mov	r2, sl
 80046ee:	465b      	mov	r3, fp
 80046f0:	e9d1 0100 	ldrd	r0, r1, [r1]
 80046f4:	f7fb ff88 	bl	8000608 <__aeabi_dmul>
 80046f8:	4682      	mov	sl, r0
 80046fa:	468b      	mov	fp, r1
 80046fc:	f038 080f 	bics.w	r8, r8, #15
 8004700:	d04d      	beq.n	800479e <_strtod_l+0x526>
 8004702:	f5b8 7f9a 	cmp.w	r8, #308	; 0x134
 8004706:	dd22      	ble.n	800474e <_strtod_l+0x4d6>
 8004708:	2500      	movs	r5, #0
 800470a:	462e      	mov	r6, r5
 800470c:	9509      	str	r5, [sp, #36]	; 0x24
 800470e:	9507      	str	r5, [sp, #28]
 8004710:	2322      	movs	r3, #34	; 0x22
 8004712:	f8df b110 	ldr.w	fp, [pc, #272]	; 8004824 <_strtod_l+0x5ac>
 8004716:	6023      	str	r3, [r4, #0]
 8004718:	f04f 0a00 	mov.w	sl, #0
 800471c:	9b09      	ldr	r3, [sp, #36]	; 0x24
 800471e:	2b00      	cmp	r3, #0
 8004720:	f43f adec 	beq.w	80042fc <_strtod_l+0x84>
 8004724:	991e      	ldr	r1, [sp, #120]	; 0x78
 8004726:	4620      	mov	r0, r4
 8004728:	f001 feb2 	bl	8006490 <_Bfree>
 800472c:	9907      	ldr	r1, [sp, #28]
 800472e:	4620      	mov	r0, r4
 8004730:	f001 feae 	bl	8006490 <_Bfree>
 8004734:	4631      	mov	r1, r6
 8004736:	4620      	mov	r0, r4
 8004738:	f001 feaa 	bl	8006490 <_Bfree>
 800473c:	9909      	ldr	r1, [sp, #36]	; 0x24
 800473e:	4620      	mov	r0, r4
 8004740:	f001 fea6 	bl	8006490 <_Bfree>
 8004744:	4629      	mov	r1, r5
 8004746:	4620      	mov	r0, r4
 8004748:	f001 fea2 	bl	8006490 <_Bfree>
 800474c:	e5d6      	b.n	80042fc <_strtod_l+0x84>
 800474e:	2300      	movs	r3, #0
 8004750:	ea4f 1828 	mov.w	r8, r8, asr #4
 8004754:	4650      	mov	r0, sl
 8004756:	4659      	mov	r1, fp
 8004758:	4699      	mov	r9, r3
 800475a:	f1b8 0f01 	cmp.w	r8, #1
 800475e:	dc21      	bgt.n	80047a4 <_strtod_l+0x52c>
 8004760:	b10b      	cbz	r3, 8004766 <_strtod_l+0x4ee>
 8004762:	4682      	mov	sl, r0
 8004764:	468b      	mov	fp, r1
 8004766:	4b2e      	ldr	r3, [pc, #184]	; (8004820 <_strtod_l+0x5a8>)
 8004768:	f1ab 7b54 	sub.w	fp, fp, #55574528	; 0x3500000
 800476c:	eb03 09c9 	add.w	r9, r3, r9, lsl #3
 8004770:	4652      	mov	r2, sl
 8004772:	465b      	mov	r3, fp
 8004774:	e9d9 0100 	ldrd	r0, r1, [r9]
 8004778:	f7fb ff46 	bl	8000608 <__aeabi_dmul>
 800477c:	4b29      	ldr	r3, [pc, #164]	; (8004824 <_strtod_l+0x5ac>)
 800477e:	460a      	mov	r2, r1
 8004780:	400b      	ands	r3, r1
 8004782:	4929      	ldr	r1, [pc, #164]	; (8004828 <_strtod_l+0x5b0>)
 8004784:	428b      	cmp	r3, r1
 8004786:	4682      	mov	sl, r0
 8004788:	d8be      	bhi.n	8004708 <_strtod_l+0x490>
 800478a:	f5a1 1180 	sub.w	r1, r1, #1048576	; 0x100000
 800478e:	428b      	cmp	r3, r1
 8004790:	bf86      	itte	hi
 8004792:	f8df b098 	ldrhi.w	fp, [pc, #152]	; 800482c <_strtod_l+0x5b4>
 8004796:	f04f 3aff 	movhi.w	sl, #4294967295
 800479a:	f102 7b54 	addls.w	fp, r2, #55574528	; 0x3500000
 800479e:	2300      	movs	r3, #0
 80047a0:	9304      	str	r3, [sp, #16]
 80047a2:	e081      	b.n	80048a8 <_strtod_l+0x630>
 80047a4:	f018 0f01 	tst.w	r8, #1
 80047a8:	d007      	beq.n	80047ba <_strtod_l+0x542>
 80047aa:	4b1d      	ldr	r3, [pc, #116]	; (8004820 <_strtod_l+0x5a8>)
 80047ac:	eb03 03c9 	add.w	r3, r3, r9, lsl #3
 80047b0:	e9d3 2300 	ldrd	r2, r3, [r3]
 80047b4:	f7fb ff28 	bl	8000608 <__aeabi_dmul>
 80047b8:	2301      	movs	r3, #1
 80047ba:	f109 0901 	add.w	r9, r9, #1
 80047be:	ea4f 0868 	mov.w	r8, r8, asr #1
 80047c2:	e7ca      	b.n	800475a <_strtod_l+0x4e2>
 80047c4:	d0eb      	beq.n	800479e <_strtod_l+0x526>
 80047c6:	f1c8 0800 	rsb	r8, r8, #0
 80047ca:	f018 020f 	ands.w	r2, r8, #15
 80047ce:	d00a      	beq.n	80047e6 <_strtod_l+0x56e>
 80047d0:	4b12      	ldr	r3, [pc, #72]	; (800481c <_strtod_l+0x5a4>)
 80047d2:	eb03 03c2 	add.w	r3, r3, r2, lsl #3
 80047d6:	4650      	mov	r0, sl
 80047d8:	4659      	mov	r1, fp
 80047da:	e9d3 2300 	ldrd	r2, r3, [r3]
 80047de:	f7fc f83d 	bl	800085c <__aeabi_ddiv>
 80047e2:	4682      	mov	sl, r0
 80047e4:	468b      	mov	fp, r1
 80047e6:	ea5f 1828 	movs.w	r8, r8, asr #4
 80047ea:	d0d8      	beq.n	800479e <_strtod_l+0x526>
 80047ec:	f1b8 0f1f 	cmp.w	r8, #31
 80047f0:	dd1e      	ble.n	8004830 <_strtod_l+0x5b8>
 80047f2:	2500      	movs	r5, #0
 80047f4:	462e      	mov	r6, r5
 80047f6:	9509      	str	r5, [sp, #36]	; 0x24
 80047f8:	9507      	str	r5, [sp, #28]
 80047fa:	2322      	movs	r3, #34	; 0x22
 80047fc:	f04f 0a00 	mov.w	sl, #0
 8004800:	f04f 0b00 	mov.w	fp, #0
 8004804:	6023      	str	r3, [r4, #0]
 8004806:	e789      	b.n	800471c <_strtod_l+0x4a4>
 8004808:	08008095 	.word	0x08008095
 800480c:	080080d8 	.word	0x080080d8
 8004810:	0800808d 	.word	0x0800808d
 8004814:	0800821c 	.word	0x0800821c
 8004818:	08007e1f 	.word	0x08007e1f
 800481c:	080083b8 	.word	0x080083b8
 8004820:	08008390 	.word	0x08008390
 8004824:	7ff00000 	.word	0x7ff00000
 8004828:	7ca00000 	.word	0x7ca00000
 800482c:	7fefffff 	.word	0x7fefffff
 8004830:	f018 0310 	ands.w	r3, r8, #16
 8004834:	bf18      	it	ne
 8004836:	236a      	movne	r3, #106	; 0x6a
 8004838:	f8df 93b4 	ldr.w	r9, [pc, #948]	; 8004bf0 <_strtod_l+0x978>
 800483c:	9304      	str	r3, [sp, #16]
 800483e:	4650      	mov	r0, sl
 8004840:	4659      	mov	r1, fp
 8004842:	2300      	movs	r3, #0
 8004844:	f018 0f01 	tst.w	r8, #1
 8004848:	d004      	beq.n	8004854 <_strtod_l+0x5dc>
 800484a:	e9d9 2300 	ldrd	r2, r3, [r9]
 800484e:	f7fb fedb 	bl	8000608 <__aeabi_dmul>
 8004852:	2301      	movs	r3, #1
 8004854:	ea5f 0868 	movs.w	r8, r8, asr #1
 8004858:	f109 0908 	add.w	r9, r9, #8
 800485c:	d1f2      	bne.n	8004844 <_strtod_l+0x5cc>
 800485e:	b10b      	cbz	r3, 8004864 <_strtod_l+0x5ec>
 8004860:	4682      	mov	sl, r0
 8004862:	468b      	mov	fp, r1
 8004864:	9b04      	ldr	r3, [sp, #16]
 8004866:	b1bb      	cbz	r3, 8004898 <_strtod_l+0x620>
 8004868:	f3cb 530a 	ubfx	r3, fp, #20, #11
 800486c:	f1c3 036b 	rsb	r3, r3, #107	; 0x6b
 8004870:	2b00      	cmp	r3, #0
 8004872:	4659      	mov	r1, fp
 8004874:	dd10      	ble.n	8004898 <_strtod_l+0x620>
 8004876:	2b1f      	cmp	r3, #31
 8004878:	f340 8128 	ble.w	8004acc <_strtod_l+0x854>
 800487c:	2b34      	cmp	r3, #52	; 0x34
 800487e:	bfde      	ittt	le
 8004880:	3b20      	suble	r3, #32
 8004882:	f04f 32ff 	movle.w	r2, #4294967295
 8004886:	fa02 f303 	lslle.w	r3, r2, r3
 800488a:	f04f 0a00 	mov.w	sl, #0
 800488e:	bfcc      	ite	gt
 8004890:	f04f 7b5c 	movgt.w	fp, #57671680	; 0x3700000
 8004894:	ea03 0b01 	andle.w	fp, r3, r1
 8004898:	2200      	movs	r2, #0
 800489a:	2300      	movs	r3, #0
 800489c:	4650      	mov	r0, sl
 800489e:	4659      	mov	r1, fp
 80048a0:	f7fc f91a 	bl	8000ad8 <__aeabi_dcmpeq>
 80048a4:	2800      	cmp	r0, #0
 80048a6:	d1a4      	bne.n	80047f2 <_strtod_l+0x57a>
 80048a8:	9b09      	ldr	r3, [sp, #36]	; 0x24
 80048aa:	9300      	str	r3, [sp, #0]
 80048ac:	990a      	ldr	r1, [sp, #40]	; 0x28
 80048ae:	462b      	mov	r3, r5
 80048b0:	463a      	mov	r2, r7
 80048b2:	4620      	mov	r0, r4
 80048b4:	f001 fe58 	bl	8006568 <__s2b>
 80048b8:	9009      	str	r0, [sp, #36]	; 0x24
 80048ba:	2800      	cmp	r0, #0
 80048bc:	f43f af24 	beq.w	8004708 <_strtod_l+0x490>
 80048c0:	9b07      	ldr	r3, [sp, #28]
 80048c2:	1b9e      	subs	r6, r3, r6
 80048c4:	9b08      	ldr	r3, [sp, #32]
 80048c6:	2b00      	cmp	r3, #0
 80048c8:	bfb4      	ite	lt
 80048ca:	4633      	movlt	r3, r6
 80048cc:	2300      	movge	r3, #0
 80048ce:	9310      	str	r3, [sp, #64]	; 0x40
 80048d0:	9b08      	ldr	r3, [sp, #32]
 80048d2:	2500      	movs	r5, #0
 80048d4:	ea23 73e3 	bic.w	r3, r3, r3, asr #31
 80048d8:	9318      	str	r3, [sp, #96]	; 0x60
 80048da:	462e      	mov	r6, r5
 80048dc:	9b09      	ldr	r3, [sp, #36]	; 0x24
 80048de:	4620      	mov	r0, r4
 80048e0:	6859      	ldr	r1, [r3, #4]
 80048e2:	f001 fd95 	bl	8006410 <_Balloc>
 80048e6:	9007      	str	r0, [sp, #28]
 80048e8:	2800      	cmp	r0, #0
 80048ea:	f43f af11 	beq.w	8004710 <_strtod_l+0x498>
 80048ee:	9b09      	ldr	r3, [sp, #36]	; 0x24
 80048f0:	691a      	ldr	r2, [r3, #16]
 80048f2:	3202      	adds	r2, #2
 80048f4:	f103 010c 	add.w	r1, r3, #12
 80048f8:	0092      	lsls	r2, r2, #2
 80048fa:	300c      	adds	r0, #12
 80048fc:	f001 fd7a 	bl	80063f4 <memcpy>
 8004900:	ec4b ab10 	vmov	d0, sl, fp
 8004904:	aa20      	add	r2, sp, #128	; 0x80
 8004906:	a91f      	add	r1, sp, #124	; 0x7c
 8004908:	4620      	mov	r0, r4
 800490a:	e9cd ab0a 	strd	sl, fp, [sp, #40]	; 0x28
 800490e:	f002 f967 	bl	8006be0 <__d2b>
 8004912:	901e      	str	r0, [sp, #120]	; 0x78
 8004914:	2800      	cmp	r0, #0
 8004916:	f43f aefb 	beq.w	8004710 <_strtod_l+0x498>
 800491a:	2101      	movs	r1, #1
 800491c:	4620      	mov	r0, r4
 800491e:	f001 febd 	bl	800669c <__i2b>
 8004922:	4606      	mov	r6, r0
 8004924:	2800      	cmp	r0, #0
 8004926:	f43f aef3 	beq.w	8004710 <_strtod_l+0x498>
 800492a:	9b1f      	ldr	r3, [sp, #124]	; 0x7c
 800492c:	9904      	ldr	r1, [sp, #16]
 800492e:	2b00      	cmp	r3, #0
 8004930:	bfab      	itete	ge
 8004932:	9a10      	ldrge	r2, [sp, #64]	; 0x40
 8004934:	9a18      	ldrlt	r2, [sp, #96]	; 0x60
 8004936:	9f18      	ldrge	r7, [sp, #96]	; 0x60
 8004938:	f8dd 9040 	ldrlt.w	r9, [sp, #64]	; 0x40
 800493c:	bfac      	ite	ge
 800493e:	eb03 0902 	addge.w	r9, r3, r2
 8004942:	1ad7      	sublt	r7, r2, r3
 8004944:	9a20      	ldr	r2, [sp, #128]	; 0x80
 8004946:	eba3 0801 	sub.w	r8, r3, r1
 800494a:	4490      	add	r8, r2
 800494c:	4ba3      	ldr	r3, [pc, #652]	; (8004bdc <_strtod_l+0x964>)
 800494e:	f108 38ff 	add.w	r8, r8, #4294967295
 8004952:	4598      	cmp	r8, r3
 8004954:	f1c2 0236 	rsb	r2, r2, #54	; 0x36
 8004958:	f280 80cc 	bge.w	8004af4 <_strtod_l+0x87c>
 800495c:	eba3 0308 	sub.w	r3, r3, r8
 8004960:	2b1f      	cmp	r3, #31
 8004962:	eba2 0203 	sub.w	r2, r2, r3
 8004966:	f04f 0101 	mov.w	r1, #1
 800496a:	f300 80b6 	bgt.w	8004ada <_strtod_l+0x862>
 800496e:	fa01 f303 	lsl.w	r3, r1, r3
 8004972:	9311      	str	r3, [sp, #68]	; 0x44
 8004974:	2300      	movs	r3, #0
 8004976:	930c      	str	r3, [sp, #48]	; 0x30
 8004978:	eb09 0802 	add.w	r8, r9, r2
 800497c:	9b04      	ldr	r3, [sp, #16]
 800497e:	45c1      	cmp	r9, r8
 8004980:	4417      	add	r7, r2
 8004982:	441f      	add	r7, r3
 8004984:	464b      	mov	r3, r9
 8004986:	bfa8      	it	ge
 8004988:	4643      	movge	r3, r8
 800498a:	42bb      	cmp	r3, r7
 800498c:	bfa8      	it	ge
 800498e:	463b      	movge	r3, r7
 8004990:	2b00      	cmp	r3, #0
 8004992:	bfc2      	ittt	gt
 8004994:	eba8 0803 	subgt.w	r8, r8, r3
 8004998:	1aff      	subgt	r7, r7, r3
 800499a:	eba9 0903 	subgt.w	r9, r9, r3
 800499e:	9b10      	ldr	r3, [sp, #64]	; 0x40
 80049a0:	2b00      	cmp	r3, #0
 80049a2:	dd17      	ble.n	80049d4 <_strtod_l+0x75c>
 80049a4:	4631      	mov	r1, r6
 80049a6:	461a      	mov	r2, r3
 80049a8:	4620      	mov	r0, r4
 80049aa:	f001 ff33 	bl	8006814 <__pow5mult>
 80049ae:	4606      	mov	r6, r0
 80049b0:	2800      	cmp	r0, #0
 80049b2:	f43f aead 	beq.w	8004710 <_strtod_l+0x498>
 80049b6:	4601      	mov	r1, r0
 80049b8:	9a1e      	ldr	r2, [sp, #120]	; 0x78
 80049ba:	4620      	mov	r0, r4
 80049bc:	f001 fe84 	bl	80066c8 <__multiply>
 80049c0:	900f      	str	r0, [sp, #60]	; 0x3c
 80049c2:	2800      	cmp	r0, #0
 80049c4:	f43f aea4 	beq.w	8004710 <_strtod_l+0x498>
 80049c8:	991e      	ldr	r1, [sp, #120]	; 0x78
 80049ca:	4620      	mov	r0, r4
 80049cc:	f001 fd60 	bl	8006490 <_Bfree>
 80049d0:	9b0f      	ldr	r3, [sp, #60]	; 0x3c
 80049d2:	931e      	str	r3, [sp, #120]	; 0x78
 80049d4:	f1b8 0f00 	cmp.w	r8, #0
 80049d8:	f300 8091 	bgt.w	8004afe <_strtod_l+0x886>
 80049dc:	9b08      	ldr	r3, [sp, #32]
 80049de:	2b00      	cmp	r3, #0
 80049e0:	dd08      	ble.n	80049f4 <_strtod_l+0x77c>
 80049e2:	9a18      	ldr	r2, [sp, #96]	; 0x60
 80049e4:	9907      	ldr	r1, [sp, #28]
 80049e6:	4620      	mov	r0, r4
 80049e8:	f001 ff14 	bl	8006814 <__pow5mult>
 80049ec:	9007      	str	r0, [sp, #28]
 80049ee:	2800      	cmp	r0, #0
 80049f0:	f43f ae8e 	beq.w	8004710 <_strtod_l+0x498>
 80049f4:	2f00      	cmp	r7, #0
 80049f6:	dd08      	ble.n	8004a0a <_strtod_l+0x792>
 80049f8:	9907      	ldr	r1, [sp, #28]
 80049fa:	463a      	mov	r2, r7
 80049fc:	4620      	mov	r0, r4
 80049fe:	f001 ff63 	bl	80068c8 <__lshift>
 8004a02:	9007      	str	r0, [sp, #28]
 8004a04:	2800      	cmp	r0, #0
 8004a06:	f43f ae83 	beq.w	8004710 <_strtod_l+0x498>
 8004a0a:	f1b9 0f00 	cmp.w	r9, #0
 8004a0e:	dd08      	ble.n	8004a22 <_strtod_l+0x7aa>
 8004a10:	4631      	mov	r1, r6
 8004a12:	464a      	mov	r2, r9
 8004a14:	4620      	mov	r0, r4
 8004a16:	f001 ff57 	bl	80068c8 <__lshift>
 8004a1a:	4606      	mov	r6, r0
 8004a1c:	2800      	cmp	r0, #0
 8004a1e:	f43f ae77 	beq.w	8004710 <_strtod_l+0x498>
 8004a22:	9a07      	ldr	r2, [sp, #28]
 8004a24:	991e      	ldr	r1, [sp, #120]	; 0x78
 8004a26:	4620      	mov	r0, r4
 8004a28:	f001 ffd6 	bl	80069d8 <__mdiff>
 8004a2c:	4605      	mov	r5, r0
 8004a2e:	2800      	cmp	r0, #0
 8004a30:	f43f ae6e 	beq.w	8004710 <_strtod_l+0x498>
 8004a34:	68c3      	ldr	r3, [r0, #12]
 8004a36:	930f      	str	r3, [sp, #60]	; 0x3c
 8004a38:	2300      	movs	r3, #0
 8004a3a:	60c3      	str	r3, [r0, #12]
 8004a3c:	4631      	mov	r1, r6
 8004a3e:	f001 ffaf 	bl	80069a0 <__mcmp>
 8004a42:	2800      	cmp	r0, #0
 8004a44:	da65      	bge.n	8004b12 <_strtod_l+0x89a>
 8004a46:	9b0f      	ldr	r3, [sp, #60]	; 0x3c
 8004a48:	ea53 030a 	orrs.w	r3, r3, sl
 8004a4c:	f040 8087 	bne.w	8004b5e <_strtod_l+0x8e6>
 8004a50:	f3cb 0313 	ubfx	r3, fp, #0, #20
 8004a54:	2b00      	cmp	r3, #0
 8004a56:	f040 8082 	bne.w	8004b5e <_strtod_l+0x8e6>
 8004a5a:	f02b 4300 	bic.w	r3, fp, #2147483648	; 0x80000000
 8004a5e:	0d1b      	lsrs	r3, r3, #20
 8004a60:	051b      	lsls	r3, r3, #20
 8004a62:	f1b3 6fd6 	cmp.w	r3, #112197632	; 0x6b00000
 8004a66:	d97a      	bls.n	8004b5e <_strtod_l+0x8e6>
 8004a68:	696b      	ldr	r3, [r5, #20]
 8004a6a:	b913      	cbnz	r3, 8004a72 <_strtod_l+0x7fa>
 8004a6c:	692b      	ldr	r3, [r5, #16]
 8004a6e:	2b01      	cmp	r3, #1
 8004a70:	dd75      	ble.n	8004b5e <_strtod_l+0x8e6>
 8004a72:	4629      	mov	r1, r5
 8004a74:	2201      	movs	r2, #1
 8004a76:	4620      	mov	r0, r4
 8004a78:	f001 ff26 	bl	80068c8 <__lshift>
 8004a7c:	4631      	mov	r1, r6
 8004a7e:	4605      	mov	r5, r0
 8004a80:	f001 ff8e 	bl	80069a0 <__mcmp>
 8004a84:	2800      	cmp	r0, #0
 8004a86:	dd6a      	ble.n	8004b5e <_strtod_l+0x8e6>
 8004a88:	9904      	ldr	r1, [sp, #16]
 8004a8a:	4a55      	ldr	r2, [pc, #340]	; (8004be0 <_strtod_l+0x968>)
 8004a8c:	465b      	mov	r3, fp
 8004a8e:	2900      	cmp	r1, #0
 8004a90:	f000 8085 	beq.w	8004b9e <_strtod_l+0x926>
 8004a94:	ea02 010b 	and.w	r1, r2, fp
 8004a98:	f1b1 6fd6 	cmp.w	r1, #112197632	; 0x6b00000
 8004a9c:	dc7f      	bgt.n	8004b9e <_strtod_l+0x926>
 8004a9e:	f1b1 7f5c 	cmp.w	r1, #57671680	; 0x3700000
 8004aa2:	f77f aeaa 	ble.w	80047fa <_strtod_l+0x582>
 8004aa6:	4a4f      	ldr	r2, [pc, #316]	; (8004be4 <_strtod_l+0x96c>)
 8004aa8:	2300      	movs	r3, #0
 8004aaa:	e9cd 3216 	strd	r3, r2, [sp, #88]	; 0x58
 8004aae:	4650      	mov	r0, sl
 8004ab0:	e9dd 2316 	ldrd	r2, r3, [sp, #88]	; 0x58
 8004ab4:	4659      	mov	r1, fp
 8004ab6:	f7fb fda7 	bl	8000608 <__aeabi_dmul>
 8004aba:	460b      	mov	r3, r1
 8004abc:	4303      	orrs	r3, r0
 8004abe:	bf08      	it	eq
 8004ac0:	2322      	moveq	r3, #34	; 0x22
 8004ac2:	4682      	mov	sl, r0
 8004ac4:	468b      	mov	fp, r1
 8004ac6:	bf08      	it	eq
 8004ac8:	6023      	streq	r3, [r4, #0]
 8004aca:	e62b      	b.n	8004724 <_strtod_l+0x4ac>
 8004acc:	f04f 32ff 	mov.w	r2, #4294967295
 8004ad0:	fa02 f303 	lsl.w	r3, r2, r3
 8004ad4:	ea03 0a0a 	and.w	sl, r3, sl
 8004ad8:	e6de      	b.n	8004898 <_strtod_l+0x620>
 8004ada:	f1c8 487f 	rsb	r8, r8, #4278190080	; 0xff000000
 8004ade:	f508 087f 	add.w	r8, r8, #16711680	; 0xff0000
 8004ae2:	f508 487b 	add.w	r8, r8, #64256	; 0xfb00
 8004ae6:	f108 08e2 	add.w	r8, r8, #226	; 0xe2
 8004aea:	fa01 f308 	lsl.w	r3, r1, r8
 8004aee:	930c      	str	r3, [sp, #48]	; 0x30
 8004af0:	9111      	str	r1, [sp, #68]	; 0x44
 8004af2:	e741      	b.n	8004978 <_strtod_l+0x700>
 8004af4:	2300      	movs	r3, #0
 8004af6:	930c      	str	r3, [sp, #48]	; 0x30
 8004af8:	2301      	movs	r3, #1
 8004afa:	9311      	str	r3, [sp, #68]	; 0x44
 8004afc:	e73c      	b.n	8004978 <_strtod_l+0x700>
 8004afe:	991e      	ldr	r1, [sp, #120]	; 0x78
 8004b00:	4642      	mov	r2, r8
 8004b02:	4620      	mov	r0, r4
 8004b04:	f001 fee0 	bl	80068c8 <__lshift>
 8004b08:	901e      	str	r0, [sp, #120]	; 0x78
 8004b0a:	2800      	cmp	r0, #0
 8004b0c:	f47f af66 	bne.w	80049dc <_strtod_l+0x764>
 8004b10:	e5fe      	b.n	8004710 <_strtod_l+0x498>
 8004b12:	465f      	mov	r7, fp
 8004b14:	d16e      	bne.n	8004bf4 <_strtod_l+0x97c>
 8004b16:	9a0f      	ldr	r2, [sp, #60]	; 0x3c
 8004b18:	f3cb 0313 	ubfx	r3, fp, #0, #20
 8004b1c:	b342      	cbz	r2, 8004b70 <_strtod_l+0x8f8>
 8004b1e:	4a32      	ldr	r2, [pc, #200]	; (8004be8 <_strtod_l+0x970>)
 8004b20:	4293      	cmp	r3, r2
 8004b22:	d128      	bne.n	8004b76 <_strtod_l+0x8fe>
 8004b24:	9b04      	ldr	r3, [sp, #16]
 8004b26:	4650      	mov	r0, sl
 8004b28:	b1eb      	cbz	r3, 8004b66 <_strtod_l+0x8ee>
 8004b2a:	4a2d      	ldr	r2, [pc, #180]	; (8004be0 <_strtod_l+0x968>)
 8004b2c:	403a      	ands	r2, r7
 8004b2e:	f1b2 6fd4 	cmp.w	r2, #111149056	; 0x6a00000
 8004b32:	f04f 31ff 	mov.w	r1, #4294967295
 8004b36:	d819      	bhi.n	8004b6c <_strtod_l+0x8f4>
 8004b38:	0d12      	lsrs	r2, r2, #20
 8004b3a:	f1c2 036b 	rsb	r3, r2, #107	; 0x6b
 8004b3e:	fa01 f303 	lsl.w	r3, r1, r3
 8004b42:	4298      	cmp	r0, r3
 8004b44:	d117      	bne.n	8004b76 <_strtod_l+0x8fe>
 8004b46:	4b29      	ldr	r3, [pc, #164]	; (8004bec <_strtod_l+0x974>)
 8004b48:	429f      	cmp	r7, r3
 8004b4a:	d102      	bne.n	8004b52 <_strtod_l+0x8da>
 8004b4c:	3001      	adds	r0, #1
 8004b4e:	f43f addf 	beq.w	8004710 <_strtod_l+0x498>
 8004b52:	4b23      	ldr	r3, [pc, #140]	; (8004be0 <_strtod_l+0x968>)
 8004b54:	403b      	ands	r3, r7
 8004b56:	f503 1b80 	add.w	fp, r3, #1048576	; 0x100000
 8004b5a:	f04f 0a00 	mov.w	sl, #0
 8004b5e:	9b04      	ldr	r3, [sp, #16]
 8004b60:	2b00      	cmp	r3, #0
 8004b62:	d1a0      	bne.n	8004aa6 <_strtod_l+0x82e>
 8004b64:	e5de      	b.n	8004724 <_strtod_l+0x4ac>
 8004b66:	f04f 33ff 	mov.w	r3, #4294967295
 8004b6a:	e7ea      	b.n	8004b42 <_strtod_l+0x8ca>
 8004b6c:	460b      	mov	r3, r1
 8004b6e:	e7e8      	b.n	8004b42 <_strtod_l+0x8ca>
 8004b70:	ea53 030a 	orrs.w	r3, r3, sl
 8004b74:	d088      	beq.n	8004a88 <_strtod_l+0x810>
 8004b76:	9b0c      	ldr	r3, [sp, #48]	; 0x30
 8004b78:	b1db      	cbz	r3, 8004bb2 <_strtod_l+0x93a>
 8004b7a:	423b      	tst	r3, r7
 8004b7c:	d0ef      	beq.n	8004b5e <_strtod_l+0x8e6>
 8004b7e:	9b0f      	ldr	r3, [sp, #60]	; 0x3c
 8004b80:	9a04      	ldr	r2, [sp, #16]
 8004b82:	4650      	mov	r0, sl
 8004b84:	4659      	mov	r1, fp
 8004b86:	b1c3      	cbz	r3, 8004bba <_strtod_l+0x942>
 8004b88:	f7ff fb59 	bl	800423e <sulp>
 8004b8c:	4602      	mov	r2, r0
 8004b8e:	460b      	mov	r3, r1
 8004b90:	e9dd 010a 	ldrd	r0, r1, [sp, #40]	; 0x28
 8004b94:	f7fb fb82 	bl	800029c <__adddf3>
 8004b98:	4682      	mov	sl, r0
 8004b9a:	468b      	mov	fp, r1
 8004b9c:	e7df      	b.n	8004b5e <_strtod_l+0x8e6>
 8004b9e:	4013      	ands	r3, r2
 8004ba0:	f5a3 1380 	sub.w	r3, r3, #1048576	; 0x100000
 8004ba4:	ea6f 5b13 	mvn.w	fp, r3, lsr #20
 8004ba8:	ea6f 5b0b 	mvn.w	fp, fp, lsl #20
 8004bac:	f04f 3aff 	mov.w	sl, #4294967295
 8004bb0:	e7d5      	b.n	8004b5e <_strtod_l+0x8e6>
 8004bb2:	9b11      	ldr	r3, [sp, #68]	; 0x44
 8004bb4:	ea13 0f0a 	tst.w	r3, sl
 8004bb8:	e7e0      	b.n	8004b7c <_strtod_l+0x904>
 8004bba:	f7ff fb40 	bl	800423e <sulp>
 8004bbe:	4602      	mov	r2, r0
 8004bc0:	460b      	mov	r3, r1
 8004bc2:	e9dd 010a 	ldrd	r0, r1, [sp, #40]	; 0x28
 8004bc6:	f7fb fb67 	bl	8000298 <__aeabi_dsub>
 8004bca:	2200      	movs	r2, #0
 8004bcc:	2300      	movs	r3, #0
 8004bce:	4682      	mov	sl, r0
 8004bd0:	468b      	mov	fp, r1
 8004bd2:	f7fb ff81 	bl	8000ad8 <__aeabi_dcmpeq>
 8004bd6:	2800      	cmp	r0, #0
 8004bd8:	d0c1      	beq.n	8004b5e <_strtod_l+0x8e6>
 8004bda:	e60e      	b.n	80047fa <_strtod_l+0x582>
 8004bdc:	fffffc02 	.word	0xfffffc02
 8004be0:	7ff00000 	.word	0x7ff00000
 8004be4:	39500000 	.word	0x39500000
 8004be8:	000fffff 	.word	0x000fffff
 8004bec:	7fefffff 	.word	0x7fefffff
 8004bf0:	080080f0 	.word	0x080080f0
 8004bf4:	4631      	mov	r1, r6
 8004bf6:	4628      	mov	r0, r5
 8004bf8:	f002 f84e 	bl	8006c98 <__ratio>
 8004bfc:	ec59 8b10 	vmov	r8, r9, d0
 8004c00:	ee10 0a10 	vmov	r0, s0
 8004c04:	2200      	movs	r2, #0
 8004c06:	f04f 4380 	mov.w	r3, #1073741824	; 0x40000000
 8004c0a:	4649      	mov	r1, r9
 8004c0c:	f7fb ff78 	bl	8000b00 <__aeabi_dcmple>
 8004c10:	2800      	cmp	r0, #0
 8004c12:	d07c      	beq.n	8004d0e <_strtod_l+0xa96>
 8004c14:	9b0f      	ldr	r3, [sp, #60]	; 0x3c
 8004c16:	2b00      	cmp	r3, #0
 8004c18:	d04c      	beq.n	8004cb4 <_strtod_l+0xa3c>
 8004c1a:	4b95      	ldr	r3, [pc, #596]	; (8004e70 <_strtod_l+0xbf8>)
 8004c1c:	2200      	movs	r2, #0
 8004c1e:	e9cd 230c 	strd	r2, r3, [sp, #48]	; 0x30
 8004c22:	f8df 924c 	ldr.w	r9, [pc, #588]	; 8004e70 <_strtod_l+0xbf8>
 8004c26:	f04f 0800 	mov.w	r8, #0
 8004c2a:	4b92      	ldr	r3, [pc, #584]	; (8004e74 <_strtod_l+0xbfc>)
 8004c2c:	403b      	ands	r3, r7
 8004c2e:	9311      	str	r3, [sp, #68]	; 0x44
 8004c30:	9a11      	ldr	r2, [sp, #68]	; 0x44
 8004c32:	4b91      	ldr	r3, [pc, #580]	; (8004e78 <_strtod_l+0xc00>)
 8004c34:	429a      	cmp	r2, r3
 8004c36:	f040 80b2 	bne.w	8004d9e <_strtod_l+0xb26>
 8004c3a:	e9dd 230a 	ldrd	r2, r3, [sp, #40]	; 0x28
 8004c3e:	e9dd 010c 	ldrd	r0, r1, [sp, #48]	; 0x30
 8004c42:	f1a7 7b54 	sub.w	fp, r7, #55574528	; 0x3500000
 8004c46:	ec4b ab10 	vmov	d0, sl, fp
 8004c4a:	e9cd 2316 	strd	r2, r3, [sp, #88]	; 0x58
 8004c4e:	e9cd 010c 	strd	r0, r1, [sp, #48]	; 0x30
 8004c52:	f001 ff49 	bl	8006ae8 <__ulp>
 8004c56:	e9dd 010c 	ldrd	r0, r1, [sp, #48]	; 0x30
 8004c5a:	ec53 2b10 	vmov	r2, r3, d0
 8004c5e:	f7fb fcd3 	bl	8000608 <__aeabi_dmul>
 8004c62:	4652      	mov	r2, sl
 8004c64:	465b      	mov	r3, fp
 8004c66:	f7fb fb19 	bl	800029c <__adddf3>
 8004c6a:	460b      	mov	r3, r1
 8004c6c:	4981      	ldr	r1, [pc, #516]	; (8004e74 <_strtod_l+0xbfc>)
 8004c6e:	4a83      	ldr	r2, [pc, #524]	; (8004e7c <_strtod_l+0xc04>)
 8004c70:	4019      	ands	r1, r3
 8004c72:	4291      	cmp	r1, r2
 8004c74:	4682      	mov	sl, r0
 8004c76:	d95e      	bls.n	8004d36 <_strtod_l+0xabe>
 8004c78:	9b0b      	ldr	r3, [sp, #44]	; 0x2c
 8004c7a:	f102 7254 	add.w	r2, r2, #55574528	; 0x3500000
 8004c7e:	4293      	cmp	r3, r2
 8004c80:	d103      	bne.n	8004c8a <_strtod_l+0xa12>
 8004c82:	9b0a      	ldr	r3, [sp, #40]	; 0x28
 8004c84:	3301      	adds	r3, #1
 8004c86:	f43f ad43 	beq.w	8004710 <_strtod_l+0x498>
 8004c8a:	f8df b1fc 	ldr.w	fp, [pc, #508]	; 8004e88 <_strtod_l+0xc10>
 8004c8e:	f04f 3aff 	mov.w	sl, #4294967295
 8004c92:	991e      	ldr	r1, [sp, #120]	; 0x78
 8004c94:	4620      	mov	r0, r4
 8004c96:	f001 fbfb 	bl	8006490 <_Bfree>
 8004c9a:	9907      	ldr	r1, [sp, #28]
 8004c9c:	4620      	mov	r0, r4
 8004c9e:	f001 fbf7 	bl	8006490 <_Bfree>
 8004ca2:	4631      	mov	r1, r6
 8004ca4:	4620      	mov	r0, r4
 8004ca6:	f001 fbf3 	bl	8006490 <_Bfree>
 8004caa:	4629      	mov	r1, r5
 8004cac:	4620      	mov	r0, r4
 8004cae:	f001 fbef 	bl	8006490 <_Bfree>
 8004cb2:	e613      	b.n	80048dc <_strtod_l+0x664>
 8004cb4:	f1ba 0f00 	cmp.w	sl, #0
 8004cb8:	d11b      	bne.n	8004cf2 <_strtod_l+0xa7a>
 8004cba:	f3cb 0313 	ubfx	r3, fp, #0, #20
 8004cbe:	b9f3      	cbnz	r3, 8004cfe <_strtod_l+0xa86>
 8004cc0:	4b6b      	ldr	r3, [pc, #428]	; (8004e70 <_strtod_l+0xbf8>)
 8004cc2:	2200      	movs	r2, #0
 8004cc4:	4640      	mov	r0, r8
 8004cc6:	4649      	mov	r1, r9
 8004cc8:	f7fb ff10 	bl	8000aec <__aeabi_dcmplt>
 8004ccc:	b9d0      	cbnz	r0, 8004d04 <_strtod_l+0xa8c>
 8004cce:	4640      	mov	r0, r8
 8004cd0:	4649      	mov	r1, r9
 8004cd2:	4b6b      	ldr	r3, [pc, #428]	; (8004e80 <_strtod_l+0xc08>)
 8004cd4:	2200      	movs	r2, #0
 8004cd6:	f7fb fc97 	bl	8000608 <__aeabi_dmul>
 8004cda:	4680      	mov	r8, r0
 8004cdc:	4689      	mov	r9, r1
 8004cde:	f109 4300 	add.w	r3, r9, #2147483648	; 0x80000000
 8004ce2:	f8cd 8068 	str.w	r8, [sp, #104]	; 0x68
 8004ce6:	931b      	str	r3, [sp, #108]	; 0x6c
 8004ce8:	e9dd 231a 	ldrd	r2, r3, [sp, #104]	; 0x68
 8004cec:	e9cd 230c 	strd	r2, r3, [sp, #48]	; 0x30
 8004cf0:	e79b      	b.n	8004c2a <_strtod_l+0x9b2>
 8004cf2:	f1ba 0f01 	cmp.w	sl, #1
 8004cf6:	d102      	bne.n	8004cfe <_strtod_l+0xa86>
 8004cf8:	2f00      	cmp	r7, #0
 8004cfa:	f43f ad7e 	beq.w	80047fa <_strtod_l+0x582>
 8004cfe:	4b61      	ldr	r3, [pc, #388]	; (8004e84 <_strtod_l+0xc0c>)
 8004d00:	2200      	movs	r2, #0
 8004d02:	e78c      	b.n	8004c1e <_strtod_l+0x9a6>
 8004d04:	f8df 9178 	ldr.w	r9, [pc, #376]	; 8004e80 <_strtod_l+0xc08>
 8004d08:	f04f 0800 	mov.w	r8, #0
 8004d0c:	e7e7      	b.n	8004cde <_strtod_l+0xa66>
 8004d0e:	4b5c      	ldr	r3, [pc, #368]	; (8004e80 <_strtod_l+0xc08>)
 8004d10:	4640      	mov	r0, r8
 8004d12:	4649      	mov	r1, r9
 8004d14:	2200      	movs	r2, #0
 8004d16:	f7fb fc77 	bl	8000608 <__aeabi_dmul>
 8004d1a:	9b0f      	ldr	r3, [sp, #60]	; 0x3c
 8004d1c:	4680      	mov	r8, r0
 8004d1e:	4689      	mov	r9, r1
 8004d20:	b933      	cbnz	r3, 8004d30 <_strtod_l+0xab8>
 8004d22:	f101 4300 	add.w	r3, r1, #2147483648	; 0x80000000
 8004d26:	9012      	str	r0, [sp, #72]	; 0x48
 8004d28:	9313      	str	r3, [sp, #76]	; 0x4c
 8004d2a:	e9dd 2312 	ldrd	r2, r3, [sp, #72]	; 0x48
 8004d2e:	e7dd      	b.n	8004cec <_strtod_l+0xa74>
 8004d30:	e9cd 8912 	strd	r8, r9, [sp, #72]	; 0x48
 8004d34:	e7f9      	b.n	8004d2a <_strtod_l+0xab2>
 8004d36:	f103 7b54 	add.w	fp, r3, #55574528	; 0x3500000
 8004d3a:	9b04      	ldr	r3, [sp, #16]
 8004d3c:	2b00      	cmp	r3, #0
 8004d3e:	d1a8      	bne.n	8004c92 <_strtod_l+0xa1a>
 8004d40:	f02b 4300 	bic.w	r3, fp, #2147483648	; 0x80000000
 8004d44:	9a11      	ldr	r2, [sp, #68]	; 0x44
 8004d46:	0d1b      	lsrs	r3, r3, #20
 8004d48:	051b      	lsls	r3, r3, #20
 8004d4a:	429a      	cmp	r2, r3
 8004d4c:	d1a1      	bne.n	8004c92 <_strtod_l+0xa1a>
 8004d4e:	4640      	mov	r0, r8
 8004d50:	4649      	mov	r1, r9
 8004d52:	f7fb ffb9 	bl	8000cc8 <__aeabi_d2lz>
 8004d56:	f7fb fc29 	bl	80005ac <__aeabi_l2d>
 8004d5a:	4602      	mov	r2, r0
 8004d5c:	460b      	mov	r3, r1
 8004d5e:	4640      	mov	r0, r8
 8004d60:	4649      	mov	r1, r9
 8004d62:	f7fb fa99 	bl	8000298 <__aeabi_dsub>
 8004d66:	9a0f      	ldr	r2, [sp, #60]	; 0x3c
 8004d68:	f3cb 0313 	ubfx	r3, fp, #0, #20
 8004d6c:	ea43 030a 	orr.w	r3, r3, sl
 8004d70:	4313      	orrs	r3, r2
 8004d72:	4680      	mov	r8, r0
 8004d74:	4689      	mov	r9, r1
 8004d76:	d053      	beq.n	8004e20 <_strtod_l+0xba8>
 8004d78:	a335      	add	r3, pc, #212	; (adr r3, 8004e50 <_strtod_l+0xbd8>)
 8004d7a:	e9d3 2300 	ldrd	r2, r3, [r3]
 8004d7e:	f7fb feb5 	bl	8000aec <__aeabi_dcmplt>
 8004d82:	2800      	cmp	r0, #0
 8004d84:	f47f acce 	bne.w	8004724 <_strtod_l+0x4ac>
 8004d88:	a333      	add	r3, pc, #204	; (adr r3, 8004e58 <_strtod_l+0xbe0>)
 8004d8a:	e9d3 2300 	ldrd	r2, r3, [r3]
 8004d8e:	4640      	mov	r0, r8
 8004d90:	4649      	mov	r1, r9
 8004d92:	f7fb fec9 	bl	8000b28 <__aeabi_dcmpgt>
 8004d96:	2800      	cmp	r0, #0
 8004d98:	f43f af7b 	beq.w	8004c92 <_strtod_l+0xa1a>
 8004d9c:	e4c2      	b.n	8004724 <_strtod_l+0x4ac>
 8004d9e:	9b04      	ldr	r3, [sp, #16]
 8004da0:	b333      	cbz	r3, 8004df0 <_strtod_l+0xb78>
 8004da2:	9b11      	ldr	r3, [sp, #68]	; 0x44
 8004da4:	f1b3 6fd4 	cmp.w	r3, #111149056	; 0x6a00000
 8004da8:	d822      	bhi.n	8004df0 <_strtod_l+0xb78>
 8004daa:	a32d      	add	r3, pc, #180	; (adr r3, 8004e60 <_strtod_l+0xbe8>)
 8004dac:	e9d3 2300 	ldrd	r2, r3, [r3]
 8004db0:	4640      	mov	r0, r8
 8004db2:	4649      	mov	r1, r9
 8004db4:	f7fb fea4 	bl	8000b00 <__aeabi_dcmple>
 8004db8:	b1a0      	cbz	r0, 8004de4 <_strtod_l+0xb6c>
 8004dba:	4649      	mov	r1, r9
 8004dbc:	4640      	mov	r0, r8
 8004dbe:	f7fb fefb 	bl	8000bb8 <__aeabi_d2uiz>
 8004dc2:	2801      	cmp	r0, #1
 8004dc4:	bf38      	it	cc
 8004dc6:	2001      	movcc	r0, #1
 8004dc8:	f7fb fba4 	bl	8000514 <__aeabi_ui2d>
 8004dcc:	9b0f      	ldr	r3, [sp, #60]	; 0x3c
 8004dce:	4680      	mov	r8, r0
 8004dd0:	4689      	mov	r9, r1
 8004dd2:	bb13      	cbnz	r3, 8004e1a <_strtod_l+0xba2>
 8004dd4:	f101 4300 	add.w	r3, r1, #2147483648	; 0x80000000
 8004dd8:	9014      	str	r0, [sp, #80]	; 0x50
 8004dda:	9315      	str	r3, [sp, #84]	; 0x54
 8004ddc:	e9dd 2314 	ldrd	r2, r3, [sp, #80]	; 0x50
 8004de0:	e9cd 230c 	strd	r2, r3, [sp, #48]	; 0x30
 8004de4:	9b0d      	ldr	r3, [sp, #52]	; 0x34
 8004de6:	9a11      	ldr	r2, [sp, #68]	; 0x44
 8004de8:	f103 63d6 	add.w	r3, r3, #112197632	; 0x6b00000
 8004dec:	1a9b      	subs	r3, r3, r2
 8004dee:	930d      	str	r3, [sp, #52]	; 0x34
 8004df0:	e9dd 010c 	ldrd	r0, r1, [sp, #48]	; 0x30
 8004df4:	ed9d 0b0a 	vldr	d0, [sp, #40]	; 0x28
 8004df8:	e9cd 010c 	strd	r0, r1, [sp, #48]	; 0x30
 8004dfc:	f001 fe74 	bl	8006ae8 <__ulp>
 8004e00:	e9dd 010c 	ldrd	r0, r1, [sp, #48]	; 0x30
 8004e04:	ec53 2b10 	vmov	r2, r3, d0
 8004e08:	f7fb fbfe 	bl	8000608 <__aeabi_dmul>
 8004e0c:	e9dd 230a 	ldrd	r2, r3, [sp, #40]	; 0x28
 8004e10:	f7fb fa44 	bl	800029c <__adddf3>
 8004e14:	4682      	mov	sl, r0
 8004e16:	468b      	mov	fp, r1
 8004e18:	e78f      	b.n	8004d3a <_strtod_l+0xac2>
 8004e1a:	e9cd 8914 	strd	r8, r9, [sp, #80]	; 0x50
 8004e1e:	e7dd      	b.n	8004ddc <_strtod_l+0xb64>
 8004e20:	a311      	add	r3, pc, #68	; (adr r3, 8004e68 <_strtod_l+0xbf0>)
 8004e22:	e9d3 2300 	ldrd	r2, r3, [r3]
 8004e26:	f7fb fe61 	bl	8000aec <__aeabi_dcmplt>
 8004e2a:	e7b4      	b.n	8004d96 <_strtod_l+0xb1e>
 8004e2c:	2300      	movs	r3, #0
 8004e2e:	930e      	str	r3, [sp, #56]	; 0x38
 8004e30:	9a19      	ldr	r2, [sp, #100]	; 0x64
 8004e32:	9b1d      	ldr	r3, [sp, #116]	; 0x74
 8004e34:	6013      	str	r3, [r2, #0]
 8004e36:	f7ff ba65 	b.w	8004304 <_strtod_l+0x8c>
 8004e3a:	2b65      	cmp	r3, #101	; 0x65
 8004e3c:	f43f ab5d 	beq.w	80044fa <_strtod_l+0x282>
 8004e40:	2b45      	cmp	r3, #69	; 0x45
 8004e42:	f43f ab5a 	beq.w	80044fa <_strtod_l+0x282>
 8004e46:	2201      	movs	r2, #1
 8004e48:	f7ff bb92 	b.w	8004570 <_strtod_l+0x2f8>
 8004e4c:	f3af 8000 	nop.w
 8004e50:	94a03595 	.word	0x94a03595
 8004e54:	3fdfffff 	.word	0x3fdfffff
 8004e58:	35afe535 	.word	0x35afe535
 8004e5c:	3fe00000 	.word	0x3fe00000
 8004e60:	ffc00000 	.word	0xffc00000
 8004e64:	41dfffff 	.word	0x41dfffff
 8004e68:	94a03595 	.word	0x94a03595
 8004e6c:	3fcfffff 	.word	0x3fcfffff
 8004e70:	3ff00000 	.word	0x3ff00000
 8004e74:	7ff00000 	.word	0x7ff00000
 8004e78:	7fe00000 	.word	0x7fe00000
 8004e7c:	7c9fffff 	.word	0x7c9fffff
 8004e80:	3fe00000 	.word	0x3fe00000
 8004e84:	bff00000 	.word	0xbff00000
 8004e88:	7fefffff 	.word	0x7fefffff

08004e8c <_strtod_r>:
 8004e8c:	4b01      	ldr	r3, [pc, #4]	; (8004e94 <_strtod_r+0x8>)
 8004e8e:	f7ff b9f3 	b.w	8004278 <_strtod_l>
 8004e92:	bf00      	nop
 8004e94:	20000074 	.word	0x20000074

08004e98 <_strtol_l.isra.0>:
 8004e98:	2b01      	cmp	r3, #1
 8004e9a:	e92d 47f0 	stmdb	sp!, {r4, r5, r6, r7, r8, r9, sl, lr}
 8004e9e:	d001      	beq.n	8004ea4 <_strtol_l.isra.0+0xc>
 8004ea0:	2b24      	cmp	r3, #36	; 0x24
 8004ea2:	d906      	bls.n	8004eb2 <_strtol_l.isra.0+0x1a>
 8004ea4:	f7fe fae2 	bl	800346c <__errno>
 8004ea8:	2316      	movs	r3, #22
 8004eaa:	6003      	str	r3, [r0, #0]
 8004eac:	2000      	movs	r0, #0
 8004eae:	e8bd 87f0 	ldmia.w	sp!, {r4, r5, r6, r7, r8, r9, sl, pc}
 8004eb2:	4f3a      	ldr	r7, [pc, #232]	; (8004f9c <_strtol_l.isra.0+0x104>)
 8004eb4:	468e      	mov	lr, r1
 8004eb6:	4676      	mov	r6, lr
 8004eb8:	f81e 4b01 	ldrb.w	r4, [lr], #1
 8004ebc:	5de5      	ldrb	r5, [r4, r7]
 8004ebe:	f015 0508 	ands.w	r5, r5, #8
 8004ec2:	d1f8      	bne.n	8004eb6 <_strtol_l.isra.0+0x1e>
 8004ec4:	2c2d      	cmp	r4, #45	; 0x2d
 8004ec6:	d134      	bne.n	8004f32 <_strtol_l.isra.0+0x9a>
 8004ec8:	f89e 4000 	ldrb.w	r4, [lr]
 8004ecc:	f04f 0801 	mov.w	r8, #1
 8004ed0:	f106 0e02 	add.w	lr, r6, #2
 8004ed4:	2b00      	cmp	r3, #0
 8004ed6:	d05c      	beq.n	8004f92 <_strtol_l.isra.0+0xfa>
 8004ed8:	2b10      	cmp	r3, #16
 8004eda:	d10c      	bne.n	8004ef6 <_strtol_l.isra.0+0x5e>
 8004edc:	2c30      	cmp	r4, #48	; 0x30
 8004ede:	d10a      	bne.n	8004ef6 <_strtol_l.isra.0+0x5e>
 8004ee0:	f89e 4000 	ldrb.w	r4, [lr]
 8004ee4:	f004 04df 	and.w	r4, r4, #223	; 0xdf
 8004ee8:	2c58      	cmp	r4, #88	; 0x58
 8004eea:	d14d      	bne.n	8004f88 <_strtol_l.isra.0+0xf0>
 8004eec:	f89e 4001 	ldrb.w	r4, [lr, #1]
 8004ef0:	2310      	movs	r3, #16
 8004ef2:	f10e 0e02 	add.w	lr, lr, #2
 8004ef6:	f108 4c00 	add.w	ip, r8, #2147483648	; 0x80000000
 8004efa:	f10c 3cff 	add.w	ip, ip, #4294967295
 8004efe:	2600      	movs	r6, #0
 8004f00:	fbbc f9f3 	udiv	r9, ip, r3
 8004f04:	4635      	mov	r5, r6
 8004f06:	fb03 ca19 	mls	sl, r3, r9, ip
 8004f0a:	f1a4 0730 	sub.w	r7, r4, #48	; 0x30
 8004f0e:	2f09      	cmp	r7, #9
 8004f10:	d818      	bhi.n	8004f44 <_strtol_l.isra.0+0xac>
 8004f12:	463c      	mov	r4, r7
 8004f14:	42a3      	cmp	r3, r4
 8004f16:	dd24      	ble.n	8004f62 <_strtol_l.isra.0+0xca>
 8004f18:	2e00      	cmp	r6, #0
 8004f1a:	db1f      	blt.n	8004f5c <_strtol_l.isra.0+0xc4>
 8004f1c:	45a9      	cmp	r9, r5
 8004f1e:	d31d      	bcc.n	8004f5c <_strtol_l.isra.0+0xc4>
 8004f20:	d101      	bne.n	8004f26 <_strtol_l.isra.0+0x8e>
 8004f22:	45a2      	cmp	sl, r4
 8004f24:	db1a      	blt.n	8004f5c <_strtol_l.isra.0+0xc4>
 8004f26:	fb05 4503 	mla	r5, r5, r3, r4
 8004f2a:	2601      	movs	r6, #1
 8004f2c:	f81e 4b01 	ldrb.w	r4, [lr], #1
 8004f30:	e7eb      	b.n	8004f0a <_strtol_l.isra.0+0x72>
 8004f32:	2c2b      	cmp	r4, #43	; 0x2b
 8004f34:	bf08      	it	eq
 8004f36:	f89e 4000 	ldrbeq.w	r4, [lr]
 8004f3a:	46a8      	mov	r8, r5
 8004f3c:	bf08      	it	eq
 8004f3e:	f106 0e02 	addeq.w	lr, r6, #2
 8004f42:	e7c7      	b.n	8004ed4 <_strtol_l.isra.0+0x3c>
 8004f44:	f1a4 0741 	sub.w	r7, r4, #65	; 0x41
 8004f48:	2f19      	cmp	r7, #25
 8004f4a:	d801      	bhi.n	8004f50 <_strtol_l.isra.0+0xb8>
 8004f4c:	3c37      	subs	r4, #55	; 0x37
 8004f4e:	e7e1      	b.n	8004f14 <_strtol_l.isra.0+0x7c>
 8004f50:	f1a4 0761 	sub.w	r7, r4, #97	; 0x61
 8004f54:	2f19      	cmp	r7, #25
 8004f56:	d804      	bhi.n	8004f62 <_strtol_l.isra.0+0xca>
 8004f58:	3c57      	subs	r4, #87	; 0x57
 8004f5a:	e7db      	b.n	8004f14 <_strtol_l.isra.0+0x7c>
 8004f5c:	f04f 36ff 	mov.w	r6, #4294967295
 8004f60:	e7e4      	b.n	8004f2c <_strtol_l.isra.0+0x94>
 8004f62:	2e00      	cmp	r6, #0
 8004f64:	da05      	bge.n	8004f72 <_strtol_l.isra.0+0xda>
 8004f66:	2322      	movs	r3, #34	; 0x22
 8004f68:	6003      	str	r3, [r0, #0]
 8004f6a:	4665      	mov	r5, ip
 8004f6c:	b942      	cbnz	r2, 8004f80 <_strtol_l.isra.0+0xe8>
 8004f6e:	4628      	mov	r0, r5
 8004f70:	e79d      	b.n	8004eae <_strtol_l.isra.0+0x16>
 8004f72:	f1b8 0f00 	cmp.w	r8, #0
 8004f76:	d000      	beq.n	8004f7a <_strtol_l.isra.0+0xe2>
 8004f78:	426d      	negs	r5, r5
 8004f7a:	2a00      	cmp	r2, #0
 8004f7c:	d0f7      	beq.n	8004f6e <_strtol_l.isra.0+0xd6>
 8004f7e:	b10e      	cbz	r6, 8004f84 <_strtol_l.isra.0+0xec>
 8004f80:	f10e 31ff 	add.w	r1, lr, #4294967295
 8004f84:	6011      	str	r1, [r2, #0]
 8004f86:	e7f2      	b.n	8004f6e <_strtol_l.isra.0+0xd6>
 8004f88:	2430      	movs	r4, #48	; 0x30
 8004f8a:	2b00      	cmp	r3, #0
 8004f8c:	d1b3      	bne.n	8004ef6 <_strtol_l.isra.0+0x5e>
 8004f8e:	2308      	movs	r3, #8
 8004f90:	e7b1      	b.n	8004ef6 <_strtol_l.isra.0+0x5e>
 8004f92:	2c30      	cmp	r4, #48	; 0x30
 8004f94:	d0a4      	beq.n	8004ee0 <_strtol_l.isra.0+0x48>
 8004f96:	230a      	movs	r3, #10
 8004f98:	e7ad      	b.n	8004ef6 <_strtol_l.isra.0+0x5e>
 8004f9a:	bf00      	nop
 8004f9c:	08008119 	.word	0x08008119

08004fa0 <_strtol_r>:
 8004fa0:	f7ff bf7a 	b.w	8004e98 <_strtol_l.isra.0>

08004fa4 <_vsiprintf_r>:
 8004fa4:	b500      	push	{lr}
 8004fa6:	b09b      	sub	sp, #108	; 0x6c
 8004fa8:	9100      	str	r1, [sp, #0]
 8004faa:	9104      	str	r1, [sp, #16]
 8004fac:	f06f 4100 	mvn.w	r1, #2147483648	; 0x80000000
 8004fb0:	9105      	str	r1, [sp, #20]
 8004fb2:	9102      	str	r1, [sp, #8]
 8004fb4:	4905      	ldr	r1, [pc, #20]	; (8004fcc <_vsiprintf_r+0x28>)
 8004fb6:	9103      	str	r1, [sp, #12]
 8004fb8:	4669      	mov	r1, sp
 8004fba:	f001 fff9 	bl	8006fb0 <_svfiprintf_r>
 8004fbe:	9b00      	ldr	r3, [sp, #0]
 8004fc0:	2200      	movs	r2, #0
 8004fc2:	701a      	strb	r2, [r3, #0]
 8004fc4:	b01b      	add	sp, #108	; 0x6c
 8004fc6:	f85d fb04 	ldr.w	pc, [sp], #4
 8004fca:	bf00      	nop
 8004fcc:	ffff0208 	.word	0xffff0208

08004fd0 <vsiprintf>:
 8004fd0:	4613      	mov	r3, r2
 8004fd2:	460a      	mov	r2, r1
 8004fd4:	4601      	mov	r1, r0
 8004fd6:	4802      	ldr	r0, [pc, #8]	; (8004fe0 <vsiprintf+0x10>)
 8004fd8:	6800      	ldr	r0, [r0, #0]
 8004fda:	f7ff bfe3 	b.w	8004fa4 <_vsiprintf_r>
 8004fde:	bf00      	nop
 8004fe0:	2000000c 	.word	0x2000000c

08004fe4 <quorem>:
 8004fe4:	e92d 4ff7 	stmdb	sp!, {r0, r1, r2, r4, r5, r6, r7, r8, r9, sl, fp, lr}
 8004fe8:	6903      	ldr	r3, [r0, #16]
 8004fea:	690c      	ldr	r4, [r1, #16]
 8004fec:	42a3      	cmp	r3, r4
 8004fee:	4607      	mov	r7, r0
 8004ff0:	f2c0 8081 	blt.w	80050f6 <quorem+0x112>
 8004ff4:	3c01      	subs	r4, #1
 8004ff6:	f101 0814 	add.w	r8, r1, #20
 8004ffa:	f100 0514 	add.w	r5, r0, #20
 8004ffe:	eb05 0384 	add.w	r3, r5, r4, lsl #2
 8005002:	9301      	str	r3, [sp, #4]
 8005004:	f858 3024 	ldr.w	r3, [r8, r4, lsl #2]
 8005008:	f855 2024 	ldr.w	r2, [r5, r4, lsl #2]
 800500c:	3301      	adds	r3, #1
 800500e:	429a      	cmp	r2, r3
 8005010:	ea4f 0b84 	mov.w	fp, r4, lsl #2
 8005014:	eb08 0984 	add.w	r9, r8, r4, lsl #2
 8005018:	fbb2 f6f3 	udiv	r6, r2, r3
 800501c:	d331      	bcc.n	8005082 <quorem+0x9e>
 800501e:	f04f 0e00 	mov.w	lr, #0
 8005022:	4640      	mov	r0, r8
 8005024:	46ac      	mov	ip, r5
 8005026:	46f2      	mov	sl, lr
 8005028:	f850 2b04 	ldr.w	r2, [r0], #4
 800502c:	b293      	uxth	r3, r2
 800502e:	fb06 e303 	mla	r3, r6, r3, lr
 8005032:	ea4f 4e13 	mov.w	lr, r3, lsr #16
 8005036:	b29b      	uxth	r3, r3
 8005038:	ebaa 0303 	sub.w	r3, sl, r3
 800503c:	0c12      	lsrs	r2, r2, #16
 800503e:	f8dc a000 	ldr.w	sl, [ip]
 8005042:	fb06 e202 	mla	r2, r6, r2, lr
 8005046:	fa13 f38a 	uxtah	r3, r3, sl
 800504a:	ea4f 4e12 	mov.w	lr, r2, lsr #16
 800504e:	fa1f fa82 	uxth.w	sl, r2
 8005052:	f8dc 2000 	ldr.w	r2, [ip]
 8005056:	ebca 4212 	rsb	r2, sl, r2, lsr #16
 800505a:	eb02 4223 	add.w	r2, r2, r3, asr #16
 800505e:	b29b      	uxth	r3, r3
 8005060:	ea43 4302 	orr.w	r3, r3, r2, lsl #16
 8005064:	4581      	cmp	r9, r0
 8005066:	f84c 3b04 	str.w	r3, [ip], #4
 800506a:	ea4f 4a22 	mov.w	sl, r2, asr #16
 800506e:	d2db      	bcs.n	8005028 <quorem+0x44>
 8005070:	f855 300b 	ldr.w	r3, [r5, fp]
 8005074:	b92b      	cbnz	r3, 8005082 <quorem+0x9e>
 8005076:	9b01      	ldr	r3, [sp, #4]
 8005078:	3b04      	subs	r3, #4
 800507a:	429d      	cmp	r5, r3
 800507c:	461a      	mov	r2, r3
 800507e:	d32e      	bcc.n	80050de <quorem+0xfa>
 8005080:	613c      	str	r4, [r7, #16]
 8005082:	4638      	mov	r0, r7
 8005084:	f001 fc8c 	bl	80069a0 <__mcmp>
 8005088:	2800      	cmp	r0, #0
 800508a:	db24      	blt.n	80050d6 <quorem+0xf2>
 800508c:	3601      	adds	r6, #1
 800508e:	4628      	mov	r0, r5
 8005090:	f04f 0c00 	mov.w	ip, #0
 8005094:	f858 2b04 	ldr.w	r2, [r8], #4
 8005098:	f8d0 e000 	ldr.w	lr, [r0]
 800509c:	b293      	uxth	r3, r2
 800509e:	ebac 0303 	sub.w	r3, ip, r3
 80050a2:	0c12      	lsrs	r2, r2, #16
 80050a4:	fa13 f38e 	uxtah	r3, r3, lr
 80050a8:	ebc2 421e 	rsb	r2, r2, lr, lsr #16
 80050ac:	eb02 4223 	add.w	r2, r2, r3, asr #16
 80050b0:	b29b      	uxth	r3, r3
 80050b2:	ea43 4302 	orr.w	r3, r3, r2, lsl #16
 80050b6:	45c1      	cmp	r9, r8
 80050b8:	f840 3b04 	str.w	r3, [r0], #4
 80050bc:	ea4f 4c22 	mov.w	ip, r2, asr #16
 80050c0:	d2e8      	bcs.n	8005094 <quorem+0xb0>
 80050c2:	f855 2024 	ldr.w	r2, [r5, r4, lsl #2]
 80050c6:	eb05 0384 	add.w	r3, r5, r4, lsl #2
 80050ca:	b922      	cbnz	r2, 80050d6 <quorem+0xf2>
 80050cc:	3b04      	subs	r3, #4
 80050ce:	429d      	cmp	r5, r3
 80050d0:	461a      	mov	r2, r3
 80050d2:	d30a      	bcc.n	80050ea <quorem+0x106>
 80050d4:	613c      	str	r4, [r7, #16]
 80050d6:	4630      	mov	r0, r6
 80050d8:	b003      	add	sp, #12
 80050da:	e8bd 8ff0 	ldmia.w	sp!, {r4, r5, r6, r7, r8, r9, sl, fp, pc}
 80050de:	6812      	ldr	r2, [r2, #0]
 80050e0:	3b04      	subs	r3, #4
 80050e2:	2a00      	cmp	r2, #0
 80050e4:	d1cc      	bne.n	8005080 <quorem+0x9c>
 80050e6:	3c01      	subs	r4, #1
 80050e8:	e7c7      	b.n	800507a <quorem+0x96>
 80050ea:	6812      	ldr	r2, [r2, #0]
 80050ec:	3b04      	subs	r3, #4
 80050ee:	2a00      	cmp	r2, #0
 80050f0:	d1f0      	bne.n	80050d4 <quorem+0xf0>
 80050f2:	3c01      	subs	r4, #1
 80050f4:	e7eb      	b.n	80050ce <quorem+0xea>
 80050f6:	2000      	movs	r0, #0
 80050f8:	e7ee      	b.n	80050d8 <quorem+0xf4>
 80050fa:	0000      	movs	r0, r0
 80050fc:	0000      	movs	r0, r0
	...

08005100 <_dtoa_r>:
 8005100:	e92d 4ff0 	stmdb	sp!, {r4, r5, r6, r7, r8, r9, sl, fp, lr}
 8005104:	ed2d 8b02 	vpush	{d8}
 8005108:	ec57 6b10 	vmov	r6, r7, d0
 800510c:	b095      	sub	sp, #84	; 0x54
 800510e:	6a45      	ldr	r5, [r0, #36]	; 0x24
 8005110:	f8dd 8080 	ldr.w	r8, [sp, #128]	; 0x80
 8005114:	9105      	str	r1, [sp, #20]
 8005116:	e9cd 6702 	strd	r6, r7, [sp, #8]
 800511a:	4604      	mov	r4, r0
 800511c:	9209      	str	r2, [sp, #36]	; 0x24
 800511e:	930f      	str	r3, [sp, #60]	; 0x3c
 8005120:	b975      	cbnz	r5, 8005140 <_dtoa_r+0x40>
 8005122:	2010      	movs	r0, #16
 8005124:	f001 f94c 	bl	80063c0 <malloc>
 8005128:	4602      	mov	r2, r0
 800512a:	6260      	str	r0, [r4, #36]	; 0x24
 800512c:	b920      	cbnz	r0, 8005138 <_dtoa_r+0x38>
 800512e:	4bb2      	ldr	r3, [pc, #712]	; (80053f8 <_dtoa_r+0x2f8>)
 8005130:	21ea      	movs	r1, #234	; 0xea
 8005132:	48b2      	ldr	r0, [pc, #712]	; (80053fc <_dtoa_r+0x2fc>)
 8005134:	f002 f874 	bl	8007220 <__assert_func>
 8005138:	e9c0 5501 	strd	r5, r5, [r0, #4]
 800513c:	6005      	str	r5, [r0, #0]
 800513e:	60c5      	str	r5, [r0, #12]
 8005140:	6a63      	ldr	r3, [r4, #36]	; 0x24
 8005142:	6819      	ldr	r1, [r3, #0]
 8005144:	b151      	cbz	r1, 800515c <_dtoa_r+0x5c>
 8005146:	685a      	ldr	r2, [r3, #4]
 8005148:	604a      	str	r2, [r1, #4]
 800514a:	2301      	movs	r3, #1
 800514c:	4093      	lsls	r3, r2
 800514e:	608b      	str	r3, [r1, #8]
 8005150:	4620      	mov	r0, r4
 8005152:	f001 f99d 	bl	8006490 <_Bfree>
 8005156:	6a63      	ldr	r3, [r4, #36]	; 0x24
 8005158:	2200      	movs	r2, #0
 800515a:	601a      	str	r2, [r3, #0]
 800515c:	1e3b      	subs	r3, r7, #0
 800515e:	bfb9      	ittee	lt
 8005160:	f023 4300 	biclt.w	r3, r3, #2147483648	; 0x80000000
 8005164:	9303      	strlt	r3, [sp, #12]
 8005166:	2300      	movge	r3, #0
 8005168:	f8c8 3000 	strge.w	r3, [r8]
 800516c:	f8dd 900c 	ldr.w	r9, [sp, #12]
 8005170:	4ba3      	ldr	r3, [pc, #652]	; (8005400 <_dtoa_r+0x300>)
 8005172:	bfbc      	itt	lt
 8005174:	2201      	movlt	r2, #1
 8005176:	f8c8 2000 	strlt.w	r2, [r8]
 800517a:	ea33 0309 	bics.w	r3, r3, r9
 800517e:	d11b      	bne.n	80051b8 <_dtoa_r+0xb8>
 8005180:	9a0f      	ldr	r2, [sp, #60]	; 0x3c
 8005182:	f242 730f 	movw	r3, #9999	; 0x270f
 8005186:	6013      	str	r3, [r2, #0]
 8005188:	f3c9 0313 	ubfx	r3, r9, #0, #20
 800518c:	4333      	orrs	r3, r6
 800518e:	f000 857a 	beq.w	8005c86 <_dtoa_r+0xb86>
 8005192:	9b21      	ldr	r3, [sp, #132]	; 0x84
 8005194:	b963      	cbnz	r3, 80051b0 <_dtoa_r+0xb0>
 8005196:	4b9b      	ldr	r3, [pc, #620]	; (8005404 <_dtoa_r+0x304>)
 8005198:	e024      	b.n	80051e4 <_dtoa_r+0xe4>
 800519a:	4b9b      	ldr	r3, [pc, #620]	; (8005408 <_dtoa_r+0x308>)
 800519c:	9300      	str	r3, [sp, #0]
 800519e:	3308      	adds	r3, #8
 80051a0:	9a21      	ldr	r2, [sp, #132]	; 0x84
 80051a2:	6013      	str	r3, [r2, #0]
 80051a4:	9800      	ldr	r0, [sp, #0]
 80051a6:	b015      	add	sp, #84	; 0x54
 80051a8:	ecbd 8b02 	vpop	{d8}
 80051ac:	e8bd 8ff0 	ldmia.w	sp!, {r4, r5, r6, r7, r8, r9, sl, fp, pc}
 80051b0:	4b94      	ldr	r3, [pc, #592]	; (8005404 <_dtoa_r+0x304>)
 80051b2:	9300      	str	r3, [sp, #0]
 80051b4:	3303      	adds	r3, #3
 80051b6:	e7f3      	b.n	80051a0 <_dtoa_r+0xa0>
 80051b8:	ed9d 7b02 	vldr	d7, [sp, #8]
 80051bc:	2200      	movs	r2, #0
 80051be:	ec51 0b17 	vmov	r0, r1, d7
 80051c2:	2300      	movs	r3, #0
 80051c4:	ed8d 7b0a 	vstr	d7, [sp, #40]	; 0x28
 80051c8:	f7fb fc86 	bl	8000ad8 <__aeabi_dcmpeq>
 80051cc:	4680      	mov	r8, r0
 80051ce:	b158      	cbz	r0, 80051e8 <_dtoa_r+0xe8>
 80051d0:	9a0f      	ldr	r2, [sp, #60]	; 0x3c
 80051d2:	2301      	movs	r3, #1
 80051d4:	6013      	str	r3, [r2, #0]
 80051d6:	9b21      	ldr	r3, [sp, #132]	; 0x84
 80051d8:	2b00      	cmp	r3, #0
 80051da:	f000 8551 	beq.w	8005c80 <_dtoa_r+0xb80>
 80051de:	488b      	ldr	r0, [pc, #556]	; (800540c <_dtoa_r+0x30c>)
 80051e0:	6018      	str	r0, [r3, #0]
 80051e2:	1e43      	subs	r3, r0, #1
 80051e4:	9300      	str	r3, [sp, #0]
 80051e6:	e7dd      	b.n	80051a4 <_dtoa_r+0xa4>
 80051e8:	ed9d 0b0a 	vldr	d0, [sp, #40]	; 0x28
 80051ec:	aa12      	add	r2, sp, #72	; 0x48
 80051ee:	a913      	add	r1, sp, #76	; 0x4c
 80051f0:	4620      	mov	r0, r4
 80051f2:	f001 fcf5 	bl	8006be0 <__d2b>
 80051f6:	f3c9 550a 	ubfx	r5, r9, #20, #11
 80051fa:	4683      	mov	fp, r0
 80051fc:	2d00      	cmp	r5, #0
 80051fe:	d07c      	beq.n	80052fa <_dtoa_r+0x1fa>
 8005200:	9b0b      	ldr	r3, [sp, #44]	; 0x2c
 8005202:	f8cd 8040 	str.w	r8, [sp, #64]	; 0x40
 8005206:	f3c3 0313 	ubfx	r3, r3, #0, #20
 800520a:	e9dd 670a 	ldrd	r6, r7, [sp, #40]	; 0x28
 800520e:	f043 577f 	orr.w	r7, r3, #1069547520	; 0x3fc00000
 8005212:	f447 1740 	orr.w	r7, r7, #3145728	; 0x300000
 8005216:	f2a5 35ff 	subw	r5, r5, #1023	; 0x3ff
 800521a:	4b7d      	ldr	r3, [pc, #500]	; (8005410 <_dtoa_r+0x310>)
 800521c:	2200      	movs	r2, #0
 800521e:	4630      	mov	r0, r6
 8005220:	4639      	mov	r1, r7
 8005222:	f7fb f839 	bl	8000298 <__aeabi_dsub>
 8005226:	a36e      	add	r3, pc, #440	; (adr r3, 80053e0 <_dtoa_r+0x2e0>)
 8005228:	e9d3 2300 	ldrd	r2, r3, [r3]
 800522c:	f7fb f9ec 	bl	8000608 <__aeabi_dmul>
 8005230:	a36d      	add	r3, pc, #436	; (adr r3, 80053e8 <_dtoa_r+0x2e8>)
 8005232:	e9d3 2300 	ldrd	r2, r3, [r3]
 8005236:	f7fb f831 	bl	800029c <__adddf3>
 800523a:	4606      	mov	r6, r0
 800523c:	4628      	mov	r0, r5
 800523e:	460f      	mov	r7, r1
 8005240:	f7fb f978 	bl	8000534 <__aeabi_i2d>
 8005244:	a36a      	add	r3, pc, #424	; (adr r3, 80053f0 <_dtoa_r+0x2f0>)
 8005246:	e9d3 2300 	ldrd	r2, r3, [r3]
 800524a:	f7fb f9dd 	bl	8000608 <__aeabi_dmul>
 800524e:	4602      	mov	r2, r0
 8005250:	460b      	mov	r3, r1
 8005252:	4630      	mov	r0, r6
 8005254:	4639      	mov	r1, r7
 8005256:	f7fb f821 	bl	800029c <__adddf3>
 800525a:	4606      	mov	r6, r0
 800525c:	460f      	mov	r7, r1
 800525e:	f7fb fc83 	bl	8000b68 <__aeabi_d2iz>
 8005262:	2200      	movs	r2, #0
 8005264:	4682      	mov	sl, r0
 8005266:	2300      	movs	r3, #0
 8005268:	4630      	mov	r0, r6
 800526a:	4639      	mov	r1, r7
 800526c:	f7fb fc3e 	bl	8000aec <__aeabi_dcmplt>
 8005270:	b148      	cbz	r0, 8005286 <_dtoa_r+0x186>
 8005272:	4650      	mov	r0, sl
 8005274:	f7fb f95e 	bl	8000534 <__aeabi_i2d>
 8005278:	4632      	mov	r2, r6
 800527a:	463b      	mov	r3, r7
 800527c:	f7fb fc2c 	bl	8000ad8 <__aeabi_dcmpeq>
 8005280:	b908      	cbnz	r0, 8005286 <_dtoa_r+0x186>
 8005282:	f10a 3aff 	add.w	sl, sl, #4294967295
 8005286:	f1ba 0f16 	cmp.w	sl, #22
 800528a:	d854      	bhi.n	8005336 <_dtoa_r+0x236>
 800528c:	4b61      	ldr	r3, [pc, #388]	; (8005414 <_dtoa_r+0x314>)
 800528e:	eb03 03ca 	add.w	r3, r3, sl, lsl #3
 8005292:	e9d3 2300 	ldrd	r2, r3, [r3]
 8005296:	e9dd 010a 	ldrd	r0, r1, [sp, #40]	; 0x28
 800529a:	f7fb fc27 	bl	8000aec <__aeabi_dcmplt>
 800529e:	2800      	cmp	r0, #0
 80052a0:	d04b      	beq.n	800533a <_dtoa_r+0x23a>
 80052a2:	f10a 3aff 	add.w	sl, sl, #4294967295
 80052a6:	2300      	movs	r3, #0
 80052a8:	930e      	str	r3, [sp, #56]	; 0x38
 80052aa:	9b12      	ldr	r3, [sp, #72]	; 0x48
 80052ac:	1b5d      	subs	r5, r3, r5
 80052ae:	1e6b      	subs	r3, r5, #1
 80052b0:	9304      	str	r3, [sp, #16]
 80052b2:	bf43      	ittte	mi
 80052b4:	2300      	movmi	r3, #0
 80052b6:	f1c5 0801 	rsbmi	r8, r5, #1
 80052ba:	9304      	strmi	r3, [sp, #16]
 80052bc:	f04f 0800 	movpl.w	r8, #0
 80052c0:	f1ba 0f00 	cmp.w	sl, #0
 80052c4:	db3b      	blt.n	800533e <_dtoa_r+0x23e>
 80052c6:	9b04      	ldr	r3, [sp, #16]
 80052c8:	f8cd a034 	str.w	sl, [sp, #52]	; 0x34
 80052cc:	4453      	add	r3, sl
 80052ce:	9304      	str	r3, [sp, #16]
 80052d0:	2300      	movs	r3, #0
 80052d2:	9306      	str	r3, [sp, #24]
 80052d4:	9b05      	ldr	r3, [sp, #20]
 80052d6:	2b09      	cmp	r3, #9
 80052d8:	d869      	bhi.n	80053ae <_dtoa_r+0x2ae>
 80052da:	2b05      	cmp	r3, #5
 80052dc:	bfc4      	itt	gt
 80052de:	3b04      	subgt	r3, #4
 80052e0:	9305      	strgt	r3, [sp, #20]
 80052e2:	9b05      	ldr	r3, [sp, #20]
 80052e4:	f1a3 0302 	sub.w	r3, r3, #2
 80052e8:	bfcc      	ite	gt
 80052ea:	2500      	movgt	r5, #0
 80052ec:	2501      	movle	r5, #1
 80052ee:	2b03      	cmp	r3, #3
 80052f0:	d869      	bhi.n	80053c6 <_dtoa_r+0x2c6>
 80052f2:	e8df f003 	tbb	[pc, r3]
 80052f6:	4e2c      	.short	0x4e2c
 80052f8:	5a4c      	.short	0x5a4c
 80052fa:	e9dd 5312 	ldrd	r5, r3, [sp, #72]	; 0x48
 80052fe:	441d      	add	r5, r3
 8005300:	f205 4332 	addw	r3, r5, #1074	; 0x432
 8005304:	2b20      	cmp	r3, #32
 8005306:	bfc1      	itttt	gt
 8005308:	f1c3 0340 	rsbgt	r3, r3, #64	; 0x40
 800530c:	f205 4012 	addwgt	r0, r5, #1042	; 0x412
 8005310:	fa09 f303 	lslgt.w	r3, r9, r3
 8005314:	fa26 f000 	lsrgt.w	r0, r6, r0
 8005318:	bfda      	itte	le
 800531a:	f1c3 0320 	rsble	r3, r3, #32
 800531e:	fa06 f003 	lslle.w	r0, r6, r3
 8005322:	4318      	orrgt	r0, r3
 8005324:	f7fb f8f6 	bl	8000514 <__aeabi_ui2d>
 8005328:	2301      	movs	r3, #1
 800532a:	4606      	mov	r6, r0
 800532c:	f1a1 77f8 	sub.w	r7, r1, #32505856	; 0x1f00000
 8005330:	3d01      	subs	r5, #1
 8005332:	9310      	str	r3, [sp, #64]	; 0x40
 8005334:	e771      	b.n	800521a <_dtoa_r+0x11a>
 8005336:	2301      	movs	r3, #1
 8005338:	e7b6      	b.n	80052a8 <_dtoa_r+0x1a8>
 800533a:	900e      	str	r0, [sp, #56]	; 0x38
 800533c:	e7b5      	b.n	80052aa <_dtoa_r+0x1aa>
 800533e:	f1ca 0300 	rsb	r3, sl, #0
 8005342:	9306      	str	r3, [sp, #24]
 8005344:	2300      	movs	r3, #0
 8005346:	eba8 080a 	sub.w	r8, r8, sl
 800534a:	930d      	str	r3, [sp, #52]	; 0x34
 800534c:	e7c2      	b.n	80052d4 <_dtoa_r+0x1d4>
 800534e:	2300      	movs	r3, #0
 8005350:	9308      	str	r3, [sp, #32]
 8005352:	9b09      	ldr	r3, [sp, #36]	; 0x24
 8005354:	2b00      	cmp	r3, #0
 8005356:	dc39      	bgt.n	80053cc <_dtoa_r+0x2cc>
 8005358:	f04f 0901 	mov.w	r9, #1
 800535c:	f8cd 9004 	str.w	r9, [sp, #4]
 8005360:	464b      	mov	r3, r9
 8005362:	f8cd 9024 	str.w	r9, [sp, #36]	; 0x24
 8005366:	6a60      	ldr	r0, [r4, #36]	; 0x24
 8005368:	2200      	movs	r2, #0
 800536a:	6042      	str	r2, [r0, #4]
 800536c:	2204      	movs	r2, #4
 800536e:	f102 0614 	add.w	r6, r2, #20
 8005372:	429e      	cmp	r6, r3
 8005374:	6841      	ldr	r1, [r0, #4]
 8005376:	d92f      	bls.n	80053d8 <_dtoa_r+0x2d8>
 8005378:	4620      	mov	r0, r4
 800537a:	f001 f849 	bl	8006410 <_Balloc>
 800537e:	9000      	str	r0, [sp, #0]
 8005380:	2800      	cmp	r0, #0
 8005382:	d14b      	bne.n	800541c <_dtoa_r+0x31c>
 8005384:	4b24      	ldr	r3, [pc, #144]	; (8005418 <_dtoa_r+0x318>)
 8005386:	4602      	mov	r2, r0
 8005388:	f44f 71d5 	mov.w	r1, #426	; 0x1aa
 800538c:	e6d1      	b.n	8005132 <_dtoa_r+0x32>
 800538e:	2301      	movs	r3, #1
 8005390:	e7de      	b.n	8005350 <_dtoa_r+0x250>
 8005392:	2300      	movs	r3, #0
 8005394:	9308      	str	r3, [sp, #32]
 8005396:	9b09      	ldr	r3, [sp, #36]	; 0x24
 8005398:	eb0a 0903 	add.w	r9, sl, r3
 800539c:	f109 0301 	add.w	r3, r9, #1
 80053a0:	2b01      	cmp	r3, #1
 80053a2:	9301      	str	r3, [sp, #4]
 80053a4:	bfb8      	it	lt
 80053a6:	2301      	movlt	r3, #1
 80053a8:	e7dd      	b.n	8005366 <_dtoa_r+0x266>
 80053aa:	2301      	movs	r3, #1
 80053ac:	e7f2      	b.n	8005394 <_dtoa_r+0x294>
 80053ae:	2501      	movs	r5, #1
 80053b0:	2300      	movs	r3, #0
 80053b2:	9305      	str	r3, [sp, #20]
 80053b4:	9508      	str	r5, [sp, #32]
 80053b6:	f04f 39ff 	mov.w	r9, #4294967295
 80053ba:	2200      	movs	r2, #0
 80053bc:	f8cd 9004 	str.w	r9, [sp, #4]
 80053c0:	2312      	movs	r3, #18
 80053c2:	9209      	str	r2, [sp, #36]	; 0x24
 80053c4:	e7cf      	b.n	8005366 <_dtoa_r+0x266>
 80053c6:	2301      	movs	r3, #1
 80053c8:	9308      	str	r3, [sp, #32]
 80053ca:	e7f4      	b.n	80053b6 <_dtoa_r+0x2b6>
 80053cc:	f8dd 9024 	ldr.w	r9, [sp, #36]	; 0x24
 80053d0:	f8cd 9004 	str.w	r9, [sp, #4]
 80053d4:	464b      	mov	r3, r9
 80053d6:	e7c6      	b.n	8005366 <_dtoa_r+0x266>
 80053d8:	3101      	adds	r1, #1
 80053da:	6041      	str	r1, [r0, #4]
 80053dc:	0052      	lsls	r2, r2, #1
 80053de:	e7c6      	b.n	800536e <_dtoa_r+0x26e>
 80053e0:	636f4361 	.word	0x636f4361
 80053e4:	3fd287a7 	.word	0x3fd287a7
 80053e8:	8b60c8b3 	.word	0x8b60c8b3
 80053ec:	3fc68a28 	.word	0x3fc68a28
 80053f0:	509f79fb 	.word	0x509f79fb
 80053f4:	3fd34413 	.word	0x3fd34413
 80053f8:	08008226 	.word	0x08008226
 80053fc:	0800823d 	.word	0x0800823d
 8005400:	7ff00000 	.word	0x7ff00000
 8005404:	08008222 	.word	0x08008222
 8005408:	08008219 	.word	0x08008219
 800540c:	08008099 	.word	0x08008099
 8005410:	3ff80000 	.word	0x3ff80000
 8005414:	080083b8 	.word	0x080083b8
 8005418:	0800829c 	.word	0x0800829c
 800541c:	6a63      	ldr	r3, [r4, #36]	; 0x24
 800541e:	9a00      	ldr	r2, [sp, #0]
 8005420:	601a      	str	r2, [r3, #0]
 8005422:	9b01      	ldr	r3, [sp, #4]
 8005424:	2b0e      	cmp	r3, #14
 8005426:	f200 80ad 	bhi.w	8005584 <_dtoa_r+0x484>
 800542a:	2d00      	cmp	r5, #0
 800542c:	f000 80aa 	beq.w	8005584 <_dtoa_r+0x484>
 8005430:	f1ba 0f00 	cmp.w	sl, #0
 8005434:	dd36      	ble.n	80054a4 <_dtoa_r+0x3a4>
 8005436:	4ac3      	ldr	r2, [pc, #780]	; (8005744 <_dtoa_r+0x644>)
 8005438:	f00a 030f 	and.w	r3, sl, #15
 800543c:	eb02 03c3 	add.w	r3, r2, r3, lsl #3
 8005440:	ed93 7b00 	vldr	d7, [r3]
 8005444:	f41a 7f80 	tst.w	sl, #256	; 0x100
 8005448:	ea4f 172a 	mov.w	r7, sl, asr #4
 800544c:	eeb0 8a47 	vmov.f32	s16, s14
 8005450:	eef0 8a67 	vmov.f32	s17, s15
 8005454:	d016      	beq.n	8005484 <_dtoa_r+0x384>
 8005456:	4bbc      	ldr	r3, [pc, #752]	; (8005748 <_dtoa_r+0x648>)
 8005458:	e9dd 010a 	ldrd	r0, r1, [sp, #40]	; 0x28
 800545c:	e9d3 2308 	ldrd	r2, r3, [r3, #32]
 8005460:	f7fb f9fc 	bl	800085c <__aeabi_ddiv>
 8005464:	e9cd 0102 	strd	r0, r1, [sp, #8]
 8005468:	f007 070f 	and.w	r7, r7, #15
 800546c:	2503      	movs	r5, #3
 800546e:	4eb6      	ldr	r6, [pc, #728]	; (8005748 <_dtoa_r+0x648>)
 8005470:	b957      	cbnz	r7, 8005488 <_dtoa_r+0x388>
 8005472:	e9dd 0102 	ldrd	r0, r1, [sp, #8]
 8005476:	ec53 2b18 	vmov	r2, r3, d8
 800547a:	f7fb f9ef 	bl	800085c <__aeabi_ddiv>
 800547e:	e9cd 0102 	strd	r0, r1, [sp, #8]
 8005482:	e029      	b.n	80054d8 <_dtoa_r+0x3d8>
 8005484:	2502      	movs	r5, #2
 8005486:	e7f2      	b.n	800546e <_dtoa_r+0x36e>
 8005488:	07f9      	lsls	r1, r7, #31
 800548a:	d508      	bpl.n	800549e <_dtoa_r+0x39e>
 800548c:	ec51 0b18 	vmov	r0, r1, d8
 8005490:	e9d6 2300 	ldrd	r2, r3, [r6]
 8005494:	f7fb f8b8 	bl	8000608 <__aeabi_dmul>
 8005498:	ec41 0b18 	vmov	d8, r0, r1
 800549c:	3501      	adds	r5, #1
 800549e:	107f      	asrs	r7, r7, #1
 80054a0:	3608      	adds	r6, #8
 80054a2:	e7e5      	b.n	8005470 <_dtoa_r+0x370>
 80054a4:	f000 80a6 	beq.w	80055f4 <_dtoa_r+0x4f4>
 80054a8:	f1ca 0600 	rsb	r6, sl, #0
 80054ac:	4ba5      	ldr	r3, [pc, #660]	; (8005744 <_dtoa_r+0x644>)
 80054ae:	4fa6      	ldr	r7, [pc, #664]	; (8005748 <_dtoa_r+0x648>)
 80054b0:	f006 020f 	and.w	r2, r6, #15
 80054b4:	eb03 03c2 	add.w	r3, r3, r2, lsl #3
 80054b8:	e9d3 2300 	ldrd	r2, r3, [r3]
 80054bc:	e9dd 010a 	ldrd	r0, r1, [sp, #40]	; 0x28
 80054c0:	f7fb f8a2 	bl	8000608 <__aeabi_dmul>
 80054c4:	e9cd 0102 	strd	r0, r1, [sp, #8]
 80054c8:	1136      	asrs	r6, r6, #4
 80054ca:	2300      	movs	r3, #0
 80054cc:	2502      	movs	r5, #2
 80054ce:	2e00      	cmp	r6, #0
 80054d0:	f040 8085 	bne.w	80055de <_dtoa_r+0x4de>
 80054d4:	2b00      	cmp	r3, #0
 80054d6:	d1d2      	bne.n	800547e <_dtoa_r+0x37e>
 80054d8:	9b0e      	ldr	r3, [sp, #56]	; 0x38
 80054da:	2b00      	cmp	r3, #0
 80054dc:	f000 808c 	beq.w	80055f8 <_dtoa_r+0x4f8>
 80054e0:	e9dd 6702 	ldrd	r6, r7, [sp, #8]
 80054e4:	4b99      	ldr	r3, [pc, #612]	; (800574c <_dtoa_r+0x64c>)
 80054e6:	2200      	movs	r2, #0
 80054e8:	4630      	mov	r0, r6
 80054ea:	4639      	mov	r1, r7
 80054ec:	f7fb fafe 	bl	8000aec <__aeabi_dcmplt>
 80054f0:	2800      	cmp	r0, #0
 80054f2:	f000 8081 	beq.w	80055f8 <_dtoa_r+0x4f8>
 80054f6:	9b01      	ldr	r3, [sp, #4]
 80054f8:	2b00      	cmp	r3, #0
 80054fa:	d07d      	beq.n	80055f8 <_dtoa_r+0x4f8>
 80054fc:	f1b9 0f00 	cmp.w	r9, #0
 8005500:	dd3c      	ble.n	800557c <_dtoa_r+0x47c>
 8005502:	f10a 33ff 	add.w	r3, sl, #4294967295
 8005506:	9307      	str	r3, [sp, #28]
 8005508:	2200      	movs	r2, #0
 800550a:	4b91      	ldr	r3, [pc, #580]	; (8005750 <_dtoa_r+0x650>)
 800550c:	4630      	mov	r0, r6
 800550e:	4639      	mov	r1, r7
 8005510:	f7fb f87a 	bl	8000608 <__aeabi_dmul>
 8005514:	e9cd 0102 	strd	r0, r1, [sp, #8]
 8005518:	3501      	adds	r5, #1
 800551a:	f8cd 9030 	str.w	r9, [sp, #48]	; 0x30
 800551e:	e9dd 6702 	ldrd	r6, r7, [sp, #8]
 8005522:	4628      	mov	r0, r5
 8005524:	f7fb f806 	bl	8000534 <__aeabi_i2d>
 8005528:	4632      	mov	r2, r6
 800552a:	463b      	mov	r3, r7
 800552c:	f7fb f86c 	bl	8000608 <__aeabi_dmul>
 8005530:	4b88      	ldr	r3, [pc, #544]	; (8005754 <_dtoa_r+0x654>)
 8005532:	2200      	movs	r2, #0
 8005534:	f7fa feb2 	bl	800029c <__adddf3>
 8005538:	f1a1 7350 	sub.w	r3, r1, #54525952	; 0x3400000
 800553c:	e9cd 0102 	strd	r0, r1, [sp, #8]
 8005540:	9303      	str	r3, [sp, #12]
 8005542:	9b0c      	ldr	r3, [sp, #48]	; 0x30
 8005544:	2b00      	cmp	r3, #0
 8005546:	d15c      	bne.n	8005602 <_dtoa_r+0x502>
 8005548:	4b83      	ldr	r3, [pc, #524]	; (8005758 <_dtoa_r+0x658>)
 800554a:	2200      	movs	r2, #0
 800554c:	4630      	mov	r0, r6
 800554e:	4639      	mov	r1, r7
 8005550:	f7fa fea2 	bl	8000298 <__aeabi_dsub>
 8005554:	e9dd 2302 	ldrd	r2, r3, [sp, #8]
 8005558:	4606      	mov	r6, r0
 800555a:	460f      	mov	r7, r1
 800555c:	f7fb fae4 	bl	8000b28 <__aeabi_dcmpgt>
 8005560:	2800      	cmp	r0, #0
 8005562:	f040 8296 	bne.w	8005a92 <_dtoa_r+0x992>
 8005566:	e9dd 2102 	ldrd	r2, r1, [sp, #8]
 800556a:	4630      	mov	r0, r6
 800556c:	f101 4300 	add.w	r3, r1, #2147483648	; 0x80000000
 8005570:	4639      	mov	r1, r7
 8005572:	f7fb fabb 	bl	8000aec <__aeabi_dcmplt>
 8005576:	2800      	cmp	r0, #0
 8005578:	f040 8288 	bne.w	8005a8c <_dtoa_r+0x98c>
 800557c:	e9dd 230a 	ldrd	r2, r3, [sp, #40]	; 0x28
 8005580:	e9cd 2302 	strd	r2, r3, [sp, #8]
 8005584:	9b13      	ldr	r3, [sp, #76]	; 0x4c
 8005586:	2b00      	cmp	r3, #0
 8005588:	f2c0 8158 	blt.w	800583c <_dtoa_r+0x73c>
 800558c:	f1ba 0f0e 	cmp.w	sl, #14
 8005590:	f300 8154 	bgt.w	800583c <_dtoa_r+0x73c>
 8005594:	4b6b      	ldr	r3, [pc, #428]	; (8005744 <_dtoa_r+0x644>)
 8005596:	eb03 03ca 	add.w	r3, r3, sl, lsl #3
 800559a:	e9d3 8900 	ldrd	r8, r9, [r3]
 800559e:	9b09      	ldr	r3, [sp, #36]	; 0x24
 80055a0:	2b00      	cmp	r3, #0
 80055a2:	f280 80e3 	bge.w	800576c <_dtoa_r+0x66c>
 80055a6:	9b01      	ldr	r3, [sp, #4]
 80055a8:	2b00      	cmp	r3, #0
 80055aa:	f300 80df 	bgt.w	800576c <_dtoa_r+0x66c>
 80055ae:	f040 826d 	bne.w	8005a8c <_dtoa_r+0x98c>
 80055b2:	4b69      	ldr	r3, [pc, #420]	; (8005758 <_dtoa_r+0x658>)
 80055b4:	2200      	movs	r2, #0
 80055b6:	4640      	mov	r0, r8
 80055b8:	4649      	mov	r1, r9
 80055ba:	f7fb f825 	bl	8000608 <__aeabi_dmul>
 80055be:	e9dd 2302 	ldrd	r2, r3, [sp, #8]
 80055c2:	f7fb faa7 	bl	8000b14 <__aeabi_dcmpge>
 80055c6:	9e01      	ldr	r6, [sp, #4]
 80055c8:	4637      	mov	r7, r6
 80055ca:	2800      	cmp	r0, #0
 80055cc:	f040 8243 	bne.w	8005a56 <_dtoa_r+0x956>
 80055d0:	9d00      	ldr	r5, [sp, #0]
 80055d2:	2331      	movs	r3, #49	; 0x31
 80055d4:	f805 3b01 	strb.w	r3, [r5], #1
 80055d8:	f10a 0a01 	add.w	sl, sl, #1
 80055dc:	e23f      	b.n	8005a5e <_dtoa_r+0x95e>
 80055de:	07f2      	lsls	r2, r6, #31
 80055e0:	d505      	bpl.n	80055ee <_dtoa_r+0x4ee>
 80055e2:	e9d7 2300 	ldrd	r2, r3, [r7]
 80055e6:	f7fb f80f 	bl	8000608 <__aeabi_dmul>
 80055ea:	3501      	adds	r5, #1
 80055ec:	2301      	movs	r3, #1
 80055ee:	1076      	asrs	r6, r6, #1
 80055f0:	3708      	adds	r7, #8
 80055f2:	e76c      	b.n	80054ce <_dtoa_r+0x3ce>
 80055f4:	2502      	movs	r5, #2
 80055f6:	e76f      	b.n	80054d8 <_dtoa_r+0x3d8>
 80055f8:	9b01      	ldr	r3, [sp, #4]
 80055fa:	f8cd a01c 	str.w	sl, [sp, #28]
 80055fe:	930c      	str	r3, [sp, #48]	; 0x30
 8005600:	e78d      	b.n	800551e <_dtoa_r+0x41e>
 8005602:	9900      	ldr	r1, [sp, #0]
 8005604:	980c      	ldr	r0, [sp, #48]	; 0x30
 8005606:	9a0c      	ldr	r2, [sp, #48]	; 0x30
 8005608:	4b4e      	ldr	r3, [pc, #312]	; (8005744 <_dtoa_r+0x644>)
 800560a:	ed9d 7b02 	vldr	d7, [sp, #8]
 800560e:	4401      	add	r1, r0
 8005610:	9102      	str	r1, [sp, #8]
 8005612:	9908      	ldr	r1, [sp, #32]
 8005614:	eeb0 8a47 	vmov.f32	s16, s14
 8005618:	eef0 8a67 	vmov.f32	s17, s15
 800561c:	eb03 03c2 	add.w	r3, r3, r2, lsl #3
 8005620:	e953 2302 	ldrd	r2, r3, [r3, #-8]
 8005624:	2900      	cmp	r1, #0
 8005626:	d045      	beq.n	80056b4 <_dtoa_r+0x5b4>
 8005628:	494c      	ldr	r1, [pc, #304]	; (800575c <_dtoa_r+0x65c>)
 800562a:	2000      	movs	r0, #0
 800562c:	f7fb f916 	bl	800085c <__aeabi_ddiv>
 8005630:	ec53 2b18 	vmov	r2, r3, d8
 8005634:	f7fa fe30 	bl	8000298 <__aeabi_dsub>
 8005638:	9d00      	ldr	r5, [sp, #0]
 800563a:	ec41 0b18 	vmov	d8, r0, r1
 800563e:	4639      	mov	r1, r7
 8005640:	4630      	mov	r0, r6
 8005642:	f7fb fa91 	bl	8000b68 <__aeabi_d2iz>
 8005646:	900c      	str	r0, [sp, #48]	; 0x30
 8005648:	f7fa ff74 	bl	8000534 <__aeabi_i2d>
 800564c:	4602      	mov	r2, r0
 800564e:	460b      	mov	r3, r1
 8005650:	4630      	mov	r0, r6
 8005652:	4639      	mov	r1, r7
 8005654:	f7fa fe20 	bl	8000298 <__aeabi_dsub>
 8005658:	9b0c      	ldr	r3, [sp, #48]	; 0x30
 800565a:	3330      	adds	r3, #48	; 0x30
 800565c:	f805 3b01 	strb.w	r3, [r5], #1
 8005660:	ec53 2b18 	vmov	r2, r3, d8
 8005664:	4606      	mov	r6, r0
 8005666:	460f      	mov	r7, r1
 8005668:	f7fb fa40 	bl	8000aec <__aeabi_dcmplt>
 800566c:	2800      	cmp	r0, #0
 800566e:	d165      	bne.n	800573c <_dtoa_r+0x63c>
 8005670:	4632      	mov	r2, r6
 8005672:	463b      	mov	r3, r7
 8005674:	4935      	ldr	r1, [pc, #212]	; (800574c <_dtoa_r+0x64c>)
 8005676:	2000      	movs	r0, #0
 8005678:	f7fa fe0e 	bl	8000298 <__aeabi_dsub>
 800567c:	ec53 2b18 	vmov	r2, r3, d8
 8005680:	f7fb fa34 	bl	8000aec <__aeabi_dcmplt>
 8005684:	2800      	cmp	r0, #0
 8005686:	f040 80b9 	bne.w	80057fc <_dtoa_r+0x6fc>
 800568a:	9b02      	ldr	r3, [sp, #8]
 800568c:	429d      	cmp	r5, r3
 800568e:	f43f af75 	beq.w	800557c <_dtoa_r+0x47c>
 8005692:	4b2f      	ldr	r3, [pc, #188]	; (8005750 <_dtoa_r+0x650>)
 8005694:	ec51 0b18 	vmov	r0, r1, d8
 8005698:	2200      	movs	r2, #0
 800569a:	f7fa ffb5 	bl	8000608 <__aeabi_dmul>
 800569e:	4b2c      	ldr	r3, [pc, #176]	; (8005750 <_dtoa_r+0x650>)
 80056a0:	ec41 0b18 	vmov	d8, r0, r1
 80056a4:	2200      	movs	r2, #0
 80056a6:	4630      	mov	r0, r6
 80056a8:	4639      	mov	r1, r7
 80056aa:	f7fa ffad 	bl	8000608 <__aeabi_dmul>
 80056ae:	4606      	mov	r6, r0
 80056b0:	460f      	mov	r7, r1
 80056b2:	e7c4      	b.n	800563e <_dtoa_r+0x53e>
 80056b4:	ec51 0b17 	vmov	r0, r1, d7
 80056b8:	f7fa ffa6 	bl	8000608 <__aeabi_dmul>
 80056bc:	9b02      	ldr	r3, [sp, #8]
 80056be:	9d00      	ldr	r5, [sp, #0]
 80056c0:	930c      	str	r3, [sp, #48]	; 0x30
 80056c2:	ec41 0b18 	vmov	d8, r0, r1
 80056c6:	4639      	mov	r1, r7
 80056c8:	4630      	mov	r0, r6
 80056ca:	f7fb fa4d 	bl	8000b68 <__aeabi_d2iz>
 80056ce:	9011      	str	r0, [sp, #68]	; 0x44
 80056d0:	f7fa ff30 	bl	8000534 <__aeabi_i2d>
 80056d4:	4602      	mov	r2, r0
 80056d6:	460b      	mov	r3, r1
 80056d8:	4630      	mov	r0, r6
 80056da:	4639      	mov	r1, r7
 80056dc:	f7fa fddc 	bl	8000298 <__aeabi_dsub>
 80056e0:	9b11      	ldr	r3, [sp, #68]	; 0x44
 80056e2:	3330      	adds	r3, #48	; 0x30
 80056e4:	f805 3b01 	strb.w	r3, [r5], #1
 80056e8:	9b02      	ldr	r3, [sp, #8]
 80056ea:	429d      	cmp	r5, r3
 80056ec:	4606      	mov	r6, r0
 80056ee:	460f      	mov	r7, r1
 80056f0:	f04f 0200 	mov.w	r2, #0
 80056f4:	d134      	bne.n	8005760 <_dtoa_r+0x660>
 80056f6:	4b19      	ldr	r3, [pc, #100]	; (800575c <_dtoa_r+0x65c>)
 80056f8:	ec51 0b18 	vmov	r0, r1, d8
 80056fc:	f7fa fdce 	bl	800029c <__adddf3>
 8005700:	4602      	mov	r2, r0
 8005702:	460b      	mov	r3, r1
 8005704:	4630      	mov	r0, r6
 8005706:	4639      	mov	r1, r7
 8005708:	f7fb fa0e 	bl	8000b28 <__aeabi_dcmpgt>
 800570c:	2800      	cmp	r0, #0
 800570e:	d175      	bne.n	80057fc <_dtoa_r+0x6fc>
 8005710:	ec53 2b18 	vmov	r2, r3, d8
 8005714:	4911      	ldr	r1, [pc, #68]	; (800575c <_dtoa_r+0x65c>)
 8005716:	2000      	movs	r0, #0
 8005718:	f7fa fdbe 	bl	8000298 <__aeabi_dsub>
 800571c:	4602      	mov	r2, r0
 800571e:	460b      	mov	r3, r1
 8005720:	4630      	mov	r0, r6
 8005722:	4639      	mov	r1, r7
 8005724:	f7fb f9e2 	bl	8000aec <__aeabi_dcmplt>
 8005728:	2800      	cmp	r0, #0
 800572a:	f43f af27 	beq.w	800557c <_dtoa_r+0x47c>
 800572e:	9d0c      	ldr	r5, [sp, #48]	; 0x30
 8005730:	1e6b      	subs	r3, r5, #1
 8005732:	930c      	str	r3, [sp, #48]	; 0x30
 8005734:	f815 3c01 	ldrb.w	r3, [r5, #-1]
 8005738:	2b30      	cmp	r3, #48	; 0x30
 800573a:	d0f8      	beq.n	800572e <_dtoa_r+0x62e>
 800573c:	f8dd a01c 	ldr.w	sl, [sp, #28]
 8005740:	e04a      	b.n	80057d8 <_dtoa_r+0x6d8>
 8005742:	bf00      	nop
 8005744:	080083b8 	.word	0x080083b8
 8005748:	08008390 	.word	0x08008390
 800574c:	3ff00000 	.word	0x3ff00000
 8005750:	40240000 	.word	0x40240000
 8005754:	401c0000 	.word	0x401c0000
 8005758:	40140000 	.word	0x40140000
 800575c:	3fe00000 	.word	0x3fe00000
 8005760:	4baf      	ldr	r3, [pc, #700]	; (8005a20 <_dtoa_r+0x920>)
 8005762:	f7fa ff51 	bl	8000608 <__aeabi_dmul>
 8005766:	4606      	mov	r6, r0
 8005768:	460f      	mov	r7, r1
 800576a:	e7ac      	b.n	80056c6 <_dtoa_r+0x5c6>
 800576c:	e9dd 6702 	ldrd	r6, r7, [sp, #8]
 8005770:	9d00      	ldr	r5, [sp, #0]
 8005772:	4642      	mov	r2, r8
 8005774:	464b      	mov	r3, r9
 8005776:	4630      	mov	r0, r6
 8005778:	4639      	mov	r1, r7
 800577a:	f7fb f86f 	bl	800085c <__aeabi_ddiv>
 800577e:	f7fb f9f3 	bl	8000b68 <__aeabi_d2iz>
 8005782:	9002      	str	r0, [sp, #8]
 8005784:	f7fa fed6 	bl	8000534 <__aeabi_i2d>
 8005788:	4642      	mov	r2, r8
 800578a:	464b      	mov	r3, r9
 800578c:	f7fa ff3c 	bl	8000608 <__aeabi_dmul>
 8005790:	4602      	mov	r2, r0
 8005792:	460b      	mov	r3, r1
 8005794:	4630      	mov	r0, r6
 8005796:	4639      	mov	r1, r7
 8005798:	f7fa fd7e 	bl	8000298 <__aeabi_dsub>
 800579c:	9e02      	ldr	r6, [sp, #8]
 800579e:	9f01      	ldr	r7, [sp, #4]
 80057a0:	3630      	adds	r6, #48	; 0x30
 80057a2:	f805 6b01 	strb.w	r6, [r5], #1
 80057a6:	9e00      	ldr	r6, [sp, #0]
 80057a8:	1bae      	subs	r6, r5, r6
 80057aa:	42b7      	cmp	r7, r6
 80057ac:	4602      	mov	r2, r0
 80057ae:	460b      	mov	r3, r1
 80057b0:	d137      	bne.n	8005822 <_dtoa_r+0x722>
 80057b2:	f7fa fd73 	bl	800029c <__adddf3>
 80057b6:	4642      	mov	r2, r8
 80057b8:	464b      	mov	r3, r9
 80057ba:	4606      	mov	r6, r0
 80057bc:	460f      	mov	r7, r1
 80057be:	f7fb f9b3 	bl	8000b28 <__aeabi_dcmpgt>
 80057c2:	b9c8      	cbnz	r0, 80057f8 <_dtoa_r+0x6f8>
 80057c4:	4642      	mov	r2, r8
 80057c6:	464b      	mov	r3, r9
 80057c8:	4630      	mov	r0, r6
 80057ca:	4639      	mov	r1, r7
 80057cc:	f7fb f984 	bl	8000ad8 <__aeabi_dcmpeq>
 80057d0:	b110      	cbz	r0, 80057d8 <_dtoa_r+0x6d8>
 80057d2:	9b02      	ldr	r3, [sp, #8]
 80057d4:	07d9      	lsls	r1, r3, #31
 80057d6:	d40f      	bmi.n	80057f8 <_dtoa_r+0x6f8>
 80057d8:	4620      	mov	r0, r4
 80057da:	4659      	mov	r1, fp
 80057dc:	f000 fe58 	bl	8006490 <_Bfree>
 80057e0:	2300      	movs	r3, #0
 80057e2:	702b      	strb	r3, [r5, #0]
 80057e4:	9b0f      	ldr	r3, [sp, #60]	; 0x3c
 80057e6:	f10a 0001 	add.w	r0, sl, #1
 80057ea:	6018      	str	r0, [r3, #0]
 80057ec:	9b21      	ldr	r3, [sp, #132]	; 0x84
 80057ee:	2b00      	cmp	r3, #0
 80057f0:	f43f acd8 	beq.w	80051a4 <_dtoa_r+0xa4>
 80057f4:	601d      	str	r5, [r3, #0]
 80057f6:	e4d5      	b.n	80051a4 <_dtoa_r+0xa4>
 80057f8:	f8cd a01c 	str.w	sl, [sp, #28]
 80057fc:	462b      	mov	r3, r5
 80057fe:	461d      	mov	r5, r3
 8005800:	f813 2d01 	ldrb.w	r2, [r3, #-1]!
 8005804:	2a39      	cmp	r2, #57	; 0x39
 8005806:	d108      	bne.n	800581a <_dtoa_r+0x71a>
 8005808:	9a00      	ldr	r2, [sp, #0]
 800580a:	429a      	cmp	r2, r3
 800580c:	d1f7      	bne.n	80057fe <_dtoa_r+0x6fe>
 800580e:	9a07      	ldr	r2, [sp, #28]
 8005810:	9900      	ldr	r1, [sp, #0]
 8005812:	3201      	adds	r2, #1
 8005814:	9207      	str	r2, [sp, #28]
 8005816:	2230      	movs	r2, #48	; 0x30
 8005818:	700a      	strb	r2, [r1, #0]
 800581a:	781a      	ldrb	r2, [r3, #0]
 800581c:	3201      	adds	r2, #1
 800581e:	701a      	strb	r2, [r3, #0]
 8005820:	e78c      	b.n	800573c <_dtoa_r+0x63c>
 8005822:	4b7f      	ldr	r3, [pc, #508]	; (8005a20 <_dtoa_r+0x920>)
 8005824:	2200      	movs	r2, #0
 8005826:	f7fa feef 	bl	8000608 <__aeabi_dmul>
 800582a:	2200      	movs	r2, #0
 800582c:	2300      	movs	r3, #0
 800582e:	4606      	mov	r6, r0
 8005830:	460f      	mov	r7, r1
 8005832:	f7fb f951 	bl	8000ad8 <__aeabi_dcmpeq>
 8005836:	2800      	cmp	r0, #0
 8005838:	d09b      	beq.n	8005772 <_dtoa_r+0x672>
 800583a:	e7cd      	b.n	80057d8 <_dtoa_r+0x6d8>
 800583c:	9a08      	ldr	r2, [sp, #32]
 800583e:	2a00      	cmp	r2, #0
 8005840:	f000 80c4 	beq.w	80059cc <_dtoa_r+0x8cc>
 8005844:	9a05      	ldr	r2, [sp, #20]
 8005846:	2a01      	cmp	r2, #1
 8005848:	f300 80a8 	bgt.w	800599c <_dtoa_r+0x89c>
 800584c:	9a10      	ldr	r2, [sp, #64]	; 0x40
 800584e:	2a00      	cmp	r2, #0
 8005850:	f000 80a0 	beq.w	8005994 <_dtoa_r+0x894>
 8005854:	f203 4333 	addw	r3, r3, #1075	; 0x433
 8005858:	9e06      	ldr	r6, [sp, #24]
 800585a:	4645      	mov	r5, r8
 800585c:	9a04      	ldr	r2, [sp, #16]
 800585e:	2101      	movs	r1, #1
 8005860:	441a      	add	r2, r3
 8005862:	4620      	mov	r0, r4
 8005864:	4498      	add	r8, r3
 8005866:	9204      	str	r2, [sp, #16]
 8005868:	f000 ff18 	bl	800669c <__i2b>
 800586c:	4607      	mov	r7, r0
 800586e:	2d00      	cmp	r5, #0
 8005870:	dd0b      	ble.n	800588a <_dtoa_r+0x78a>
 8005872:	9b04      	ldr	r3, [sp, #16]
 8005874:	2b00      	cmp	r3, #0
 8005876:	dd08      	ble.n	800588a <_dtoa_r+0x78a>
 8005878:	42ab      	cmp	r3, r5
 800587a:	9a04      	ldr	r2, [sp, #16]
 800587c:	bfa8      	it	ge
 800587e:	462b      	movge	r3, r5
 8005880:	eba8 0803 	sub.w	r8, r8, r3
 8005884:	1aed      	subs	r5, r5, r3
 8005886:	1ad3      	subs	r3, r2, r3
 8005888:	9304      	str	r3, [sp, #16]
 800588a:	9b06      	ldr	r3, [sp, #24]
 800588c:	b1fb      	cbz	r3, 80058ce <_dtoa_r+0x7ce>
 800588e:	9b08      	ldr	r3, [sp, #32]
 8005890:	2b00      	cmp	r3, #0
 8005892:	f000 809f 	beq.w	80059d4 <_dtoa_r+0x8d4>
 8005896:	2e00      	cmp	r6, #0
 8005898:	dd11      	ble.n	80058be <_dtoa_r+0x7be>
 800589a:	4639      	mov	r1, r7
 800589c:	4632      	mov	r2, r6
 800589e:	4620      	mov	r0, r4
 80058a0:	f000 ffb8 	bl	8006814 <__pow5mult>
 80058a4:	465a      	mov	r2, fp
 80058a6:	4601      	mov	r1, r0
 80058a8:	4607      	mov	r7, r0
 80058aa:	4620      	mov	r0, r4
 80058ac:	f000 ff0c 	bl	80066c8 <__multiply>
 80058b0:	4659      	mov	r1, fp
 80058b2:	9007      	str	r0, [sp, #28]
 80058b4:	4620      	mov	r0, r4
 80058b6:	f000 fdeb 	bl	8006490 <_Bfree>
 80058ba:	9b07      	ldr	r3, [sp, #28]
 80058bc:	469b      	mov	fp, r3
 80058be:	9b06      	ldr	r3, [sp, #24]
 80058c0:	1b9a      	subs	r2, r3, r6
 80058c2:	d004      	beq.n	80058ce <_dtoa_r+0x7ce>
 80058c4:	4659      	mov	r1, fp
 80058c6:	4620      	mov	r0, r4
 80058c8:	f000 ffa4 	bl	8006814 <__pow5mult>
 80058cc:	4683      	mov	fp, r0
 80058ce:	2101      	movs	r1, #1
 80058d0:	4620      	mov	r0, r4
 80058d2:	f000 fee3 	bl	800669c <__i2b>
 80058d6:	9b0d      	ldr	r3, [sp, #52]	; 0x34
 80058d8:	2b00      	cmp	r3, #0
 80058da:	4606      	mov	r6, r0
 80058dc:	dd7c      	ble.n	80059d8 <_dtoa_r+0x8d8>
 80058de:	461a      	mov	r2, r3
 80058e0:	4601      	mov	r1, r0
 80058e2:	4620      	mov	r0, r4
 80058e4:	f000 ff96 	bl	8006814 <__pow5mult>
 80058e8:	9b05      	ldr	r3, [sp, #20]
 80058ea:	2b01      	cmp	r3, #1
 80058ec:	4606      	mov	r6, r0
 80058ee:	dd76      	ble.n	80059de <_dtoa_r+0x8de>
 80058f0:	2300      	movs	r3, #0
 80058f2:	9306      	str	r3, [sp, #24]
 80058f4:	6933      	ldr	r3, [r6, #16]
 80058f6:	eb06 0383 	add.w	r3, r6, r3, lsl #2
 80058fa:	6918      	ldr	r0, [r3, #16]
 80058fc:	f000 fe7e 	bl	80065fc <__hi0bits>
 8005900:	f1c0 0020 	rsb	r0, r0, #32
 8005904:	9b04      	ldr	r3, [sp, #16]
 8005906:	4418      	add	r0, r3
 8005908:	f010 001f 	ands.w	r0, r0, #31
 800590c:	f000 8086 	beq.w	8005a1c <_dtoa_r+0x91c>
 8005910:	f1c0 0320 	rsb	r3, r0, #32
 8005914:	2b04      	cmp	r3, #4
 8005916:	dd7f      	ble.n	8005a18 <_dtoa_r+0x918>
 8005918:	f1c0 001c 	rsb	r0, r0, #28
 800591c:	9b04      	ldr	r3, [sp, #16]
 800591e:	4403      	add	r3, r0
 8005920:	4480      	add	r8, r0
 8005922:	4405      	add	r5, r0
 8005924:	9304      	str	r3, [sp, #16]
 8005926:	f1b8 0f00 	cmp.w	r8, #0
 800592a:	dd05      	ble.n	8005938 <_dtoa_r+0x838>
 800592c:	4659      	mov	r1, fp
 800592e:	4642      	mov	r2, r8
 8005930:	4620      	mov	r0, r4
 8005932:	f000 ffc9 	bl	80068c8 <__lshift>
 8005936:	4683      	mov	fp, r0
 8005938:	9b04      	ldr	r3, [sp, #16]
 800593a:	2b00      	cmp	r3, #0
 800593c:	dd05      	ble.n	800594a <_dtoa_r+0x84a>
 800593e:	4631      	mov	r1, r6
 8005940:	461a      	mov	r2, r3
 8005942:	4620      	mov	r0, r4
 8005944:	f000 ffc0 	bl	80068c8 <__lshift>
 8005948:	4606      	mov	r6, r0
 800594a:	9b0e      	ldr	r3, [sp, #56]	; 0x38
 800594c:	2b00      	cmp	r3, #0
 800594e:	d069      	beq.n	8005a24 <_dtoa_r+0x924>
 8005950:	4631      	mov	r1, r6
 8005952:	4658      	mov	r0, fp
 8005954:	f001 f824 	bl	80069a0 <__mcmp>
 8005958:	2800      	cmp	r0, #0
 800595a:	da63      	bge.n	8005a24 <_dtoa_r+0x924>
 800595c:	2300      	movs	r3, #0
 800595e:	4659      	mov	r1, fp
 8005960:	220a      	movs	r2, #10
 8005962:	4620      	mov	r0, r4
 8005964:	f000 fdb6 	bl	80064d4 <__multadd>
 8005968:	9b08      	ldr	r3, [sp, #32]
 800596a:	f10a 3aff 	add.w	sl, sl, #4294967295
 800596e:	4683      	mov	fp, r0
 8005970:	2b00      	cmp	r3, #0
 8005972:	f000 818f 	beq.w	8005c94 <_dtoa_r+0xb94>
 8005976:	4639      	mov	r1, r7
 8005978:	2300      	movs	r3, #0
 800597a:	220a      	movs	r2, #10
 800597c:	4620      	mov	r0, r4
 800597e:	f000 fda9 	bl	80064d4 <__multadd>
 8005982:	f1b9 0f00 	cmp.w	r9, #0
 8005986:	4607      	mov	r7, r0
 8005988:	f300 808e 	bgt.w	8005aa8 <_dtoa_r+0x9a8>
 800598c:	9b05      	ldr	r3, [sp, #20]
 800598e:	2b02      	cmp	r3, #2
 8005990:	dc50      	bgt.n	8005a34 <_dtoa_r+0x934>
 8005992:	e089      	b.n	8005aa8 <_dtoa_r+0x9a8>
 8005994:	9b12      	ldr	r3, [sp, #72]	; 0x48
 8005996:	f1c3 0336 	rsb	r3, r3, #54	; 0x36
 800599a:	e75d      	b.n	8005858 <_dtoa_r+0x758>
 800599c:	9b01      	ldr	r3, [sp, #4]
 800599e:	1e5e      	subs	r6, r3, #1
 80059a0:	9b06      	ldr	r3, [sp, #24]
 80059a2:	42b3      	cmp	r3, r6
 80059a4:	bfbf      	itttt	lt
 80059a6:	9b06      	ldrlt	r3, [sp, #24]
 80059a8:	9606      	strlt	r6, [sp, #24]
 80059aa:	1af2      	sublt	r2, r6, r3
 80059ac:	9b0d      	ldrlt	r3, [sp, #52]	; 0x34
 80059ae:	bfb6      	itet	lt
 80059b0:	189b      	addlt	r3, r3, r2
 80059b2:	1b9e      	subge	r6, r3, r6
 80059b4:	930d      	strlt	r3, [sp, #52]	; 0x34
 80059b6:	9b01      	ldr	r3, [sp, #4]
 80059b8:	bfb8      	it	lt
 80059ba:	2600      	movlt	r6, #0
 80059bc:	2b00      	cmp	r3, #0
 80059be:	bfb5      	itete	lt
 80059c0:	eba8 0503 	sublt.w	r5, r8, r3
 80059c4:	9b01      	ldrge	r3, [sp, #4]
 80059c6:	2300      	movlt	r3, #0
 80059c8:	4645      	movge	r5, r8
 80059ca:	e747      	b.n	800585c <_dtoa_r+0x75c>
 80059cc:	9e06      	ldr	r6, [sp, #24]
 80059ce:	9f08      	ldr	r7, [sp, #32]
 80059d0:	4645      	mov	r5, r8
 80059d2:	e74c      	b.n	800586e <_dtoa_r+0x76e>
 80059d4:	9a06      	ldr	r2, [sp, #24]
 80059d6:	e775      	b.n	80058c4 <_dtoa_r+0x7c4>
 80059d8:	9b05      	ldr	r3, [sp, #20]
 80059da:	2b01      	cmp	r3, #1
 80059dc:	dc18      	bgt.n	8005a10 <_dtoa_r+0x910>
 80059de:	9b02      	ldr	r3, [sp, #8]
 80059e0:	b9b3      	cbnz	r3, 8005a10 <_dtoa_r+0x910>
 80059e2:	9b03      	ldr	r3, [sp, #12]
 80059e4:	f3c3 0313 	ubfx	r3, r3, #0, #20
 80059e8:	b9a3      	cbnz	r3, 8005a14 <_dtoa_r+0x914>
 80059ea:	9b03      	ldr	r3, [sp, #12]
 80059ec:	f023 4300 	bic.w	r3, r3, #2147483648	; 0x80000000
 80059f0:	0d1b      	lsrs	r3, r3, #20
 80059f2:	051b      	lsls	r3, r3, #20
 80059f4:	b12b      	cbz	r3, 8005a02 <_dtoa_r+0x902>
 80059f6:	9b04      	ldr	r3, [sp, #16]
 80059f8:	3301      	adds	r3, #1
 80059fa:	9304      	str	r3, [sp, #16]
 80059fc:	f108 0801 	add.w	r8, r8, #1
 8005a00:	2301      	movs	r3, #1
 8005a02:	9306      	str	r3, [sp, #24]
 8005a04:	9b0d      	ldr	r3, [sp, #52]	; 0x34
 8005a06:	2b00      	cmp	r3, #0
 8005a08:	f47f af74 	bne.w	80058f4 <_dtoa_r+0x7f4>
 8005a0c:	2001      	movs	r0, #1
 8005a0e:	e779      	b.n	8005904 <_dtoa_r+0x804>
 8005a10:	2300      	movs	r3, #0
 8005a12:	e7f6      	b.n	8005a02 <_dtoa_r+0x902>
 8005a14:	9b02      	ldr	r3, [sp, #8]
 8005a16:	e7f4      	b.n	8005a02 <_dtoa_r+0x902>
 8005a18:	d085      	beq.n	8005926 <_dtoa_r+0x826>
 8005a1a:	4618      	mov	r0, r3
 8005a1c:	301c      	adds	r0, #28
 8005a1e:	e77d      	b.n	800591c <_dtoa_r+0x81c>
 8005a20:	40240000 	.word	0x40240000
 8005a24:	9b01      	ldr	r3, [sp, #4]
 8005a26:	2b00      	cmp	r3, #0
 8005a28:	dc38      	bgt.n	8005a9c <_dtoa_r+0x99c>
 8005a2a:	9b05      	ldr	r3, [sp, #20]
 8005a2c:	2b02      	cmp	r3, #2
 8005a2e:	dd35      	ble.n	8005a9c <_dtoa_r+0x99c>
 8005a30:	f8dd 9004 	ldr.w	r9, [sp, #4]
 8005a34:	f1b9 0f00 	cmp.w	r9, #0
 8005a38:	d10d      	bne.n	8005a56 <_dtoa_r+0x956>
 8005a3a:	4631      	mov	r1, r6
 8005a3c:	464b      	mov	r3, r9
 8005a3e:	2205      	movs	r2, #5
 8005a40:	4620      	mov	r0, r4
 8005a42:	f000 fd47 	bl	80064d4 <__multadd>
 8005a46:	4601      	mov	r1, r0
 8005a48:	4606      	mov	r6, r0
 8005a4a:	4658      	mov	r0, fp
 8005a4c:	f000 ffa8 	bl	80069a0 <__mcmp>
 8005a50:	2800      	cmp	r0, #0
 8005a52:	f73f adbd 	bgt.w	80055d0 <_dtoa_r+0x4d0>
 8005a56:	9b09      	ldr	r3, [sp, #36]	; 0x24
 8005a58:	9d00      	ldr	r5, [sp, #0]
 8005a5a:	ea6f 0a03 	mvn.w	sl, r3
 8005a5e:	f04f 0800 	mov.w	r8, #0
 8005a62:	4631      	mov	r1, r6
 8005a64:	4620      	mov	r0, r4
 8005a66:	f000 fd13 	bl	8006490 <_Bfree>
 8005a6a:	2f00      	cmp	r7, #0
 8005a6c:	f43f aeb4 	beq.w	80057d8 <_dtoa_r+0x6d8>
 8005a70:	f1b8 0f00 	cmp.w	r8, #0
 8005a74:	d005      	beq.n	8005a82 <_dtoa_r+0x982>
 8005a76:	45b8      	cmp	r8, r7
 8005a78:	d003      	beq.n	8005a82 <_dtoa_r+0x982>
 8005a7a:	4641      	mov	r1, r8
 8005a7c:	4620      	mov	r0, r4
 8005a7e:	f000 fd07 	bl	8006490 <_Bfree>
 8005a82:	4639      	mov	r1, r7
 8005a84:	4620      	mov	r0, r4
 8005a86:	f000 fd03 	bl	8006490 <_Bfree>
 8005a8a:	e6a5      	b.n	80057d8 <_dtoa_r+0x6d8>
 8005a8c:	2600      	movs	r6, #0
 8005a8e:	4637      	mov	r7, r6
 8005a90:	e7e1      	b.n	8005a56 <_dtoa_r+0x956>
 8005a92:	9e0c      	ldr	r6, [sp, #48]	; 0x30
 8005a94:	f8dd a01c 	ldr.w	sl, [sp, #28]
 8005a98:	4637      	mov	r7, r6
 8005a9a:	e599      	b.n	80055d0 <_dtoa_r+0x4d0>
 8005a9c:	9b08      	ldr	r3, [sp, #32]
 8005a9e:	f8dd 9004 	ldr.w	r9, [sp, #4]
 8005aa2:	2b00      	cmp	r3, #0
 8005aa4:	f000 80fd 	beq.w	8005ca2 <_dtoa_r+0xba2>
 8005aa8:	2d00      	cmp	r5, #0
 8005aaa:	dd05      	ble.n	8005ab8 <_dtoa_r+0x9b8>
 8005aac:	4639      	mov	r1, r7
 8005aae:	462a      	mov	r2, r5
 8005ab0:	4620      	mov	r0, r4
 8005ab2:	f000 ff09 	bl	80068c8 <__lshift>
 8005ab6:	4607      	mov	r7, r0
 8005ab8:	9b06      	ldr	r3, [sp, #24]
 8005aba:	2b00      	cmp	r3, #0
 8005abc:	d05c      	beq.n	8005b78 <_dtoa_r+0xa78>
 8005abe:	6879      	ldr	r1, [r7, #4]
 8005ac0:	4620      	mov	r0, r4
 8005ac2:	f000 fca5 	bl	8006410 <_Balloc>
 8005ac6:	4605      	mov	r5, r0
 8005ac8:	b928      	cbnz	r0, 8005ad6 <_dtoa_r+0x9d6>
 8005aca:	4b80      	ldr	r3, [pc, #512]	; (8005ccc <_dtoa_r+0xbcc>)
 8005acc:	4602      	mov	r2, r0
 8005ace:	f240 21ea 	movw	r1, #746	; 0x2ea
 8005ad2:	f7ff bb2e 	b.w	8005132 <_dtoa_r+0x32>
 8005ad6:	693a      	ldr	r2, [r7, #16]
 8005ad8:	3202      	adds	r2, #2
 8005ada:	0092      	lsls	r2, r2, #2
 8005adc:	f107 010c 	add.w	r1, r7, #12
 8005ae0:	300c      	adds	r0, #12
 8005ae2:	f000 fc87 	bl	80063f4 <memcpy>
 8005ae6:	2201      	movs	r2, #1
 8005ae8:	4629      	mov	r1, r5
 8005aea:	4620      	mov	r0, r4
 8005aec:	f000 feec 	bl	80068c8 <__lshift>
 8005af0:	9b00      	ldr	r3, [sp, #0]
 8005af2:	3301      	adds	r3, #1
 8005af4:	9301      	str	r3, [sp, #4]
 8005af6:	9b00      	ldr	r3, [sp, #0]
 8005af8:	444b      	add	r3, r9
 8005afa:	9307      	str	r3, [sp, #28]
 8005afc:	9b02      	ldr	r3, [sp, #8]
 8005afe:	f003 0301 	and.w	r3, r3, #1
 8005b02:	46b8      	mov	r8, r7
 8005b04:	9306      	str	r3, [sp, #24]
 8005b06:	4607      	mov	r7, r0
 8005b08:	9b01      	ldr	r3, [sp, #4]
 8005b0a:	4631      	mov	r1, r6
 8005b0c:	3b01      	subs	r3, #1
 8005b0e:	4658      	mov	r0, fp
 8005b10:	9302      	str	r3, [sp, #8]
 8005b12:	f7ff fa67 	bl	8004fe4 <quorem>
 8005b16:	4603      	mov	r3, r0
 8005b18:	3330      	adds	r3, #48	; 0x30
 8005b1a:	9004      	str	r0, [sp, #16]
 8005b1c:	4641      	mov	r1, r8
 8005b1e:	4658      	mov	r0, fp
 8005b20:	9308      	str	r3, [sp, #32]
 8005b22:	f000 ff3d 	bl	80069a0 <__mcmp>
 8005b26:	463a      	mov	r2, r7
 8005b28:	4681      	mov	r9, r0
 8005b2a:	4631      	mov	r1, r6
 8005b2c:	4620      	mov	r0, r4
 8005b2e:	f000 ff53 	bl	80069d8 <__mdiff>
 8005b32:	68c2      	ldr	r2, [r0, #12]
 8005b34:	9b08      	ldr	r3, [sp, #32]
 8005b36:	4605      	mov	r5, r0
 8005b38:	bb02      	cbnz	r2, 8005b7c <_dtoa_r+0xa7c>
 8005b3a:	4601      	mov	r1, r0
 8005b3c:	4658      	mov	r0, fp
 8005b3e:	f000 ff2f 	bl	80069a0 <__mcmp>
 8005b42:	9b08      	ldr	r3, [sp, #32]
 8005b44:	4602      	mov	r2, r0
 8005b46:	4629      	mov	r1, r5
 8005b48:	4620      	mov	r0, r4
 8005b4a:	e9cd 3208 	strd	r3, r2, [sp, #32]
 8005b4e:	f000 fc9f 	bl	8006490 <_Bfree>
 8005b52:	9b05      	ldr	r3, [sp, #20]
 8005b54:	9a09      	ldr	r2, [sp, #36]	; 0x24
 8005b56:	9d01      	ldr	r5, [sp, #4]
 8005b58:	ea43 0102 	orr.w	r1, r3, r2
 8005b5c:	9b06      	ldr	r3, [sp, #24]
 8005b5e:	430b      	orrs	r3, r1
 8005b60:	9b08      	ldr	r3, [sp, #32]
 8005b62:	d10d      	bne.n	8005b80 <_dtoa_r+0xa80>
 8005b64:	2b39      	cmp	r3, #57	; 0x39
 8005b66:	d029      	beq.n	8005bbc <_dtoa_r+0xabc>
 8005b68:	f1b9 0f00 	cmp.w	r9, #0
 8005b6c:	dd01      	ble.n	8005b72 <_dtoa_r+0xa72>
 8005b6e:	9b04      	ldr	r3, [sp, #16]
 8005b70:	3331      	adds	r3, #49	; 0x31
 8005b72:	9a02      	ldr	r2, [sp, #8]
 8005b74:	7013      	strb	r3, [r2, #0]
 8005b76:	e774      	b.n	8005a62 <_dtoa_r+0x962>
 8005b78:	4638      	mov	r0, r7
 8005b7a:	e7b9      	b.n	8005af0 <_dtoa_r+0x9f0>
 8005b7c:	2201      	movs	r2, #1
 8005b7e:	e7e2      	b.n	8005b46 <_dtoa_r+0xa46>
 8005b80:	f1b9 0f00 	cmp.w	r9, #0
 8005b84:	db06      	blt.n	8005b94 <_dtoa_r+0xa94>
 8005b86:	9905      	ldr	r1, [sp, #20]
 8005b88:	ea41 0909 	orr.w	r9, r1, r9
 8005b8c:	9906      	ldr	r1, [sp, #24]
 8005b8e:	ea59 0101 	orrs.w	r1, r9, r1
 8005b92:	d120      	bne.n	8005bd6 <_dtoa_r+0xad6>
 8005b94:	2a00      	cmp	r2, #0
 8005b96:	ddec      	ble.n	8005b72 <_dtoa_r+0xa72>
 8005b98:	4659      	mov	r1, fp
 8005b9a:	2201      	movs	r2, #1
 8005b9c:	4620      	mov	r0, r4
 8005b9e:	9301      	str	r3, [sp, #4]
 8005ba0:	f000 fe92 	bl	80068c8 <__lshift>
 8005ba4:	4631      	mov	r1, r6
 8005ba6:	4683      	mov	fp, r0
 8005ba8:	f000 fefa 	bl	80069a0 <__mcmp>
 8005bac:	2800      	cmp	r0, #0
 8005bae:	9b01      	ldr	r3, [sp, #4]
 8005bb0:	dc02      	bgt.n	8005bb8 <_dtoa_r+0xab8>
 8005bb2:	d1de      	bne.n	8005b72 <_dtoa_r+0xa72>
 8005bb4:	07da      	lsls	r2, r3, #31
 8005bb6:	d5dc      	bpl.n	8005b72 <_dtoa_r+0xa72>
 8005bb8:	2b39      	cmp	r3, #57	; 0x39
 8005bba:	d1d8      	bne.n	8005b6e <_dtoa_r+0xa6e>
 8005bbc:	9a02      	ldr	r2, [sp, #8]
 8005bbe:	2339      	movs	r3, #57	; 0x39
 8005bc0:	7013      	strb	r3, [r2, #0]
 8005bc2:	462b      	mov	r3, r5
 8005bc4:	461d      	mov	r5, r3
 8005bc6:	3b01      	subs	r3, #1
 8005bc8:	f815 2c01 	ldrb.w	r2, [r5, #-1]
 8005bcc:	2a39      	cmp	r2, #57	; 0x39
 8005bce:	d050      	beq.n	8005c72 <_dtoa_r+0xb72>
 8005bd0:	3201      	adds	r2, #1
 8005bd2:	701a      	strb	r2, [r3, #0]
 8005bd4:	e745      	b.n	8005a62 <_dtoa_r+0x962>
 8005bd6:	2a00      	cmp	r2, #0
 8005bd8:	dd03      	ble.n	8005be2 <_dtoa_r+0xae2>
 8005bda:	2b39      	cmp	r3, #57	; 0x39
 8005bdc:	d0ee      	beq.n	8005bbc <_dtoa_r+0xabc>
 8005bde:	3301      	adds	r3, #1
 8005be0:	e7c7      	b.n	8005b72 <_dtoa_r+0xa72>
 8005be2:	9a01      	ldr	r2, [sp, #4]
 8005be4:	9907      	ldr	r1, [sp, #28]
 8005be6:	f802 3c01 	strb.w	r3, [r2, #-1]
 8005bea:	428a      	cmp	r2, r1
 8005bec:	d02a      	beq.n	8005c44 <_dtoa_r+0xb44>
 8005bee:	4659      	mov	r1, fp
 8005bf0:	2300      	movs	r3, #0
 8005bf2:	220a      	movs	r2, #10
 8005bf4:	4620      	mov	r0, r4
 8005bf6:	f000 fc6d 	bl	80064d4 <__multadd>
 8005bfa:	45b8      	cmp	r8, r7
 8005bfc:	4683      	mov	fp, r0
 8005bfe:	f04f 0300 	mov.w	r3, #0
 8005c02:	f04f 020a 	mov.w	r2, #10
 8005c06:	4641      	mov	r1, r8
 8005c08:	4620      	mov	r0, r4
 8005c0a:	d107      	bne.n	8005c1c <_dtoa_r+0xb1c>
 8005c0c:	f000 fc62 	bl	80064d4 <__multadd>
 8005c10:	4680      	mov	r8, r0
 8005c12:	4607      	mov	r7, r0
 8005c14:	9b01      	ldr	r3, [sp, #4]
 8005c16:	3301      	adds	r3, #1
 8005c18:	9301      	str	r3, [sp, #4]
 8005c1a:	e775      	b.n	8005b08 <_dtoa_r+0xa08>
 8005c1c:	f000 fc5a 	bl	80064d4 <__multadd>
 8005c20:	4639      	mov	r1, r7
 8005c22:	4680      	mov	r8, r0
 8005c24:	2300      	movs	r3, #0
 8005c26:	220a      	movs	r2, #10
 8005c28:	4620      	mov	r0, r4
 8005c2a:	f000 fc53 	bl	80064d4 <__multadd>
 8005c2e:	4607      	mov	r7, r0
 8005c30:	e7f0      	b.n	8005c14 <_dtoa_r+0xb14>
 8005c32:	f1b9 0f00 	cmp.w	r9, #0
 8005c36:	9a00      	ldr	r2, [sp, #0]
 8005c38:	bfcc      	ite	gt
 8005c3a:	464d      	movgt	r5, r9
 8005c3c:	2501      	movle	r5, #1
 8005c3e:	4415      	add	r5, r2
 8005c40:	f04f 0800 	mov.w	r8, #0
 8005c44:	4659      	mov	r1, fp
 8005c46:	2201      	movs	r2, #1
 8005c48:	4620      	mov	r0, r4
 8005c4a:	9301      	str	r3, [sp, #4]
 8005c4c:	f000 fe3c 	bl	80068c8 <__lshift>
 8005c50:	4631      	mov	r1, r6
 8005c52:	4683      	mov	fp, r0
 8005c54:	f000 fea4 	bl	80069a0 <__mcmp>
 8005c58:	2800      	cmp	r0, #0
 8005c5a:	dcb2      	bgt.n	8005bc2 <_dtoa_r+0xac2>
 8005c5c:	d102      	bne.n	8005c64 <_dtoa_r+0xb64>
 8005c5e:	9b01      	ldr	r3, [sp, #4]
 8005c60:	07db      	lsls	r3, r3, #31
 8005c62:	d4ae      	bmi.n	8005bc2 <_dtoa_r+0xac2>
 8005c64:	462b      	mov	r3, r5
 8005c66:	461d      	mov	r5, r3
 8005c68:	f813 2d01 	ldrb.w	r2, [r3, #-1]!
 8005c6c:	2a30      	cmp	r2, #48	; 0x30
 8005c6e:	d0fa      	beq.n	8005c66 <_dtoa_r+0xb66>
 8005c70:	e6f7      	b.n	8005a62 <_dtoa_r+0x962>
 8005c72:	9a00      	ldr	r2, [sp, #0]
 8005c74:	429a      	cmp	r2, r3
 8005c76:	d1a5      	bne.n	8005bc4 <_dtoa_r+0xac4>
 8005c78:	f10a 0a01 	add.w	sl, sl, #1
 8005c7c:	2331      	movs	r3, #49	; 0x31
 8005c7e:	e779      	b.n	8005b74 <_dtoa_r+0xa74>
 8005c80:	4b13      	ldr	r3, [pc, #76]	; (8005cd0 <_dtoa_r+0xbd0>)
 8005c82:	f7ff baaf 	b.w	80051e4 <_dtoa_r+0xe4>
 8005c86:	9b21      	ldr	r3, [sp, #132]	; 0x84
 8005c88:	2b00      	cmp	r3, #0
 8005c8a:	f47f aa86 	bne.w	800519a <_dtoa_r+0x9a>
 8005c8e:	4b11      	ldr	r3, [pc, #68]	; (8005cd4 <_dtoa_r+0xbd4>)
 8005c90:	f7ff baa8 	b.w	80051e4 <_dtoa_r+0xe4>
 8005c94:	f1b9 0f00 	cmp.w	r9, #0
 8005c98:	dc03      	bgt.n	8005ca2 <_dtoa_r+0xba2>
 8005c9a:	9b05      	ldr	r3, [sp, #20]
 8005c9c:	2b02      	cmp	r3, #2
 8005c9e:	f73f aec9 	bgt.w	8005a34 <_dtoa_r+0x934>
 8005ca2:	9d00      	ldr	r5, [sp, #0]
 8005ca4:	4631      	mov	r1, r6
 8005ca6:	4658      	mov	r0, fp
 8005ca8:	f7ff f99c 	bl	8004fe4 <quorem>
 8005cac:	f100 0330 	add.w	r3, r0, #48	; 0x30
 8005cb0:	f805 3b01 	strb.w	r3, [r5], #1
 8005cb4:	9a00      	ldr	r2, [sp, #0]
 8005cb6:	1aaa      	subs	r2, r5, r2
 8005cb8:	4591      	cmp	r9, r2
 8005cba:	ddba      	ble.n	8005c32 <_dtoa_r+0xb32>
 8005cbc:	4659      	mov	r1, fp
 8005cbe:	2300      	movs	r3, #0
 8005cc0:	220a      	movs	r2, #10
 8005cc2:	4620      	mov	r0, r4
 8005cc4:	f000 fc06 	bl	80064d4 <__multadd>
 8005cc8:	4683      	mov	fp, r0
 8005cca:	e7eb      	b.n	8005ca4 <_dtoa_r+0xba4>
 8005ccc:	0800829c 	.word	0x0800829c
 8005cd0:	08008098 	.word	0x08008098
 8005cd4:	08008219 	.word	0x08008219

08005cd8 <rshift>:
 8005cd8:	6903      	ldr	r3, [r0, #16]
 8005cda:	ebb3 1f61 	cmp.w	r3, r1, asr #5
 8005cde:	e92d 43f0 	stmdb	sp!, {r4, r5, r6, r7, r8, r9, lr}
 8005ce2:	ea4f 1261 	mov.w	r2, r1, asr #5
 8005ce6:	f100 0414 	add.w	r4, r0, #20
 8005cea:	dd45      	ble.n	8005d78 <rshift+0xa0>
 8005cec:	f011 011f 	ands.w	r1, r1, #31
 8005cf0:	eb04 0683 	add.w	r6, r4, r3, lsl #2
 8005cf4:	eb04 0582 	add.w	r5, r4, r2, lsl #2
 8005cf8:	d10c      	bne.n	8005d14 <rshift+0x3c>
 8005cfa:	f100 0710 	add.w	r7, r0, #16
 8005cfe:	4629      	mov	r1, r5
 8005d00:	42b1      	cmp	r1, r6
 8005d02:	d334      	bcc.n	8005d6e <rshift+0x96>
 8005d04:	1a9b      	subs	r3, r3, r2
 8005d06:	009b      	lsls	r3, r3, #2
 8005d08:	1eea      	subs	r2, r5, #3
 8005d0a:	4296      	cmp	r6, r2
 8005d0c:	bf38      	it	cc
 8005d0e:	2300      	movcc	r3, #0
 8005d10:	4423      	add	r3, r4
 8005d12:	e015      	b.n	8005d40 <rshift+0x68>
 8005d14:	f854 7022 	ldr.w	r7, [r4, r2, lsl #2]
 8005d18:	f1c1 0820 	rsb	r8, r1, #32
 8005d1c:	40cf      	lsrs	r7, r1
 8005d1e:	f105 0e04 	add.w	lr, r5, #4
 8005d22:	46a1      	mov	r9, r4
 8005d24:	4576      	cmp	r6, lr
 8005d26:	46f4      	mov	ip, lr
 8005d28:	d815      	bhi.n	8005d56 <rshift+0x7e>
 8005d2a:	1a9b      	subs	r3, r3, r2
 8005d2c:	009a      	lsls	r2, r3, #2
 8005d2e:	3a04      	subs	r2, #4
 8005d30:	3501      	adds	r5, #1
 8005d32:	42ae      	cmp	r6, r5
 8005d34:	bf38      	it	cc
 8005d36:	2200      	movcc	r2, #0
 8005d38:	18a3      	adds	r3, r4, r2
 8005d3a:	50a7      	str	r7, [r4, r2]
 8005d3c:	b107      	cbz	r7, 8005d40 <rshift+0x68>
 8005d3e:	3304      	adds	r3, #4
 8005d40:	1b1a      	subs	r2, r3, r4
 8005d42:	42a3      	cmp	r3, r4
 8005d44:	ea4f 02a2 	mov.w	r2, r2, asr #2
 8005d48:	bf08      	it	eq
 8005d4a:	2300      	moveq	r3, #0
 8005d4c:	6102      	str	r2, [r0, #16]
 8005d4e:	bf08      	it	eq
 8005d50:	6143      	streq	r3, [r0, #20]
 8005d52:	e8bd 83f0 	ldmia.w	sp!, {r4, r5, r6, r7, r8, r9, pc}
 8005d56:	f8dc c000 	ldr.w	ip, [ip]
 8005d5a:	fa0c fc08 	lsl.w	ip, ip, r8
 8005d5e:	ea4c 0707 	orr.w	r7, ip, r7
 8005d62:	f849 7b04 	str.w	r7, [r9], #4
 8005d66:	f85e 7b04 	ldr.w	r7, [lr], #4
 8005d6a:	40cf      	lsrs	r7, r1
 8005d6c:	e7da      	b.n	8005d24 <rshift+0x4c>
 8005d6e:	f851 cb04 	ldr.w	ip, [r1], #4
 8005d72:	f847 cf04 	str.w	ip, [r7, #4]!
 8005d76:	e7c3      	b.n	8005d00 <rshift+0x28>
 8005d78:	4623      	mov	r3, r4
 8005d7a:	e7e1      	b.n	8005d40 <rshift+0x68>

08005d7c <__hexdig_fun>:
 8005d7c:	f1a0 0330 	sub.w	r3, r0, #48	; 0x30
 8005d80:	2b09      	cmp	r3, #9
 8005d82:	d802      	bhi.n	8005d8a <__hexdig_fun+0xe>
 8005d84:	3820      	subs	r0, #32
 8005d86:	b2c0      	uxtb	r0, r0
 8005d88:	4770      	bx	lr
 8005d8a:	f1a0 0361 	sub.w	r3, r0, #97	; 0x61
 8005d8e:	2b05      	cmp	r3, #5
 8005d90:	d801      	bhi.n	8005d96 <__hexdig_fun+0x1a>
 8005d92:	3847      	subs	r0, #71	; 0x47
 8005d94:	e7f7      	b.n	8005d86 <__hexdig_fun+0xa>
 8005d96:	f1a0 0341 	sub.w	r3, r0, #65	; 0x41
 8005d9a:	2b05      	cmp	r3, #5
 8005d9c:	d801      	bhi.n	8005da2 <__hexdig_fun+0x26>
 8005d9e:	3827      	subs	r0, #39	; 0x27
 8005da0:	e7f1      	b.n	8005d86 <__hexdig_fun+0xa>
 8005da2:	2000      	movs	r0, #0
 8005da4:	4770      	bx	lr
	...

08005da8 <__gethex>:
 8005da8:	e92d 4ff0 	stmdb	sp!, {r4, r5, r6, r7, r8, r9, sl, fp, lr}
 8005dac:	ed2d 8b02 	vpush	{d8}
 8005db0:	b089      	sub	sp, #36	; 0x24
 8005db2:	ee08 0a10 	vmov	s16, r0
 8005db6:	9304      	str	r3, [sp, #16]
 8005db8:	4bbc      	ldr	r3, [pc, #752]	; (80060ac <__gethex+0x304>)
 8005dba:	681b      	ldr	r3, [r3, #0]
 8005dbc:	9301      	str	r3, [sp, #4]
 8005dbe:	4618      	mov	r0, r3
 8005dc0:	468b      	mov	fp, r1
 8005dc2:	4690      	mov	r8, r2
 8005dc4:	f7fa fa0c 	bl	80001e0 <strlen>
 8005dc8:	9b01      	ldr	r3, [sp, #4]
 8005dca:	f8db 2000 	ldr.w	r2, [fp]
 8005dce:	4403      	add	r3, r0
 8005dd0:	4682      	mov	sl, r0
 8005dd2:	f813 3c01 	ldrb.w	r3, [r3, #-1]
 8005dd6:	9305      	str	r3, [sp, #20]
 8005dd8:	1c93      	adds	r3, r2, #2
 8005dda:	f1c2 22ff 	rsb	r2, r2, #4278255360	; 0xff00ff00
 8005dde:	f502 027f 	add.w	r2, r2, #16711680	; 0xff0000
 8005de2:	32fe      	adds	r2, #254	; 0xfe
 8005de4:	18d1      	adds	r1, r2, r3
 8005de6:	461f      	mov	r7, r3
 8005de8:	f813 0b01 	ldrb.w	r0, [r3], #1
 8005dec:	9100      	str	r1, [sp, #0]
 8005dee:	2830      	cmp	r0, #48	; 0x30
 8005df0:	d0f8      	beq.n	8005de4 <__gethex+0x3c>
 8005df2:	f7ff ffc3 	bl	8005d7c <__hexdig_fun>
 8005df6:	4604      	mov	r4, r0
 8005df8:	2800      	cmp	r0, #0
 8005dfa:	d13a      	bne.n	8005e72 <__gethex+0xca>
 8005dfc:	9901      	ldr	r1, [sp, #4]
 8005dfe:	4652      	mov	r2, sl
 8005e00:	4638      	mov	r0, r7
 8005e02:	f001 f9ed 	bl	80071e0 <strncmp>
 8005e06:	4605      	mov	r5, r0
 8005e08:	2800      	cmp	r0, #0
 8005e0a:	d168      	bne.n	8005ede <__gethex+0x136>
 8005e0c:	f817 000a 	ldrb.w	r0, [r7, sl]
 8005e10:	eb07 060a 	add.w	r6, r7, sl
 8005e14:	f7ff ffb2 	bl	8005d7c <__hexdig_fun>
 8005e18:	2800      	cmp	r0, #0
 8005e1a:	d062      	beq.n	8005ee2 <__gethex+0x13a>
 8005e1c:	4633      	mov	r3, r6
 8005e1e:	7818      	ldrb	r0, [r3, #0]
 8005e20:	2830      	cmp	r0, #48	; 0x30
 8005e22:	461f      	mov	r7, r3
 8005e24:	f103 0301 	add.w	r3, r3, #1
 8005e28:	d0f9      	beq.n	8005e1e <__gethex+0x76>
 8005e2a:	f7ff ffa7 	bl	8005d7c <__hexdig_fun>
 8005e2e:	2301      	movs	r3, #1
 8005e30:	fab0 f480 	clz	r4, r0
 8005e34:	0964      	lsrs	r4, r4, #5
 8005e36:	4635      	mov	r5, r6
 8005e38:	9300      	str	r3, [sp, #0]
 8005e3a:	463a      	mov	r2, r7
 8005e3c:	4616      	mov	r6, r2
 8005e3e:	3201      	adds	r2, #1
 8005e40:	7830      	ldrb	r0, [r6, #0]
 8005e42:	f7ff ff9b 	bl	8005d7c <__hexdig_fun>
 8005e46:	2800      	cmp	r0, #0
 8005e48:	d1f8      	bne.n	8005e3c <__gethex+0x94>
 8005e4a:	9901      	ldr	r1, [sp, #4]
 8005e4c:	4652      	mov	r2, sl
 8005e4e:	4630      	mov	r0, r6
 8005e50:	f001 f9c6 	bl	80071e0 <strncmp>
 8005e54:	b980      	cbnz	r0, 8005e78 <__gethex+0xd0>
 8005e56:	b94d      	cbnz	r5, 8005e6c <__gethex+0xc4>
 8005e58:	eb06 050a 	add.w	r5, r6, sl
 8005e5c:	462a      	mov	r2, r5
 8005e5e:	4616      	mov	r6, r2
 8005e60:	3201      	adds	r2, #1
 8005e62:	7830      	ldrb	r0, [r6, #0]
 8005e64:	f7ff ff8a 	bl	8005d7c <__hexdig_fun>
 8005e68:	2800      	cmp	r0, #0
 8005e6a:	d1f8      	bne.n	8005e5e <__gethex+0xb6>
 8005e6c:	1bad      	subs	r5, r5, r6
 8005e6e:	00ad      	lsls	r5, r5, #2
 8005e70:	e004      	b.n	8005e7c <__gethex+0xd4>
 8005e72:	2400      	movs	r4, #0
 8005e74:	4625      	mov	r5, r4
 8005e76:	e7e0      	b.n	8005e3a <__gethex+0x92>
 8005e78:	2d00      	cmp	r5, #0
 8005e7a:	d1f7      	bne.n	8005e6c <__gethex+0xc4>
 8005e7c:	7833      	ldrb	r3, [r6, #0]
 8005e7e:	f003 03df 	and.w	r3, r3, #223	; 0xdf
 8005e82:	2b50      	cmp	r3, #80	; 0x50
 8005e84:	d13b      	bne.n	8005efe <__gethex+0x156>
 8005e86:	7873      	ldrb	r3, [r6, #1]
 8005e88:	2b2b      	cmp	r3, #43	; 0x2b
 8005e8a:	d02c      	beq.n	8005ee6 <__gethex+0x13e>
 8005e8c:	2b2d      	cmp	r3, #45	; 0x2d
 8005e8e:	d02e      	beq.n	8005eee <__gethex+0x146>
 8005e90:	1c71      	adds	r1, r6, #1
 8005e92:	f04f 0900 	mov.w	r9, #0
 8005e96:	7808      	ldrb	r0, [r1, #0]
 8005e98:	f7ff ff70 	bl	8005d7c <__hexdig_fun>
 8005e9c:	1e43      	subs	r3, r0, #1
 8005e9e:	b2db      	uxtb	r3, r3
 8005ea0:	2b18      	cmp	r3, #24
 8005ea2:	d82c      	bhi.n	8005efe <__gethex+0x156>
 8005ea4:	f1a0 0210 	sub.w	r2, r0, #16
 8005ea8:	f811 0f01 	ldrb.w	r0, [r1, #1]!
 8005eac:	f7ff ff66 	bl	8005d7c <__hexdig_fun>
 8005eb0:	1e43      	subs	r3, r0, #1
 8005eb2:	b2db      	uxtb	r3, r3
 8005eb4:	2b18      	cmp	r3, #24
 8005eb6:	d91d      	bls.n	8005ef4 <__gethex+0x14c>
 8005eb8:	f1b9 0f00 	cmp.w	r9, #0
 8005ebc:	d000      	beq.n	8005ec0 <__gethex+0x118>
 8005ebe:	4252      	negs	r2, r2
 8005ec0:	4415      	add	r5, r2
 8005ec2:	f8cb 1000 	str.w	r1, [fp]
 8005ec6:	b1e4      	cbz	r4, 8005f02 <__gethex+0x15a>
 8005ec8:	9b00      	ldr	r3, [sp, #0]
 8005eca:	2b00      	cmp	r3, #0
 8005ecc:	bf14      	ite	ne
 8005ece:	2700      	movne	r7, #0
 8005ed0:	2706      	moveq	r7, #6
 8005ed2:	4638      	mov	r0, r7
 8005ed4:	b009      	add	sp, #36	; 0x24
 8005ed6:	ecbd 8b02 	vpop	{d8}
 8005eda:	e8bd 8ff0 	ldmia.w	sp!, {r4, r5, r6, r7, r8, r9, sl, fp, pc}
 8005ede:	463e      	mov	r6, r7
 8005ee0:	4625      	mov	r5, r4
 8005ee2:	2401      	movs	r4, #1
 8005ee4:	e7ca      	b.n	8005e7c <__gethex+0xd4>
 8005ee6:	f04f 0900 	mov.w	r9, #0
 8005eea:	1cb1      	adds	r1, r6, #2
 8005eec:	e7d3      	b.n	8005e96 <__gethex+0xee>
 8005eee:	f04f 0901 	mov.w	r9, #1
 8005ef2:	e7fa      	b.n	8005eea <__gethex+0x142>
 8005ef4:	230a      	movs	r3, #10
 8005ef6:	fb03 0202 	mla	r2, r3, r2, r0
 8005efa:	3a10      	subs	r2, #16
 8005efc:	e7d4      	b.n	8005ea8 <__gethex+0x100>
 8005efe:	4631      	mov	r1, r6
 8005f00:	e7df      	b.n	8005ec2 <__gethex+0x11a>
 8005f02:	1bf3      	subs	r3, r6, r7
 8005f04:	3b01      	subs	r3, #1
 8005f06:	4621      	mov	r1, r4
 8005f08:	2b07      	cmp	r3, #7
 8005f0a:	dc0b      	bgt.n	8005f24 <__gethex+0x17c>
 8005f0c:	ee18 0a10 	vmov	r0, s16
 8005f10:	f000 fa7e 	bl	8006410 <_Balloc>
 8005f14:	4604      	mov	r4, r0
 8005f16:	b940      	cbnz	r0, 8005f2a <__gethex+0x182>
 8005f18:	4b65      	ldr	r3, [pc, #404]	; (80060b0 <__gethex+0x308>)
 8005f1a:	4602      	mov	r2, r0
 8005f1c:	21de      	movs	r1, #222	; 0xde
 8005f1e:	4865      	ldr	r0, [pc, #404]	; (80060b4 <__gethex+0x30c>)
 8005f20:	f001 f97e 	bl	8007220 <__assert_func>
 8005f24:	3101      	adds	r1, #1
 8005f26:	105b      	asrs	r3, r3, #1
 8005f28:	e7ee      	b.n	8005f08 <__gethex+0x160>
 8005f2a:	f100 0914 	add.w	r9, r0, #20
 8005f2e:	f04f 0b00 	mov.w	fp, #0
 8005f32:	f1ca 0301 	rsb	r3, sl, #1
 8005f36:	f8cd 9008 	str.w	r9, [sp, #8]
 8005f3a:	f8cd b000 	str.w	fp, [sp]
 8005f3e:	9306      	str	r3, [sp, #24]
 8005f40:	42b7      	cmp	r7, r6
 8005f42:	d340      	bcc.n	8005fc6 <__gethex+0x21e>
 8005f44:	9802      	ldr	r0, [sp, #8]
 8005f46:	9b00      	ldr	r3, [sp, #0]
 8005f48:	f840 3b04 	str.w	r3, [r0], #4
 8005f4c:	eba0 0009 	sub.w	r0, r0, r9
 8005f50:	1080      	asrs	r0, r0, #2
 8005f52:	0146      	lsls	r6, r0, #5
 8005f54:	6120      	str	r0, [r4, #16]
 8005f56:	4618      	mov	r0, r3
 8005f58:	f000 fb50 	bl	80065fc <__hi0bits>
 8005f5c:	1a30      	subs	r0, r6, r0
 8005f5e:	f8d8 6000 	ldr.w	r6, [r8]
 8005f62:	42b0      	cmp	r0, r6
 8005f64:	dd63      	ble.n	800602e <__gethex+0x286>
 8005f66:	1b87      	subs	r7, r0, r6
 8005f68:	4639      	mov	r1, r7
 8005f6a:	4620      	mov	r0, r4
 8005f6c:	f000 feea 	bl	8006d44 <__any_on>
 8005f70:	4682      	mov	sl, r0
 8005f72:	b1a8      	cbz	r0, 8005fa0 <__gethex+0x1f8>
 8005f74:	1e7b      	subs	r3, r7, #1
 8005f76:	1159      	asrs	r1, r3, #5
 8005f78:	f003 021f 	and.w	r2, r3, #31
 8005f7c:	f859 1021 	ldr.w	r1, [r9, r1, lsl #2]
 8005f80:	f04f 0a01 	mov.w	sl, #1
 8005f84:	fa0a f202 	lsl.w	r2, sl, r2
 8005f88:	420a      	tst	r2, r1
 8005f8a:	d009      	beq.n	8005fa0 <__gethex+0x1f8>
 8005f8c:	4553      	cmp	r3, sl
 8005f8e:	dd05      	ble.n	8005f9c <__gethex+0x1f4>
 8005f90:	1eb9      	subs	r1, r7, #2
 8005f92:	4620      	mov	r0, r4
 8005f94:	f000 fed6 	bl	8006d44 <__any_on>
 8005f98:	2800      	cmp	r0, #0
 8005f9a:	d145      	bne.n	8006028 <__gethex+0x280>
 8005f9c:	f04f 0a02 	mov.w	sl, #2
 8005fa0:	4639      	mov	r1, r7
 8005fa2:	4620      	mov	r0, r4
 8005fa4:	f7ff fe98 	bl	8005cd8 <rshift>
 8005fa8:	443d      	add	r5, r7
 8005faa:	f8d8 3008 	ldr.w	r3, [r8, #8]
 8005fae:	42ab      	cmp	r3, r5
 8005fb0:	da4c      	bge.n	800604c <__gethex+0x2a4>
 8005fb2:	ee18 0a10 	vmov	r0, s16
 8005fb6:	4621      	mov	r1, r4
 8005fb8:	f000 fa6a 	bl	8006490 <_Bfree>
 8005fbc:	9a14      	ldr	r2, [sp, #80]	; 0x50
 8005fbe:	2300      	movs	r3, #0
 8005fc0:	6013      	str	r3, [r2, #0]
 8005fc2:	27a3      	movs	r7, #163	; 0xa3
 8005fc4:	e785      	b.n	8005ed2 <__gethex+0x12a>
 8005fc6:	1e73      	subs	r3, r6, #1
 8005fc8:	9a05      	ldr	r2, [sp, #20]
 8005fca:	9303      	str	r3, [sp, #12]
 8005fcc:	f816 3c01 	ldrb.w	r3, [r6, #-1]
 8005fd0:	4293      	cmp	r3, r2
 8005fd2:	d019      	beq.n	8006008 <__gethex+0x260>
 8005fd4:	f1bb 0f20 	cmp.w	fp, #32
 8005fd8:	d107      	bne.n	8005fea <__gethex+0x242>
 8005fda:	9b02      	ldr	r3, [sp, #8]
 8005fdc:	9a00      	ldr	r2, [sp, #0]
 8005fde:	f843 2b04 	str.w	r2, [r3], #4
 8005fe2:	9302      	str	r3, [sp, #8]
 8005fe4:	2300      	movs	r3, #0
 8005fe6:	9300      	str	r3, [sp, #0]
 8005fe8:	469b      	mov	fp, r3
 8005fea:	f816 0c01 	ldrb.w	r0, [r6, #-1]
 8005fee:	f7ff fec5 	bl	8005d7c <__hexdig_fun>
 8005ff2:	9b00      	ldr	r3, [sp, #0]
 8005ff4:	f000 000f 	and.w	r0, r0, #15
 8005ff8:	fa00 f00b 	lsl.w	r0, r0, fp
 8005ffc:	4303      	orrs	r3, r0
 8005ffe:	9300      	str	r3, [sp, #0]
 8006000:	f10b 0b04 	add.w	fp, fp, #4
 8006004:	9b03      	ldr	r3, [sp, #12]
 8006006:	e00d      	b.n	8006024 <__gethex+0x27c>
 8006008:	9b03      	ldr	r3, [sp, #12]
 800600a:	9a06      	ldr	r2, [sp, #24]
 800600c:	4413      	add	r3, r2
 800600e:	42bb      	cmp	r3, r7
 8006010:	d3e0      	bcc.n	8005fd4 <__gethex+0x22c>
 8006012:	4618      	mov	r0, r3
 8006014:	9901      	ldr	r1, [sp, #4]
 8006016:	9307      	str	r3, [sp, #28]
 8006018:	4652      	mov	r2, sl
 800601a:	f001 f8e1 	bl	80071e0 <strncmp>
 800601e:	9b07      	ldr	r3, [sp, #28]
 8006020:	2800      	cmp	r0, #0
 8006022:	d1d7      	bne.n	8005fd4 <__gethex+0x22c>
 8006024:	461e      	mov	r6, r3
 8006026:	e78b      	b.n	8005f40 <__gethex+0x198>
 8006028:	f04f 0a03 	mov.w	sl, #3
 800602c:	e7b8      	b.n	8005fa0 <__gethex+0x1f8>
 800602e:	da0a      	bge.n	8006046 <__gethex+0x29e>
 8006030:	1a37      	subs	r7, r6, r0
 8006032:	4621      	mov	r1, r4
 8006034:	ee18 0a10 	vmov	r0, s16
 8006038:	463a      	mov	r2, r7
 800603a:	f000 fc45 	bl	80068c8 <__lshift>
 800603e:	1bed      	subs	r5, r5, r7
 8006040:	4604      	mov	r4, r0
 8006042:	f100 0914 	add.w	r9, r0, #20
 8006046:	f04f 0a00 	mov.w	sl, #0
 800604a:	e7ae      	b.n	8005faa <__gethex+0x202>
 800604c:	f8d8 0004 	ldr.w	r0, [r8, #4]
 8006050:	42a8      	cmp	r0, r5
 8006052:	dd72      	ble.n	800613a <__gethex+0x392>
 8006054:	1b45      	subs	r5, r0, r5
 8006056:	42ae      	cmp	r6, r5
 8006058:	dc36      	bgt.n	80060c8 <__gethex+0x320>
 800605a:	f8d8 300c 	ldr.w	r3, [r8, #12]
 800605e:	2b02      	cmp	r3, #2
 8006060:	d02a      	beq.n	80060b8 <__gethex+0x310>
 8006062:	2b03      	cmp	r3, #3
 8006064:	d02c      	beq.n	80060c0 <__gethex+0x318>
 8006066:	2b01      	cmp	r3, #1
 8006068:	d115      	bne.n	8006096 <__gethex+0x2ee>
 800606a:	42ae      	cmp	r6, r5
 800606c:	d113      	bne.n	8006096 <__gethex+0x2ee>
 800606e:	2e01      	cmp	r6, #1
 8006070:	d10b      	bne.n	800608a <__gethex+0x2e2>
 8006072:	9a04      	ldr	r2, [sp, #16]
 8006074:	f8d8 3004 	ldr.w	r3, [r8, #4]
 8006078:	6013      	str	r3, [r2, #0]
 800607a:	2301      	movs	r3, #1
 800607c:	6123      	str	r3, [r4, #16]
 800607e:	f8c9 3000 	str.w	r3, [r9]
 8006082:	9b14      	ldr	r3, [sp, #80]	; 0x50
 8006084:	2762      	movs	r7, #98	; 0x62
 8006086:	601c      	str	r4, [r3, #0]
 8006088:	e723      	b.n	8005ed2 <__gethex+0x12a>
 800608a:	1e71      	subs	r1, r6, #1
 800608c:	4620      	mov	r0, r4
 800608e:	f000 fe59 	bl	8006d44 <__any_on>
 8006092:	2800      	cmp	r0, #0
 8006094:	d1ed      	bne.n	8006072 <__gethex+0x2ca>
 8006096:	ee18 0a10 	vmov	r0, s16
 800609a:	4621      	mov	r1, r4
 800609c:	f000 f9f8 	bl	8006490 <_Bfree>
 80060a0:	9a14      	ldr	r2, [sp, #80]	; 0x50
 80060a2:	2300      	movs	r3, #0
 80060a4:	6013      	str	r3, [r2, #0]
 80060a6:	2750      	movs	r7, #80	; 0x50
 80060a8:	e713      	b.n	8005ed2 <__gethex+0x12a>
 80060aa:	bf00      	nop
 80060ac:	08008318 	.word	0x08008318
 80060b0:	0800829c 	.word	0x0800829c
 80060b4:	080082ad 	.word	0x080082ad
 80060b8:	9b15      	ldr	r3, [sp, #84]	; 0x54
 80060ba:	2b00      	cmp	r3, #0
 80060bc:	d1eb      	bne.n	8006096 <__gethex+0x2ee>
 80060be:	e7d8      	b.n	8006072 <__gethex+0x2ca>
 80060c0:	9b15      	ldr	r3, [sp, #84]	; 0x54
 80060c2:	2b00      	cmp	r3, #0
 80060c4:	d1d5      	bne.n	8006072 <__gethex+0x2ca>
 80060c6:	e7e6      	b.n	8006096 <__gethex+0x2ee>
 80060c8:	1e6f      	subs	r7, r5, #1
 80060ca:	f1ba 0f00 	cmp.w	sl, #0
 80060ce:	d131      	bne.n	8006134 <__gethex+0x38c>
 80060d0:	b127      	cbz	r7, 80060dc <__gethex+0x334>
 80060d2:	4639      	mov	r1, r7
 80060d4:	4620      	mov	r0, r4
 80060d6:	f000 fe35 	bl	8006d44 <__any_on>
 80060da:	4682      	mov	sl, r0
 80060dc:	117b      	asrs	r3, r7, #5
 80060de:	2101      	movs	r1, #1
 80060e0:	f859 3023 	ldr.w	r3, [r9, r3, lsl #2]
 80060e4:	f007 071f 	and.w	r7, r7, #31
 80060e8:	fa01 f707 	lsl.w	r7, r1, r7
 80060ec:	421f      	tst	r7, r3
 80060ee:	4629      	mov	r1, r5
 80060f0:	4620      	mov	r0, r4
 80060f2:	bf18      	it	ne
 80060f4:	f04a 0a02 	orrne.w	sl, sl, #2
 80060f8:	1b76      	subs	r6, r6, r5
 80060fa:	f7ff fded 	bl	8005cd8 <rshift>
 80060fe:	f8d8 5004 	ldr.w	r5, [r8, #4]
 8006102:	2702      	movs	r7, #2
 8006104:	f1ba 0f00 	cmp.w	sl, #0
 8006108:	d048      	beq.n	800619c <__gethex+0x3f4>
 800610a:	f8d8 300c 	ldr.w	r3, [r8, #12]
 800610e:	2b02      	cmp	r3, #2
 8006110:	d015      	beq.n	800613e <__gethex+0x396>
 8006112:	2b03      	cmp	r3, #3
 8006114:	d017      	beq.n	8006146 <__gethex+0x39e>
 8006116:	2b01      	cmp	r3, #1
 8006118:	d109      	bne.n	800612e <__gethex+0x386>
 800611a:	f01a 0f02 	tst.w	sl, #2
 800611e:	d006      	beq.n	800612e <__gethex+0x386>
 8006120:	f8d9 0000 	ldr.w	r0, [r9]
 8006124:	ea4a 0a00 	orr.w	sl, sl, r0
 8006128:	f01a 0f01 	tst.w	sl, #1
 800612c:	d10e      	bne.n	800614c <__gethex+0x3a4>
 800612e:	f047 0710 	orr.w	r7, r7, #16
 8006132:	e033      	b.n	800619c <__gethex+0x3f4>
 8006134:	f04f 0a01 	mov.w	sl, #1
 8006138:	e7d0      	b.n	80060dc <__gethex+0x334>
 800613a:	2701      	movs	r7, #1
 800613c:	e7e2      	b.n	8006104 <__gethex+0x35c>
 800613e:	9b15      	ldr	r3, [sp, #84]	; 0x54
 8006140:	f1c3 0301 	rsb	r3, r3, #1
 8006144:	9315      	str	r3, [sp, #84]	; 0x54
 8006146:	9b15      	ldr	r3, [sp, #84]	; 0x54
 8006148:	2b00      	cmp	r3, #0
 800614a:	d0f0      	beq.n	800612e <__gethex+0x386>
 800614c:	f8d4 b010 	ldr.w	fp, [r4, #16]
 8006150:	f104 0314 	add.w	r3, r4, #20
 8006154:	ea4f 0a8b 	mov.w	sl, fp, lsl #2
 8006158:	eb03 018b 	add.w	r1, r3, fp, lsl #2
 800615c:	f04f 0c00 	mov.w	ip, #0
 8006160:	4618      	mov	r0, r3
 8006162:	f853 2b04 	ldr.w	r2, [r3], #4
 8006166:	f1b2 3fff 	cmp.w	r2, #4294967295
 800616a:	d01c      	beq.n	80061a6 <__gethex+0x3fe>
 800616c:	3201      	adds	r2, #1
 800616e:	6002      	str	r2, [r0, #0]
 8006170:	2f02      	cmp	r7, #2
 8006172:	f104 0314 	add.w	r3, r4, #20
 8006176:	d13f      	bne.n	80061f8 <__gethex+0x450>
 8006178:	f8d8 2000 	ldr.w	r2, [r8]
 800617c:	3a01      	subs	r2, #1
 800617e:	42b2      	cmp	r2, r6
 8006180:	d10a      	bne.n	8006198 <__gethex+0x3f0>
 8006182:	1171      	asrs	r1, r6, #5
 8006184:	2201      	movs	r2, #1
 8006186:	f853 3021 	ldr.w	r3, [r3, r1, lsl #2]
 800618a:	f006 061f 	and.w	r6, r6, #31
 800618e:	fa02 f606 	lsl.w	r6, r2, r6
 8006192:	421e      	tst	r6, r3
 8006194:	bf18      	it	ne
 8006196:	4617      	movne	r7, r2
 8006198:	f047 0720 	orr.w	r7, r7, #32
 800619c:	9b14      	ldr	r3, [sp, #80]	; 0x50
 800619e:	601c      	str	r4, [r3, #0]
 80061a0:	9b04      	ldr	r3, [sp, #16]
 80061a2:	601d      	str	r5, [r3, #0]
 80061a4:	e695      	b.n	8005ed2 <__gethex+0x12a>
 80061a6:	4299      	cmp	r1, r3
 80061a8:	f843 cc04 	str.w	ip, [r3, #-4]
 80061ac:	d8d8      	bhi.n	8006160 <__gethex+0x3b8>
 80061ae:	68a3      	ldr	r3, [r4, #8]
 80061b0:	459b      	cmp	fp, r3
 80061b2:	db19      	blt.n	80061e8 <__gethex+0x440>
 80061b4:	6861      	ldr	r1, [r4, #4]
 80061b6:	ee18 0a10 	vmov	r0, s16
 80061ba:	3101      	adds	r1, #1
 80061bc:	f000 f928 	bl	8006410 <_Balloc>
 80061c0:	4681      	mov	r9, r0
 80061c2:	b918      	cbnz	r0, 80061cc <__gethex+0x424>
 80061c4:	4b1a      	ldr	r3, [pc, #104]	; (8006230 <__gethex+0x488>)
 80061c6:	4602      	mov	r2, r0
 80061c8:	2184      	movs	r1, #132	; 0x84
 80061ca:	e6a8      	b.n	8005f1e <__gethex+0x176>
 80061cc:	6922      	ldr	r2, [r4, #16]
 80061ce:	3202      	adds	r2, #2
 80061d0:	f104 010c 	add.w	r1, r4, #12
 80061d4:	0092      	lsls	r2, r2, #2
 80061d6:	300c      	adds	r0, #12
 80061d8:	f000 f90c 	bl	80063f4 <memcpy>
 80061dc:	4621      	mov	r1, r4
 80061de:	ee18 0a10 	vmov	r0, s16
 80061e2:	f000 f955 	bl	8006490 <_Bfree>
 80061e6:	464c      	mov	r4, r9
 80061e8:	6923      	ldr	r3, [r4, #16]
 80061ea:	1c5a      	adds	r2, r3, #1
 80061ec:	eb04 0383 	add.w	r3, r4, r3, lsl #2
 80061f0:	6122      	str	r2, [r4, #16]
 80061f2:	2201      	movs	r2, #1
 80061f4:	615a      	str	r2, [r3, #20]
 80061f6:	e7bb      	b.n	8006170 <__gethex+0x3c8>
 80061f8:	6922      	ldr	r2, [r4, #16]
 80061fa:	455a      	cmp	r2, fp
 80061fc:	dd0b      	ble.n	8006216 <__gethex+0x46e>
 80061fe:	2101      	movs	r1, #1
 8006200:	4620      	mov	r0, r4
 8006202:	f7ff fd69 	bl	8005cd8 <rshift>
 8006206:	f8d8 3008 	ldr.w	r3, [r8, #8]
 800620a:	3501      	adds	r5, #1
 800620c:	42ab      	cmp	r3, r5
 800620e:	f6ff aed0 	blt.w	8005fb2 <__gethex+0x20a>
 8006212:	2701      	movs	r7, #1
 8006214:	e7c0      	b.n	8006198 <__gethex+0x3f0>
 8006216:	f016 061f 	ands.w	r6, r6, #31
 800621a:	d0fa      	beq.n	8006212 <__gethex+0x46a>
 800621c:	449a      	add	sl, r3
 800621e:	f1c6 0620 	rsb	r6, r6, #32
 8006222:	f85a 0c04 	ldr.w	r0, [sl, #-4]
 8006226:	f000 f9e9 	bl	80065fc <__hi0bits>
 800622a:	42b0      	cmp	r0, r6
 800622c:	dbe7      	blt.n	80061fe <__gethex+0x456>
 800622e:	e7f0      	b.n	8006212 <__gethex+0x46a>
 8006230:	0800829c 	.word	0x0800829c

08006234 <L_shift>:
 8006234:	f1c2 0208 	rsb	r2, r2, #8
 8006238:	0092      	lsls	r2, r2, #2
 800623a:	b570      	push	{r4, r5, r6, lr}
 800623c:	f1c2 0620 	rsb	r6, r2, #32
 8006240:	6843      	ldr	r3, [r0, #4]
 8006242:	6804      	ldr	r4, [r0, #0]
 8006244:	fa03 f506 	lsl.w	r5, r3, r6
 8006248:	432c      	orrs	r4, r5
 800624a:	40d3      	lsrs	r3, r2
 800624c:	6004      	str	r4, [r0, #0]
 800624e:	f840 3f04 	str.w	r3, [r0, #4]!
 8006252:	4288      	cmp	r0, r1
 8006254:	d3f4      	bcc.n	8006240 <L_shift+0xc>
 8006256:	bd70      	pop	{r4, r5, r6, pc}

08006258 <__match>:
 8006258:	b530      	push	{r4, r5, lr}
 800625a:	6803      	ldr	r3, [r0, #0]
 800625c:	3301      	adds	r3, #1
 800625e:	f811 4b01 	ldrb.w	r4, [r1], #1
 8006262:	b914      	cbnz	r4, 800626a <__match+0x12>
 8006264:	6003      	str	r3, [r0, #0]
 8006266:	2001      	movs	r0, #1
 8006268:	bd30      	pop	{r4, r5, pc}
 800626a:	f813 2b01 	ldrb.w	r2, [r3], #1
 800626e:	f1a2 0541 	sub.w	r5, r2, #65	; 0x41
 8006272:	2d19      	cmp	r5, #25
 8006274:	bf98      	it	ls
 8006276:	3220      	addls	r2, #32
 8006278:	42a2      	cmp	r2, r4
 800627a:	d0f0      	beq.n	800625e <__match+0x6>
 800627c:	2000      	movs	r0, #0
 800627e:	e7f3      	b.n	8006268 <__match+0x10>

08006280 <__hexnan>:
 8006280:	e92d 4ff0 	stmdb	sp!, {r4, r5, r6, r7, r8, r9, sl, fp, lr}
 8006284:	680b      	ldr	r3, [r1, #0]
 8006286:	6801      	ldr	r1, [r0, #0]
 8006288:	115e      	asrs	r6, r3, #5
 800628a:	eb02 0686 	add.w	r6, r2, r6, lsl #2
 800628e:	f013 031f 	ands.w	r3, r3, #31
 8006292:	b087      	sub	sp, #28
 8006294:	bf18      	it	ne
 8006296:	3604      	addne	r6, #4
 8006298:	2500      	movs	r5, #0
 800629a:	1f37      	subs	r7, r6, #4
 800629c:	4682      	mov	sl, r0
 800629e:	4690      	mov	r8, r2
 80062a0:	9301      	str	r3, [sp, #4]
 80062a2:	f846 5c04 	str.w	r5, [r6, #-4]
 80062a6:	46b9      	mov	r9, r7
 80062a8:	463c      	mov	r4, r7
 80062aa:	9502      	str	r5, [sp, #8]
 80062ac:	46ab      	mov	fp, r5
 80062ae:	784a      	ldrb	r2, [r1, #1]
 80062b0:	1c4b      	adds	r3, r1, #1
 80062b2:	9303      	str	r3, [sp, #12]
 80062b4:	b342      	cbz	r2, 8006308 <__hexnan+0x88>
 80062b6:	4610      	mov	r0, r2
 80062b8:	9105      	str	r1, [sp, #20]
 80062ba:	9204      	str	r2, [sp, #16]
 80062bc:	f7ff fd5e 	bl	8005d7c <__hexdig_fun>
 80062c0:	2800      	cmp	r0, #0
 80062c2:	d14f      	bne.n	8006364 <__hexnan+0xe4>
 80062c4:	9a04      	ldr	r2, [sp, #16]
 80062c6:	9905      	ldr	r1, [sp, #20]
 80062c8:	2a20      	cmp	r2, #32
 80062ca:	d818      	bhi.n	80062fe <__hexnan+0x7e>
 80062cc:	9b02      	ldr	r3, [sp, #8]
 80062ce:	459b      	cmp	fp, r3
 80062d0:	dd13      	ble.n	80062fa <__hexnan+0x7a>
 80062d2:	454c      	cmp	r4, r9
 80062d4:	d206      	bcs.n	80062e4 <__hexnan+0x64>
 80062d6:	2d07      	cmp	r5, #7
 80062d8:	dc04      	bgt.n	80062e4 <__hexnan+0x64>
 80062da:	462a      	mov	r2, r5
 80062dc:	4649      	mov	r1, r9
 80062de:	4620      	mov	r0, r4
 80062e0:	f7ff ffa8 	bl	8006234 <L_shift>
 80062e4:	4544      	cmp	r4, r8
 80062e6:	d950      	bls.n	800638a <__hexnan+0x10a>
 80062e8:	2300      	movs	r3, #0
 80062ea:	f1a4 0904 	sub.w	r9, r4, #4
 80062ee:	f844 3c04 	str.w	r3, [r4, #-4]
 80062f2:	f8cd b008 	str.w	fp, [sp, #8]
 80062f6:	464c      	mov	r4, r9
 80062f8:	461d      	mov	r5, r3
 80062fa:	9903      	ldr	r1, [sp, #12]
 80062fc:	e7d7      	b.n	80062ae <__hexnan+0x2e>
 80062fe:	2a29      	cmp	r2, #41	; 0x29
 8006300:	d156      	bne.n	80063b0 <__hexnan+0x130>
 8006302:	3102      	adds	r1, #2
 8006304:	f8ca 1000 	str.w	r1, [sl]
 8006308:	f1bb 0f00 	cmp.w	fp, #0
 800630c:	d050      	beq.n	80063b0 <__hexnan+0x130>
 800630e:	454c      	cmp	r4, r9
 8006310:	d206      	bcs.n	8006320 <__hexnan+0xa0>
 8006312:	2d07      	cmp	r5, #7
 8006314:	dc04      	bgt.n	8006320 <__hexnan+0xa0>
 8006316:	462a      	mov	r2, r5
 8006318:	4649      	mov	r1, r9
 800631a:	4620      	mov	r0, r4
 800631c:	f7ff ff8a 	bl	8006234 <L_shift>
 8006320:	4544      	cmp	r4, r8
 8006322:	d934      	bls.n	800638e <__hexnan+0x10e>
 8006324:	f1a8 0204 	sub.w	r2, r8, #4
 8006328:	4623      	mov	r3, r4
 800632a:	f853 1b04 	ldr.w	r1, [r3], #4
 800632e:	f842 1f04 	str.w	r1, [r2, #4]!
 8006332:	429f      	cmp	r7, r3
 8006334:	d2f9      	bcs.n	800632a <__hexnan+0xaa>
 8006336:	1b3b      	subs	r3, r7, r4
 8006338:	f023 0303 	bic.w	r3, r3, #3
 800633c:	3304      	adds	r3, #4
 800633e:	3401      	adds	r4, #1
 8006340:	3e03      	subs	r6, #3
 8006342:	42b4      	cmp	r4, r6
 8006344:	bf88      	it	hi
 8006346:	2304      	movhi	r3, #4
 8006348:	4443      	add	r3, r8
 800634a:	2200      	movs	r2, #0
 800634c:	f843 2b04 	str.w	r2, [r3], #4
 8006350:	429f      	cmp	r7, r3
 8006352:	d2fb      	bcs.n	800634c <__hexnan+0xcc>
 8006354:	683b      	ldr	r3, [r7, #0]
 8006356:	b91b      	cbnz	r3, 8006360 <__hexnan+0xe0>
 8006358:	4547      	cmp	r7, r8
 800635a:	d127      	bne.n	80063ac <__hexnan+0x12c>
 800635c:	2301      	movs	r3, #1
 800635e:	603b      	str	r3, [r7, #0]
 8006360:	2005      	movs	r0, #5
 8006362:	e026      	b.n	80063b2 <__hexnan+0x132>
 8006364:	3501      	adds	r5, #1
 8006366:	2d08      	cmp	r5, #8
 8006368:	f10b 0b01 	add.w	fp, fp, #1
 800636c:	dd06      	ble.n	800637c <__hexnan+0xfc>
 800636e:	4544      	cmp	r4, r8
 8006370:	d9c3      	bls.n	80062fa <__hexnan+0x7a>
 8006372:	2300      	movs	r3, #0
 8006374:	f844 3c04 	str.w	r3, [r4, #-4]
 8006378:	2501      	movs	r5, #1
 800637a:	3c04      	subs	r4, #4
 800637c:	6822      	ldr	r2, [r4, #0]
 800637e:	f000 000f 	and.w	r0, r0, #15
 8006382:	ea40 1202 	orr.w	r2, r0, r2, lsl #4
 8006386:	6022      	str	r2, [r4, #0]
 8006388:	e7b7      	b.n	80062fa <__hexnan+0x7a>
 800638a:	2508      	movs	r5, #8
 800638c:	e7b5      	b.n	80062fa <__hexnan+0x7a>
 800638e:	9b01      	ldr	r3, [sp, #4]
 8006390:	2b00      	cmp	r3, #0
 8006392:	d0df      	beq.n	8006354 <__hexnan+0xd4>
 8006394:	f04f 32ff 	mov.w	r2, #4294967295
 8006398:	f1c3 0320 	rsb	r3, r3, #32
 800639c:	fa22 f303 	lsr.w	r3, r2, r3
 80063a0:	f856 2c04 	ldr.w	r2, [r6, #-4]
 80063a4:	401a      	ands	r2, r3
 80063a6:	f846 2c04 	str.w	r2, [r6, #-4]
 80063aa:	e7d3      	b.n	8006354 <__hexnan+0xd4>
 80063ac:	3f04      	subs	r7, #4
 80063ae:	e7d1      	b.n	8006354 <__hexnan+0xd4>
 80063b0:	2004      	movs	r0, #4
 80063b2:	b007      	add	sp, #28
 80063b4:	e8bd 8ff0 	ldmia.w	sp!, {r4, r5, r6, r7, r8, r9, sl, fp, pc}

080063b8 <_localeconv_r>:
 80063b8:	4800      	ldr	r0, [pc, #0]	; (80063bc <_localeconv_r+0x4>)
 80063ba:	4770      	bx	lr
 80063bc:	20000164 	.word	0x20000164

080063c0 <malloc>:
 80063c0:	4b02      	ldr	r3, [pc, #8]	; (80063cc <malloc+0xc>)
 80063c2:	4601      	mov	r1, r0
 80063c4:	6818      	ldr	r0, [r3, #0]
 80063c6:	f000 bd3d 	b.w	8006e44 <_malloc_r>
 80063ca:	bf00      	nop
 80063cc:	2000000c 	.word	0x2000000c

080063d0 <__ascii_mbtowc>:
 80063d0:	b082      	sub	sp, #8
 80063d2:	b901      	cbnz	r1, 80063d6 <__ascii_mbtowc+0x6>
 80063d4:	a901      	add	r1, sp, #4
 80063d6:	b142      	cbz	r2, 80063ea <__ascii_mbtowc+0x1a>
 80063d8:	b14b      	cbz	r3, 80063ee <__ascii_mbtowc+0x1e>
 80063da:	7813      	ldrb	r3, [r2, #0]
 80063dc:	600b      	str	r3, [r1, #0]
 80063de:	7812      	ldrb	r2, [r2, #0]
 80063e0:	1e10      	subs	r0, r2, #0
 80063e2:	bf18      	it	ne
 80063e4:	2001      	movne	r0, #1
 80063e6:	b002      	add	sp, #8
 80063e8:	4770      	bx	lr
 80063ea:	4610      	mov	r0, r2
 80063ec:	e7fb      	b.n	80063e6 <__ascii_mbtowc+0x16>
 80063ee:	f06f 0001 	mvn.w	r0, #1
 80063f2:	e7f8      	b.n	80063e6 <__ascii_mbtowc+0x16>

080063f4 <memcpy>:
 80063f4:	440a      	add	r2, r1
 80063f6:	4291      	cmp	r1, r2
 80063f8:	f100 33ff 	add.w	r3, r0, #4294967295
 80063fc:	d100      	bne.n	8006400 <memcpy+0xc>
 80063fe:	4770      	bx	lr
 8006400:	b510      	push	{r4, lr}
 8006402:	f811 4b01 	ldrb.w	r4, [r1], #1
 8006406:	f803 4f01 	strb.w	r4, [r3, #1]!
 800640a:	4291      	cmp	r1, r2
 800640c:	d1f9      	bne.n	8006402 <memcpy+0xe>
 800640e:	bd10      	pop	{r4, pc}

08006410 <_Balloc>:
 8006410:	b570      	push	{r4, r5, r6, lr}
 8006412:	6a46      	ldr	r6, [r0, #36]	; 0x24
 8006414:	4604      	mov	r4, r0
 8006416:	460d      	mov	r5, r1
 8006418:	b976      	cbnz	r6, 8006438 <_Balloc+0x28>
 800641a:	2010      	movs	r0, #16
 800641c:	f7ff ffd0 	bl	80063c0 <malloc>
 8006420:	4602      	mov	r2, r0
 8006422:	6260      	str	r0, [r4, #36]	; 0x24
 8006424:	b920      	cbnz	r0, 8006430 <_Balloc+0x20>
 8006426:	4b18      	ldr	r3, [pc, #96]	; (8006488 <_Balloc+0x78>)
 8006428:	4818      	ldr	r0, [pc, #96]	; (800648c <_Balloc+0x7c>)
 800642a:	2166      	movs	r1, #102	; 0x66
 800642c:	f000 fef8 	bl	8007220 <__assert_func>
 8006430:	e9c0 6601 	strd	r6, r6, [r0, #4]
 8006434:	6006      	str	r6, [r0, #0]
 8006436:	60c6      	str	r6, [r0, #12]
 8006438:	6a66      	ldr	r6, [r4, #36]	; 0x24
 800643a:	68f3      	ldr	r3, [r6, #12]
 800643c:	b183      	cbz	r3, 8006460 <_Balloc+0x50>
 800643e:	6a63      	ldr	r3, [r4, #36]	; 0x24
 8006440:	68db      	ldr	r3, [r3, #12]
 8006442:	f853 0025 	ldr.w	r0, [r3, r5, lsl #2]
 8006446:	b9b8      	cbnz	r0, 8006478 <_Balloc+0x68>
 8006448:	2101      	movs	r1, #1
 800644a:	fa01 f605 	lsl.w	r6, r1, r5
 800644e:	1d72      	adds	r2, r6, #5
 8006450:	0092      	lsls	r2, r2, #2
 8006452:	4620      	mov	r0, r4
 8006454:	f000 fc97 	bl	8006d86 <_calloc_r>
 8006458:	b160      	cbz	r0, 8006474 <_Balloc+0x64>
 800645a:	e9c0 5601 	strd	r5, r6, [r0, #4]
 800645e:	e00e      	b.n	800647e <_Balloc+0x6e>
 8006460:	2221      	movs	r2, #33	; 0x21
 8006462:	2104      	movs	r1, #4
 8006464:	4620      	mov	r0, r4
 8006466:	f000 fc8e 	bl	8006d86 <_calloc_r>
 800646a:	6a63      	ldr	r3, [r4, #36]	; 0x24
 800646c:	60f0      	str	r0, [r6, #12]
 800646e:	68db      	ldr	r3, [r3, #12]
 8006470:	2b00      	cmp	r3, #0
 8006472:	d1e4      	bne.n	800643e <_Balloc+0x2e>
 8006474:	2000      	movs	r0, #0
 8006476:	bd70      	pop	{r4, r5, r6, pc}
 8006478:	6802      	ldr	r2, [r0, #0]
 800647a:	f843 2025 	str.w	r2, [r3, r5, lsl #2]
 800647e:	2300      	movs	r3, #0
 8006480:	e9c0 3303 	strd	r3, r3, [r0, #12]
 8006484:	e7f7      	b.n	8006476 <_Balloc+0x66>
 8006486:	bf00      	nop
 8006488:	08008226 	.word	0x08008226
 800648c:	0800832c 	.word	0x0800832c

08006490 <_Bfree>:
 8006490:	b570      	push	{r4, r5, r6, lr}
 8006492:	6a46      	ldr	r6, [r0, #36]	; 0x24
 8006494:	4605      	mov	r5, r0
 8006496:	460c      	mov	r4, r1
 8006498:	b976      	cbnz	r6, 80064b8 <_Bfree+0x28>
 800649a:	2010      	movs	r0, #16
 800649c:	f7ff ff90 	bl	80063c0 <malloc>
 80064a0:	4602      	mov	r2, r0
 80064a2:	6268      	str	r0, [r5, #36]	; 0x24
 80064a4:	b920      	cbnz	r0, 80064b0 <_Bfree+0x20>
 80064a6:	4b09      	ldr	r3, [pc, #36]	; (80064cc <_Bfree+0x3c>)
 80064a8:	4809      	ldr	r0, [pc, #36]	; (80064d0 <_Bfree+0x40>)
 80064aa:	218a      	movs	r1, #138	; 0x8a
 80064ac:	f000 feb8 	bl	8007220 <__assert_func>
 80064b0:	e9c0 6601 	strd	r6, r6, [r0, #4]
 80064b4:	6006      	str	r6, [r0, #0]
 80064b6:	60c6      	str	r6, [r0, #12]
 80064b8:	b13c      	cbz	r4, 80064ca <_Bfree+0x3a>
 80064ba:	6a6b      	ldr	r3, [r5, #36]	; 0x24
 80064bc:	6862      	ldr	r2, [r4, #4]
 80064be:	68db      	ldr	r3, [r3, #12]
 80064c0:	f853 1022 	ldr.w	r1, [r3, r2, lsl #2]
 80064c4:	6021      	str	r1, [r4, #0]
 80064c6:	f843 4022 	str.w	r4, [r3, r2, lsl #2]
 80064ca:	bd70      	pop	{r4, r5, r6, pc}
 80064cc:	08008226 	.word	0x08008226
 80064d0:	0800832c 	.word	0x0800832c

080064d4 <__multadd>:
 80064d4:	e92d 41f0 	stmdb	sp!, {r4, r5, r6, r7, r8, lr}
 80064d8:	690e      	ldr	r6, [r1, #16]
 80064da:	4607      	mov	r7, r0
 80064dc:	4698      	mov	r8, r3
 80064de:	460c      	mov	r4, r1
 80064e0:	f101 0014 	add.w	r0, r1, #20
 80064e4:	2300      	movs	r3, #0
 80064e6:	6805      	ldr	r5, [r0, #0]
 80064e8:	b2a9      	uxth	r1, r5
 80064ea:	fb02 8101 	mla	r1, r2, r1, r8
 80064ee:	ea4f 4c11 	mov.w	ip, r1, lsr #16
 80064f2:	0c2d      	lsrs	r5, r5, #16
 80064f4:	fb02 c505 	mla	r5, r2, r5, ip
 80064f8:	b289      	uxth	r1, r1
 80064fa:	3301      	adds	r3, #1
 80064fc:	eb01 4105 	add.w	r1, r1, r5, lsl #16
 8006500:	429e      	cmp	r6, r3
 8006502:	f840 1b04 	str.w	r1, [r0], #4
 8006506:	ea4f 4815 	mov.w	r8, r5, lsr #16
 800650a:	dcec      	bgt.n	80064e6 <__multadd+0x12>
 800650c:	f1b8 0f00 	cmp.w	r8, #0
 8006510:	d022      	beq.n	8006558 <__multadd+0x84>
 8006512:	68a3      	ldr	r3, [r4, #8]
 8006514:	42b3      	cmp	r3, r6
 8006516:	dc19      	bgt.n	800654c <__multadd+0x78>
 8006518:	6861      	ldr	r1, [r4, #4]
 800651a:	4638      	mov	r0, r7
 800651c:	3101      	adds	r1, #1
 800651e:	f7ff ff77 	bl	8006410 <_Balloc>
 8006522:	4605      	mov	r5, r0
 8006524:	b928      	cbnz	r0, 8006532 <__multadd+0x5e>
 8006526:	4602      	mov	r2, r0
 8006528:	4b0d      	ldr	r3, [pc, #52]	; (8006560 <__multadd+0x8c>)
 800652a:	480e      	ldr	r0, [pc, #56]	; (8006564 <__multadd+0x90>)
 800652c:	21b5      	movs	r1, #181	; 0xb5
 800652e:	f000 fe77 	bl	8007220 <__assert_func>
 8006532:	6922      	ldr	r2, [r4, #16]
 8006534:	3202      	adds	r2, #2
 8006536:	f104 010c 	add.w	r1, r4, #12
 800653a:	0092      	lsls	r2, r2, #2
 800653c:	300c      	adds	r0, #12
 800653e:	f7ff ff59 	bl	80063f4 <memcpy>
 8006542:	4621      	mov	r1, r4
 8006544:	4638      	mov	r0, r7
 8006546:	f7ff ffa3 	bl	8006490 <_Bfree>
 800654a:	462c      	mov	r4, r5
 800654c:	eb04 0386 	add.w	r3, r4, r6, lsl #2
 8006550:	3601      	adds	r6, #1
 8006552:	f8c3 8014 	str.w	r8, [r3, #20]
 8006556:	6126      	str	r6, [r4, #16]
 8006558:	4620      	mov	r0, r4
 800655a:	e8bd 81f0 	ldmia.w	sp!, {r4, r5, r6, r7, r8, pc}
 800655e:	bf00      	nop
 8006560:	0800829c 	.word	0x0800829c
 8006564:	0800832c 	.word	0x0800832c

08006568 <__s2b>:
 8006568:	e92d 43f8 	stmdb	sp!, {r3, r4, r5, r6, r7, r8, r9, lr}
 800656c:	460c      	mov	r4, r1
 800656e:	4615      	mov	r5, r2
 8006570:	461f      	mov	r7, r3
 8006572:	2209      	movs	r2, #9
 8006574:	3308      	adds	r3, #8
 8006576:	4606      	mov	r6, r0
 8006578:	fb93 f3f2 	sdiv	r3, r3, r2
 800657c:	2100      	movs	r1, #0
 800657e:	2201      	movs	r2, #1
 8006580:	429a      	cmp	r2, r3
 8006582:	db09      	blt.n	8006598 <__s2b+0x30>
 8006584:	4630      	mov	r0, r6
 8006586:	f7ff ff43 	bl	8006410 <_Balloc>
 800658a:	b940      	cbnz	r0, 800659e <__s2b+0x36>
 800658c:	4602      	mov	r2, r0
 800658e:	4b19      	ldr	r3, [pc, #100]	; (80065f4 <__s2b+0x8c>)
 8006590:	4819      	ldr	r0, [pc, #100]	; (80065f8 <__s2b+0x90>)
 8006592:	21ce      	movs	r1, #206	; 0xce
 8006594:	f000 fe44 	bl	8007220 <__assert_func>
 8006598:	0052      	lsls	r2, r2, #1
 800659a:	3101      	adds	r1, #1
 800659c:	e7f0      	b.n	8006580 <__s2b+0x18>
 800659e:	9b08      	ldr	r3, [sp, #32]
 80065a0:	6143      	str	r3, [r0, #20]
 80065a2:	2d09      	cmp	r5, #9
 80065a4:	f04f 0301 	mov.w	r3, #1
 80065a8:	6103      	str	r3, [r0, #16]
 80065aa:	dd16      	ble.n	80065da <__s2b+0x72>
 80065ac:	f104 0909 	add.w	r9, r4, #9
 80065b0:	46c8      	mov	r8, r9
 80065b2:	442c      	add	r4, r5
 80065b4:	f818 3b01 	ldrb.w	r3, [r8], #1
 80065b8:	4601      	mov	r1, r0
 80065ba:	3b30      	subs	r3, #48	; 0x30
 80065bc:	220a      	movs	r2, #10
 80065be:	4630      	mov	r0, r6
 80065c0:	f7ff ff88 	bl	80064d4 <__multadd>
 80065c4:	45a0      	cmp	r8, r4
 80065c6:	d1f5      	bne.n	80065b4 <__s2b+0x4c>
 80065c8:	f1a5 0408 	sub.w	r4, r5, #8
 80065cc:	444c      	add	r4, r9
 80065ce:	1b2d      	subs	r5, r5, r4
 80065d0:	1963      	adds	r3, r4, r5
 80065d2:	42bb      	cmp	r3, r7
 80065d4:	db04      	blt.n	80065e0 <__s2b+0x78>
 80065d6:	e8bd 83f8 	ldmia.w	sp!, {r3, r4, r5, r6, r7, r8, r9, pc}
 80065da:	340a      	adds	r4, #10
 80065dc:	2509      	movs	r5, #9
 80065de:	e7f6      	b.n	80065ce <__s2b+0x66>
 80065e0:	f814 3b01 	ldrb.w	r3, [r4], #1
 80065e4:	4601      	mov	r1, r0
 80065e6:	3b30      	subs	r3, #48	; 0x30
 80065e8:	220a      	movs	r2, #10
 80065ea:	4630      	mov	r0, r6
 80065ec:	f7ff ff72 	bl	80064d4 <__multadd>
 80065f0:	e7ee      	b.n	80065d0 <__s2b+0x68>
 80065f2:	bf00      	nop
 80065f4:	0800829c 	.word	0x0800829c
 80065f8:	0800832c 	.word	0x0800832c

080065fc <__hi0bits>:
 80065fc:	0c03      	lsrs	r3, r0, #16
 80065fe:	041b      	lsls	r3, r3, #16
 8006600:	b9d3      	cbnz	r3, 8006638 <__hi0bits+0x3c>
 8006602:	0400      	lsls	r0, r0, #16
 8006604:	2310      	movs	r3, #16
 8006606:	f010 4f7f 	tst.w	r0, #4278190080	; 0xff000000
 800660a:	bf04      	itt	eq
 800660c:	0200      	lsleq	r0, r0, #8
 800660e:	3308      	addeq	r3, #8
 8006610:	f010 4f70 	tst.w	r0, #4026531840	; 0xf0000000
 8006614:	bf04      	itt	eq
 8006616:	0100      	lsleq	r0, r0, #4
 8006618:	3304      	addeq	r3, #4
 800661a:	f010 4f40 	tst.w	r0, #3221225472	; 0xc0000000
 800661e:	bf04      	itt	eq
 8006620:	0080      	lsleq	r0, r0, #2
 8006622:	3302      	addeq	r3, #2
 8006624:	2800      	cmp	r0, #0
 8006626:	db05      	blt.n	8006634 <__hi0bits+0x38>
 8006628:	f010 4f80 	tst.w	r0, #1073741824	; 0x40000000
 800662c:	f103 0301 	add.w	r3, r3, #1
 8006630:	bf08      	it	eq
 8006632:	2320      	moveq	r3, #32
 8006634:	4618      	mov	r0, r3
 8006636:	4770      	bx	lr
 8006638:	2300      	movs	r3, #0
 800663a:	e7e4      	b.n	8006606 <__hi0bits+0xa>

0800663c <__lo0bits>:
 800663c:	6803      	ldr	r3, [r0, #0]
 800663e:	f013 0207 	ands.w	r2, r3, #7
 8006642:	4601      	mov	r1, r0
 8006644:	d00b      	beq.n	800665e <__lo0bits+0x22>
 8006646:	07da      	lsls	r2, r3, #31
 8006648:	d424      	bmi.n	8006694 <__lo0bits+0x58>
 800664a:	0798      	lsls	r0, r3, #30
 800664c:	bf49      	itett	mi
 800664e:	085b      	lsrmi	r3, r3, #1
 8006650:	089b      	lsrpl	r3, r3, #2
 8006652:	2001      	movmi	r0, #1
 8006654:	600b      	strmi	r3, [r1, #0]
 8006656:	bf5c      	itt	pl
 8006658:	600b      	strpl	r3, [r1, #0]
 800665a:	2002      	movpl	r0, #2
 800665c:	4770      	bx	lr
 800665e:	b298      	uxth	r0, r3
 8006660:	b9b0      	cbnz	r0, 8006690 <__lo0bits+0x54>
 8006662:	0c1b      	lsrs	r3, r3, #16
 8006664:	2010      	movs	r0, #16
 8006666:	f013 0fff 	tst.w	r3, #255	; 0xff
 800666a:	bf04      	itt	eq
 800666c:	0a1b      	lsreq	r3, r3, #8
 800666e:	3008      	addeq	r0, #8
 8006670:	071a      	lsls	r2, r3, #28
 8006672:	bf04      	itt	eq
 8006674:	091b      	lsreq	r3, r3, #4
 8006676:	3004      	addeq	r0, #4
 8006678:	079a      	lsls	r2, r3, #30
 800667a:	bf04      	itt	eq
 800667c:	089b      	lsreq	r3, r3, #2
 800667e:	3002      	addeq	r0, #2
 8006680:	07da      	lsls	r2, r3, #31
 8006682:	d403      	bmi.n	800668c <__lo0bits+0x50>
 8006684:	085b      	lsrs	r3, r3, #1
 8006686:	f100 0001 	add.w	r0, r0, #1
 800668a:	d005      	beq.n	8006698 <__lo0bits+0x5c>
 800668c:	600b      	str	r3, [r1, #0]
 800668e:	4770      	bx	lr
 8006690:	4610      	mov	r0, r2
 8006692:	e7e8      	b.n	8006666 <__lo0bits+0x2a>
 8006694:	2000      	movs	r0, #0
 8006696:	4770      	bx	lr
 8006698:	2020      	movs	r0, #32
 800669a:	4770      	bx	lr

0800669c <__i2b>:
 800669c:	b510      	push	{r4, lr}
 800669e:	460c      	mov	r4, r1
 80066a0:	2101      	movs	r1, #1
 80066a2:	f7ff feb5 	bl	8006410 <_Balloc>
 80066a6:	4602      	mov	r2, r0
 80066a8:	b928      	cbnz	r0, 80066b6 <__i2b+0x1a>
 80066aa:	4b05      	ldr	r3, [pc, #20]	; (80066c0 <__i2b+0x24>)
 80066ac:	4805      	ldr	r0, [pc, #20]	; (80066c4 <__i2b+0x28>)
 80066ae:	f44f 71a0 	mov.w	r1, #320	; 0x140
 80066b2:	f000 fdb5 	bl	8007220 <__assert_func>
 80066b6:	2301      	movs	r3, #1
 80066b8:	6144      	str	r4, [r0, #20]
 80066ba:	6103      	str	r3, [r0, #16]
 80066bc:	bd10      	pop	{r4, pc}
 80066be:	bf00      	nop
 80066c0:	0800829c 	.word	0x0800829c
 80066c4:	0800832c 	.word	0x0800832c

080066c8 <__multiply>:
 80066c8:	e92d 4ff0 	stmdb	sp!, {r4, r5, r6, r7, r8, r9, sl, fp, lr}
 80066cc:	4614      	mov	r4, r2
 80066ce:	690a      	ldr	r2, [r1, #16]
 80066d0:	6923      	ldr	r3, [r4, #16]
 80066d2:	429a      	cmp	r2, r3
 80066d4:	bfb8      	it	lt
 80066d6:	460b      	movlt	r3, r1
 80066d8:	460d      	mov	r5, r1
 80066da:	bfbc      	itt	lt
 80066dc:	4625      	movlt	r5, r4
 80066de:	461c      	movlt	r4, r3
 80066e0:	f8d5 a010 	ldr.w	sl, [r5, #16]
 80066e4:	f8d4 9010 	ldr.w	r9, [r4, #16]
 80066e8:	68ab      	ldr	r3, [r5, #8]
 80066ea:	6869      	ldr	r1, [r5, #4]
 80066ec:	eb0a 0709 	add.w	r7, sl, r9
 80066f0:	42bb      	cmp	r3, r7
 80066f2:	b085      	sub	sp, #20
 80066f4:	bfb8      	it	lt
 80066f6:	3101      	addlt	r1, #1
 80066f8:	f7ff fe8a 	bl	8006410 <_Balloc>
 80066fc:	b930      	cbnz	r0, 800670c <__multiply+0x44>
 80066fe:	4602      	mov	r2, r0
 8006700:	4b42      	ldr	r3, [pc, #264]	; (800680c <__multiply+0x144>)
 8006702:	4843      	ldr	r0, [pc, #268]	; (8006810 <__multiply+0x148>)
 8006704:	f240 115d 	movw	r1, #349	; 0x15d
 8006708:	f000 fd8a 	bl	8007220 <__assert_func>
 800670c:	f100 0614 	add.w	r6, r0, #20
 8006710:	eb06 0887 	add.w	r8, r6, r7, lsl #2
 8006714:	4633      	mov	r3, r6
 8006716:	2200      	movs	r2, #0
 8006718:	4543      	cmp	r3, r8
 800671a:	d31e      	bcc.n	800675a <__multiply+0x92>
 800671c:	f105 0c14 	add.w	ip, r5, #20
 8006720:	f104 0314 	add.w	r3, r4, #20
 8006724:	eb0c 0c8a 	add.w	ip, ip, sl, lsl #2
 8006728:	eb03 0289 	add.w	r2, r3, r9, lsl #2
 800672c:	9202      	str	r2, [sp, #8]
 800672e:	ebac 0205 	sub.w	r2, ip, r5
 8006732:	3a15      	subs	r2, #21
 8006734:	f022 0203 	bic.w	r2, r2, #3
 8006738:	3204      	adds	r2, #4
 800673a:	f105 0115 	add.w	r1, r5, #21
 800673e:	458c      	cmp	ip, r1
 8006740:	bf38      	it	cc
 8006742:	2204      	movcc	r2, #4
 8006744:	9201      	str	r2, [sp, #4]
 8006746:	9a02      	ldr	r2, [sp, #8]
 8006748:	9303      	str	r3, [sp, #12]
 800674a:	429a      	cmp	r2, r3
 800674c:	d808      	bhi.n	8006760 <__multiply+0x98>
 800674e:	2f00      	cmp	r7, #0
 8006750:	dc55      	bgt.n	80067fe <__multiply+0x136>
 8006752:	6107      	str	r7, [r0, #16]
 8006754:	b005      	add	sp, #20
 8006756:	e8bd 8ff0 	ldmia.w	sp!, {r4, r5, r6, r7, r8, r9, sl, fp, pc}
 800675a:	f843 2b04 	str.w	r2, [r3], #4
 800675e:	e7db      	b.n	8006718 <__multiply+0x50>
 8006760:	f8b3 a000 	ldrh.w	sl, [r3]
 8006764:	f1ba 0f00 	cmp.w	sl, #0
 8006768:	d020      	beq.n	80067ac <__multiply+0xe4>
 800676a:	f105 0e14 	add.w	lr, r5, #20
 800676e:	46b1      	mov	r9, r6
 8006770:	2200      	movs	r2, #0
 8006772:	f85e 4b04 	ldr.w	r4, [lr], #4
 8006776:	f8d9 b000 	ldr.w	fp, [r9]
 800677a:	b2a1      	uxth	r1, r4
 800677c:	fa1f fb8b 	uxth.w	fp, fp
 8006780:	fb0a b101 	mla	r1, sl, r1, fp
 8006784:	4411      	add	r1, r2
 8006786:	f8d9 2000 	ldr.w	r2, [r9]
 800678a:	0c24      	lsrs	r4, r4, #16
 800678c:	0c12      	lsrs	r2, r2, #16
 800678e:	fb0a 2404 	mla	r4, sl, r4, r2
 8006792:	eb04 4411 	add.w	r4, r4, r1, lsr #16
 8006796:	b289      	uxth	r1, r1
 8006798:	ea41 4104 	orr.w	r1, r1, r4, lsl #16
 800679c:	45f4      	cmp	ip, lr
 800679e:	f849 1b04 	str.w	r1, [r9], #4
 80067a2:	ea4f 4214 	mov.w	r2, r4, lsr #16
 80067a6:	d8e4      	bhi.n	8006772 <__multiply+0xaa>
 80067a8:	9901      	ldr	r1, [sp, #4]
 80067aa:	5072      	str	r2, [r6, r1]
 80067ac:	9a03      	ldr	r2, [sp, #12]
 80067ae:	f8b2 9002 	ldrh.w	r9, [r2, #2]
 80067b2:	3304      	adds	r3, #4
 80067b4:	f1b9 0f00 	cmp.w	r9, #0
 80067b8:	d01f      	beq.n	80067fa <__multiply+0x132>
 80067ba:	6834      	ldr	r4, [r6, #0]
 80067bc:	f105 0114 	add.w	r1, r5, #20
 80067c0:	46b6      	mov	lr, r6
 80067c2:	f04f 0a00 	mov.w	sl, #0
 80067c6:	880a      	ldrh	r2, [r1, #0]
 80067c8:	f8be b002 	ldrh.w	fp, [lr, #2]
 80067cc:	fb09 b202 	mla	r2, r9, r2, fp
 80067d0:	4492      	add	sl, r2
 80067d2:	b2a4      	uxth	r4, r4
 80067d4:	ea44 440a 	orr.w	r4, r4, sl, lsl #16
 80067d8:	f84e 4b04 	str.w	r4, [lr], #4
 80067dc:	f851 4b04 	ldr.w	r4, [r1], #4
 80067e0:	f8be 2000 	ldrh.w	r2, [lr]
 80067e4:	0c24      	lsrs	r4, r4, #16
 80067e6:	fb09 2404 	mla	r4, r9, r4, r2
 80067ea:	eb04 441a 	add.w	r4, r4, sl, lsr #16
 80067ee:	458c      	cmp	ip, r1
 80067f0:	ea4f 4a14 	mov.w	sl, r4, lsr #16
 80067f4:	d8e7      	bhi.n	80067c6 <__multiply+0xfe>
 80067f6:	9a01      	ldr	r2, [sp, #4]
 80067f8:	50b4      	str	r4, [r6, r2]
 80067fa:	3604      	adds	r6, #4
 80067fc:	e7a3      	b.n	8006746 <__multiply+0x7e>
 80067fe:	f858 3d04 	ldr.w	r3, [r8, #-4]!
 8006802:	2b00      	cmp	r3, #0
 8006804:	d1a5      	bne.n	8006752 <__multiply+0x8a>
 8006806:	3f01      	subs	r7, #1
 8006808:	e7a1      	b.n	800674e <__multiply+0x86>
 800680a:	bf00      	nop
 800680c:	0800829c 	.word	0x0800829c
 8006810:	0800832c 	.word	0x0800832c

08006814 <__pow5mult>:
 8006814:	e92d 43f8 	stmdb	sp!, {r3, r4, r5, r6, r7, r8, r9, lr}
 8006818:	4615      	mov	r5, r2
 800681a:	f012 0203 	ands.w	r2, r2, #3
 800681e:	4606      	mov	r6, r0
 8006820:	460f      	mov	r7, r1
 8006822:	d007      	beq.n	8006834 <__pow5mult+0x20>
 8006824:	4c25      	ldr	r4, [pc, #148]	; (80068bc <__pow5mult+0xa8>)
 8006826:	3a01      	subs	r2, #1
 8006828:	2300      	movs	r3, #0
 800682a:	f854 2022 	ldr.w	r2, [r4, r2, lsl #2]
 800682e:	f7ff fe51 	bl	80064d4 <__multadd>
 8006832:	4607      	mov	r7, r0
 8006834:	10ad      	asrs	r5, r5, #2
 8006836:	d03d      	beq.n	80068b4 <__pow5mult+0xa0>
 8006838:	6a74      	ldr	r4, [r6, #36]	; 0x24
 800683a:	b97c      	cbnz	r4, 800685c <__pow5mult+0x48>
 800683c:	2010      	movs	r0, #16
 800683e:	f7ff fdbf 	bl	80063c0 <malloc>
 8006842:	4602      	mov	r2, r0
 8006844:	6270      	str	r0, [r6, #36]	; 0x24
 8006846:	b928      	cbnz	r0, 8006854 <__pow5mult+0x40>
 8006848:	4b1d      	ldr	r3, [pc, #116]	; (80068c0 <__pow5mult+0xac>)
 800684a:	481e      	ldr	r0, [pc, #120]	; (80068c4 <__pow5mult+0xb0>)
 800684c:	f44f 71d7 	mov.w	r1, #430	; 0x1ae
 8006850:	f000 fce6 	bl	8007220 <__assert_func>
 8006854:	e9c0 4401 	strd	r4, r4, [r0, #4]
 8006858:	6004      	str	r4, [r0, #0]
 800685a:	60c4      	str	r4, [r0, #12]
 800685c:	f8d6 8024 	ldr.w	r8, [r6, #36]	; 0x24
 8006860:	f8d8 4008 	ldr.w	r4, [r8, #8]
 8006864:	b94c      	cbnz	r4, 800687a <__pow5mult+0x66>
 8006866:	f240 2171 	movw	r1, #625	; 0x271
 800686a:	4630      	mov	r0, r6
 800686c:	f7ff ff16 	bl	800669c <__i2b>
 8006870:	2300      	movs	r3, #0
 8006872:	f8c8 0008 	str.w	r0, [r8, #8]
 8006876:	4604      	mov	r4, r0
 8006878:	6003      	str	r3, [r0, #0]
 800687a:	f04f 0900 	mov.w	r9, #0
 800687e:	07eb      	lsls	r3, r5, #31
 8006880:	d50a      	bpl.n	8006898 <__pow5mult+0x84>
 8006882:	4639      	mov	r1, r7
 8006884:	4622      	mov	r2, r4
 8006886:	4630      	mov	r0, r6
 8006888:	f7ff ff1e 	bl	80066c8 <__multiply>
 800688c:	4639      	mov	r1, r7
 800688e:	4680      	mov	r8, r0
 8006890:	4630      	mov	r0, r6
 8006892:	f7ff fdfd 	bl	8006490 <_Bfree>
 8006896:	4647      	mov	r7, r8
 8006898:	106d      	asrs	r5, r5, #1
 800689a:	d00b      	beq.n	80068b4 <__pow5mult+0xa0>
 800689c:	6820      	ldr	r0, [r4, #0]
 800689e:	b938      	cbnz	r0, 80068b0 <__pow5mult+0x9c>
 80068a0:	4622      	mov	r2, r4
 80068a2:	4621      	mov	r1, r4
 80068a4:	4630      	mov	r0, r6
 80068a6:	f7ff ff0f 	bl	80066c8 <__multiply>
 80068aa:	6020      	str	r0, [r4, #0]
 80068ac:	f8c0 9000 	str.w	r9, [r0]
 80068b0:	4604      	mov	r4, r0
 80068b2:	e7e4      	b.n	800687e <__pow5mult+0x6a>
 80068b4:	4638      	mov	r0, r7
 80068b6:	e8bd 83f8 	ldmia.w	sp!, {r3, r4, r5, r6, r7, r8, r9, pc}
 80068ba:	bf00      	nop
 80068bc:	08008480 	.word	0x08008480
 80068c0:	08008226 	.word	0x08008226
 80068c4:	0800832c 	.word	0x0800832c

080068c8 <__lshift>:
 80068c8:	e92d 47f0 	stmdb	sp!, {r4, r5, r6, r7, r8, r9, sl, lr}
 80068cc:	460c      	mov	r4, r1
 80068ce:	6849      	ldr	r1, [r1, #4]
 80068d0:	6923      	ldr	r3, [r4, #16]
 80068d2:	eb03 1862 	add.w	r8, r3, r2, asr #5
 80068d6:	68a3      	ldr	r3, [r4, #8]
 80068d8:	4607      	mov	r7, r0
 80068da:	4691      	mov	r9, r2
 80068dc:	ea4f 1a62 	mov.w	sl, r2, asr #5
 80068e0:	f108 0601 	add.w	r6, r8, #1
 80068e4:	42b3      	cmp	r3, r6
 80068e6:	db0b      	blt.n	8006900 <__lshift+0x38>
 80068e8:	4638      	mov	r0, r7
 80068ea:	f7ff fd91 	bl	8006410 <_Balloc>
 80068ee:	4605      	mov	r5, r0
 80068f0:	b948      	cbnz	r0, 8006906 <__lshift+0x3e>
 80068f2:	4602      	mov	r2, r0
 80068f4:	4b28      	ldr	r3, [pc, #160]	; (8006998 <__lshift+0xd0>)
 80068f6:	4829      	ldr	r0, [pc, #164]	; (800699c <__lshift+0xd4>)
 80068f8:	f240 11d9 	movw	r1, #473	; 0x1d9
 80068fc:	f000 fc90 	bl	8007220 <__assert_func>
 8006900:	3101      	adds	r1, #1
 8006902:	005b      	lsls	r3, r3, #1
 8006904:	e7ee      	b.n	80068e4 <__lshift+0x1c>
 8006906:	2300      	movs	r3, #0
 8006908:	f100 0114 	add.w	r1, r0, #20
 800690c:	f100 0210 	add.w	r2, r0, #16
 8006910:	4618      	mov	r0, r3
 8006912:	4553      	cmp	r3, sl
 8006914:	db33      	blt.n	800697e <__lshift+0xb6>
 8006916:	6920      	ldr	r0, [r4, #16]
 8006918:	ea2a 7aea 	bic.w	sl, sl, sl, asr #31
 800691c:	f104 0314 	add.w	r3, r4, #20
 8006920:	f019 091f 	ands.w	r9, r9, #31
 8006924:	eb01 018a 	add.w	r1, r1, sl, lsl #2
 8006928:	eb03 0c80 	add.w	ip, r3, r0, lsl #2
 800692c:	d02b      	beq.n	8006986 <__lshift+0xbe>
 800692e:	f1c9 0e20 	rsb	lr, r9, #32
 8006932:	468a      	mov	sl, r1
 8006934:	2200      	movs	r2, #0
 8006936:	6818      	ldr	r0, [r3, #0]
 8006938:	fa00 f009 	lsl.w	r0, r0, r9
 800693c:	4302      	orrs	r2, r0
 800693e:	f84a 2b04 	str.w	r2, [sl], #4
 8006942:	f853 2b04 	ldr.w	r2, [r3], #4
 8006946:	459c      	cmp	ip, r3
 8006948:	fa22 f20e 	lsr.w	r2, r2, lr
 800694c:	d8f3      	bhi.n	8006936 <__lshift+0x6e>
 800694e:	ebac 0304 	sub.w	r3, ip, r4
 8006952:	3b15      	subs	r3, #21
 8006954:	f023 0303 	bic.w	r3, r3, #3
 8006958:	3304      	adds	r3, #4
 800695a:	f104 0015 	add.w	r0, r4, #21
 800695e:	4584      	cmp	ip, r0
 8006960:	bf38      	it	cc
 8006962:	2304      	movcc	r3, #4
 8006964:	50ca      	str	r2, [r1, r3]
 8006966:	b10a      	cbz	r2, 800696c <__lshift+0xa4>
 8006968:	f108 0602 	add.w	r6, r8, #2
 800696c:	3e01      	subs	r6, #1
 800696e:	4638      	mov	r0, r7
 8006970:	612e      	str	r6, [r5, #16]
 8006972:	4621      	mov	r1, r4
 8006974:	f7ff fd8c 	bl	8006490 <_Bfree>
 8006978:	4628      	mov	r0, r5
 800697a:	e8bd 87f0 	ldmia.w	sp!, {r4, r5, r6, r7, r8, r9, sl, pc}
 800697e:	f842 0f04 	str.w	r0, [r2, #4]!
 8006982:	3301      	adds	r3, #1
 8006984:	e7c5      	b.n	8006912 <__lshift+0x4a>
 8006986:	3904      	subs	r1, #4
 8006988:	f853 2b04 	ldr.w	r2, [r3], #4
 800698c:	f841 2f04 	str.w	r2, [r1, #4]!
 8006990:	459c      	cmp	ip, r3
 8006992:	d8f9      	bhi.n	8006988 <__lshift+0xc0>
 8006994:	e7ea      	b.n	800696c <__lshift+0xa4>
 8006996:	bf00      	nop
 8006998:	0800829c 	.word	0x0800829c
 800699c:	0800832c 	.word	0x0800832c

080069a0 <__mcmp>:
 80069a0:	b530      	push	{r4, r5, lr}
 80069a2:	6902      	ldr	r2, [r0, #16]
 80069a4:	690c      	ldr	r4, [r1, #16]
 80069a6:	1b12      	subs	r2, r2, r4
 80069a8:	d10e      	bne.n	80069c8 <__mcmp+0x28>
 80069aa:	f100 0314 	add.w	r3, r0, #20
 80069ae:	3114      	adds	r1, #20
 80069b0:	eb03 0084 	add.w	r0, r3, r4, lsl #2
 80069b4:	eb01 0184 	add.w	r1, r1, r4, lsl #2
 80069b8:	f850 5d04 	ldr.w	r5, [r0, #-4]!
 80069bc:	f851 4d04 	ldr.w	r4, [r1, #-4]!
 80069c0:	42a5      	cmp	r5, r4
 80069c2:	d003      	beq.n	80069cc <__mcmp+0x2c>
 80069c4:	d305      	bcc.n	80069d2 <__mcmp+0x32>
 80069c6:	2201      	movs	r2, #1
 80069c8:	4610      	mov	r0, r2
 80069ca:	bd30      	pop	{r4, r5, pc}
 80069cc:	4283      	cmp	r3, r0
 80069ce:	d3f3      	bcc.n	80069b8 <__mcmp+0x18>
 80069d0:	e7fa      	b.n	80069c8 <__mcmp+0x28>
 80069d2:	f04f 32ff 	mov.w	r2, #4294967295
 80069d6:	e7f7      	b.n	80069c8 <__mcmp+0x28>

080069d8 <__mdiff>:
 80069d8:	e92d 4ff8 	stmdb	sp!, {r3, r4, r5, r6, r7, r8, r9, sl, fp, lr}
 80069dc:	460c      	mov	r4, r1
 80069de:	4606      	mov	r6, r0
 80069e0:	4611      	mov	r1, r2
 80069e2:	4620      	mov	r0, r4
 80069e4:	4617      	mov	r7, r2
 80069e6:	f7ff ffdb 	bl	80069a0 <__mcmp>
 80069ea:	1e05      	subs	r5, r0, #0
 80069ec:	d110      	bne.n	8006a10 <__mdiff+0x38>
 80069ee:	4629      	mov	r1, r5
 80069f0:	4630      	mov	r0, r6
 80069f2:	f7ff fd0d 	bl	8006410 <_Balloc>
 80069f6:	b930      	cbnz	r0, 8006a06 <__mdiff+0x2e>
 80069f8:	4b39      	ldr	r3, [pc, #228]	; (8006ae0 <__mdiff+0x108>)
 80069fa:	4602      	mov	r2, r0
 80069fc:	f240 2132 	movw	r1, #562	; 0x232
 8006a00:	4838      	ldr	r0, [pc, #224]	; (8006ae4 <__mdiff+0x10c>)
 8006a02:	f000 fc0d 	bl	8007220 <__assert_func>
 8006a06:	2301      	movs	r3, #1
 8006a08:	e9c0 3504 	strd	r3, r5, [r0, #16]
 8006a0c:	e8bd 8ff8 	ldmia.w	sp!, {r3, r4, r5, r6, r7, r8, r9, sl, fp, pc}
 8006a10:	bfa4      	itt	ge
 8006a12:	463b      	movge	r3, r7
 8006a14:	4627      	movge	r7, r4
 8006a16:	4630      	mov	r0, r6
 8006a18:	6879      	ldr	r1, [r7, #4]
 8006a1a:	bfa6      	itte	ge
 8006a1c:	461c      	movge	r4, r3
 8006a1e:	2500      	movge	r5, #0
 8006a20:	2501      	movlt	r5, #1
 8006a22:	f7ff fcf5 	bl	8006410 <_Balloc>
 8006a26:	b920      	cbnz	r0, 8006a32 <__mdiff+0x5a>
 8006a28:	4b2d      	ldr	r3, [pc, #180]	; (8006ae0 <__mdiff+0x108>)
 8006a2a:	4602      	mov	r2, r0
 8006a2c:	f44f 7110 	mov.w	r1, #576	; 0x240
 8006a30:	e7e6      	b.n	8006a00 <__mdiff+0x28>
 8006a32:	693e      	ldr	r6, [r7, #16]
 8006a34:	60c5      	str	r5, [r0, #12]
 8006a36:	6925      	ldr	r5, [r4, #16]
 8006a38:	f107 0114 	add.w	r1, r7, #20
 8006a3c:	f104 0914 	add.w	r9, r4, #20
 8006a40:	f100 0e14 	add.w	lr, r0, #20
 8006a44:	f107 0210 	add.w	r2, r7, #16
 8006a48:	eb01 0c86 	add.w	ip, r1, r6, lsl #2
 8006a4c:	eb09 0585 	add.w	r5, r9, r5, lsl #2
 8006a50:	46f2      	mov	sl, lr
 8006a52:	2700      	movs	r7, #0
 8006a54:	f859 3b04 	ldr.w	r3, [r9], #4
 8006a58:	f852 bf04 	ldr.w	fp, [r2, #4]!
 8006a5c:	fa1f f883 	uxth.w	r8, r3
 8006a60:	fa17 f78b 	uxtah	r7, r7, fp
 8006a64:	0c1b      	lsrs	r3, r3, #16
 8006a66:	eba7 0808 	sub.w	r8, r7, r8
 8006a6a:	ebc3 431b 	rsb	r3, r3, fp, lsr #16
 8006a6e:	eb03 4328 	add.w	r3, r3, r8, asr #16
 8006a72:	fa1f f888 	uxth.w	r8, r8
 8006a76:	141f      	asrs	r7, r3, #16
 8006a78:	454d      	cmp	r5, r9
 8006a7a:	ea48 4303 	orr.w	r3, r8, r3, lsl #16
 8006a7e:	f84a 3b04 	str.w	r3, [sl], #4
 8006a82:	d8e7      	bhi.n	8006a54 <__mdiff+0x7c>
 8006a84:	1b2b      	subs	r3, r5, r4
 8006a86:	3b15      	subs	r3, #21
 8006a88:	f023 0303 	bic.w	r3, r3, #3
 8006a8c:	3304      	adds	r3, #4
 8006a8e:	3415      	adds	r4, #21
 8006a90:	42a5      	cmp	r5, r4
 8006a92:	bf38      	it	cc
 8006a94:	2304      	movcc	r3, #4
 8006a96:	4419      	add	r1, r3
 8006a98:	4473      	add	r3, lr
 8006a9a:	469e      	mov	lr, r3
 8006a9c:	460d      	mov	r5, r1
 8006a9e:	4565      	cmp	r5, ip
 8006aa0:	d30e      	bcc.n	8006ac0 <__mdiff+0xe8>
 8006aa2:	f10c 0203 	add.w	r2, ip, #3
 8006aa6:	1a52      	subs	r2, r2, r1
 8006aa8:	f022 0203 	bic.w	r2, r2, #3
 8006aac:	3903      	subs	r1, #3
 8006aae:	458c      	cmp	ip, r1
 8006ab0:	bf38      	it	cc
 8006ab2:	2200      	movcc	r2, #0
 8006ab4:	441a      	add	r2, r3
 8006ab6:	f852 3d04 	ldr.w	r3, [r2, #-4]!
 8006aba:	b17b      	cbz	r3, 8006adc <__mdiff+0x104>
 8006abc:	6106      	str	r6, [r0, #16]
 8006abe:	e7a5      	b.n	8006a0c <__mdiff+0x34>
 8006ac0:	f855 8b04 	ldr.w	r8, [r5], #4
 8006ac4:	fa17 f488 	uxtah	r4, r7, r8
 8006ac8:	1422      	asrs	r2, r4, #16
 8006aca:	eb02 4218 	add.w	r2, r2, r8, lsr #16
 8006ace:	b2a4      	uxth	r4, r4
 8006ad0:	ea44 4402 	orr.w	r4, r4, r2, lsl #16
 8006ad4:	f84e 4b04 	str.w	r4, [lr], #4
 8006ad8:	1417      	asrs	r7, r2, #16
 8006ada:	e7e0      	b.n	8006a9e <__mdiff+0xc6>
 8006adc:	3e01      	subs	r6, #1
 8006ade:	e7ea      	b.n	8006ab6 <__mdiff+0xde>
 8006ae0:	0800829c 	.word	0x0800829c
 8006ae4:	0800832c 	.word	0x0800832c

08006ae8 <__ulp>:
 8006ae8:	b082      	sub	sp, #8
 8006aea:	ed8d 0b00 	vstr	d0, [sp]
 8006aee:	9b01      	ldr	r3, [sp, #4]
 8006af0:	4912      	ldr	r1, [pc, #72]	; (8006b3c <__ulp+0x54>)
 8006af2:	4019      	ands	r1, r3
 8006af4:	f1a1 7150 	sub.w	r1, r1, #54525952	; 0x3400000
 8006af8:	2900      	cmp	r1, #0
 8006afa:	dd05      	ble.n	8006b08 <__ulp+0x20>
 8006afc:	2200      	movs	r2, #0
 8006afe:	460b      	mov	r3, r1
 8006b00:	ec43 2b10 	vmov	d0, r2, r3
 8006b04:	b002      	add	sp, #8
 8006b06:	4770      	bx	lr
 8006b08:	4249      	negs	r1, r1
 8006b0a:	f1b1 7fa0 	cmp.w	r1, #20971520	; 0x1400000
 8006b0e:	ea4f 5021 	mov.w	r0, r1, asr #20
 8006b12:	f04f 0200 	mov.w	r2, #0
 8006b16:	f04f 0300 	mov.w	r3, #0
 8006b1a:	da04      	bge.n	8006b26 <__ulp+0x3e>
 8006b1c:	f44f 2100 	mov.w	r1, #524288	; 0x80000
 8006b20:	fa41 f300 	asr.w	r3, r1, r0
 8006b24:	e7ec      	b.n	8006b00 <__ulp+0x18>
 8006b26:	f1a0 0114 	sub.w	r1, r0, #20
 8006b2a:	291e      	cmp	r1, #30
 8006b2c:	bfda      	itte	le
 8006b2e:	f04f 4000 	movle.w	r0, #2147483648	; 0x80000000
 8006b32:	fa20 f101 	lsrle.w	r1, r0, r1
 8006b36:	2101      	movgt	r1, #1
 8006b38:	460a      	mov	r2, r1
 8006b3a:	e7e1      	b.n	8006b00 <__ulp+0x18>
 8006b3c:	7ff00000 	.word	0x7ff00000

08006b40 <__b2d>:
 8006b40:	b5f8      	push	{r3, r4, r5, r6, r7, lr}
 8006b42:	6905      	ldr	r5, [r0, #16]
 8006b44:	f100 0714 	add.w	r7, r0, #20
 8006b48:	eb07 0585 	add.w	r5, r7, r5, lsl #2
 8006b4c:	1f2e      	subs	r6, r5, #4
 8006b4e:	f855 4c04 	ldr.w	r4, [r5, #-4]
 8006b52:	4620      	mov	r0, r4
 8006b54:	f7ff fd52 	bl	80065fc <__hi0bits>
 8006b58:	f1c0 0320 	rsb	r3, r0, #32
 8006b5c:	280a      	cmp	r0, #10
 8006b5e:	f8df c07c 	ldr.w	ip, [pc, #124]	; 8006bdc <__b2d+0x9c>
 8006b62:	600b      	str	r3, [r1, #0]
 8006b64:	dc14      	bgt.n	8006b90 <__b2d+0x50>
 8006b66:	f1c0 0e0b 	rsb	lr, r0, #11
 8006b6a:	fa24 f10e 	lsr.w	r1, r4, lr
 8006b6e:	42b7      	cmp	r7, r6
 8006b70:	ea41 030c 	orr.w	r3, r1, ip
 8006b74:	bf34      	ite	cc
 8006b76:	f855 1c08 	ldrcc.w	r1, [r5, #-8]
 8006b7a:	2100      	movcs	r1, #0
 8006b7c:	3015      	adds	r0, #21
 8006b7e:	fa04 f000 	lsl.w	r0, r4, r0
 8006b82:	fa21 f10e 	lsr.w	r1, r1, lr
 8006b86:	ea40 0201 	orr.w	r2, r0, r1
 8006b8a:	ec43 2b10 	vmov	d0, r2, r3
 8006b8e:	bdf8      	pop	{r3, r4, r5, r6, r7, pc}
 8006b90:	42b7      	cmp	r7, r6
 8006b92:	bf3a      	itte	cc
 8006b94:	f855 1c08 	ldrcc.w	r1, [r5, #-8]
 8006b98:	f1a5 0608 	subcc.w	r6, r5, #8
 8006b9c:	2100      	movcs	r1, #0
 8006b9e:	380b      	subs	r0, #11
 8006ba0:	d017      	beq.n	8006bd2 <__b2d+0x92>
 8006ba2:	f1c0 0c20 	rsb	ip, r0, #32
 8006ba6:	fa04 f500 	lsl.w	r5, r4, r0
 8006baa:	42be      	cmp	r6, r7
 8006bac:	fa21 f40c 	lsr.w	r4, r1, ip
 8006bb0:	ea45 0504 	orr.w	r5, r5, r4
 8006bb4:	bf8c      	ite	hi
 8006bb6:	f856 4c04 	ldrhi.w	r4, [r6, #-4]
 8006bba:	2400      	movls	r4, #0
 8006bbc:	f045 537f 	orr.w	r3, r5, #1069547520	; 0x3fc00000
 8006bc0:	fa01 f000 	lsl.w	r0, r1, r0
 8006bc4:	fa24 f40c 	lsr.w	r4, r4, ip
 8006bc8:	f443 1340 	orr.w	r3, r3, #3145728	; 0x300000
 8006bcc:	ea40 0204 	orr.w	r2, r0, r4
 8006bd0:	e7db      	b.n	8006b8a <__b2d+0x4a>
 8006bd2:	ea44 030c 	orr.w	r3, r4, ip
 8006bd6:	460a      	mov	r2, r1
 8006bd8:	e7d7      	b.n	8006b8a <__b2d+0x4a>
 8006bda:	bf00      	nop
 8006bdc:	3ff00000 	.word	0x3ff00000

08006be0 <__d2b>:
 8006be0:	e92d 43f7 	stmdb	sp!, {r0, r1, r2, r4, r5, r6, r7, r8, r9, lr}
 8006be4:	4689      	mov	r9, r1
 8006be6:	2101      	movs	r1, #1
 8006be8:	ec57 6b10 	vmov	r6, r7, d0
 8006bec:	4690      	mov	r8, r2
 8006bee:	f7ff fc0f 	bl	8006410 <_Balloc>
 8006bf2:	4604      	mov	r4, r0
 8006bf4:	b930      	cbnz	r0, 8006c04 <__d2b+0x24>
 8006bf6:	4602      	mov	r2, r0
 8006bf8:	4b25      	ldr	r3, [pc, #148]	; (8006c90 <__d2b+0xb0>)
 8006bfa:	4826      	ldr	r0, [pc, #152]	; (8006c94 <__d2b+0xb4>)
 8006bfc:	f240 310a 	movw	r1, #778	; 0x30a
 8006c00:	f000 fb0e 	bl	8007220 <__assert_func>
 8006c04:	f3c7 550a 	ubfx	r5, r7, #20, #11
 8006c08:	f3c7 0313 	ubfx	r3, r7, #0, #20
 8006c0c:	bb35      	cbnz	r5, 8006c5c <__d2b+0x7c>
 8006c0e:	2e00      	cmp	r6, #0
 8006c10:	9301      	str	r3, [sp, #4]
 8006c12:	d028      	beq.n	8006c66 <__d2b+0x86>
 8006c14:	4668      	mov	r0, sp
 8006c16:	9600      	str	r6, [sp, #0]
 8006c18:	f7ff fd10 	bl	800663c <__lo0bits>
 8006c1c:	9900      	ldr	r1, [sp, #0]
 8006c1e:	b300      	cbz	r0, 8006c62 <__d2b+0x82>
 8006c20:	9a01      	ldr	r2, [sp, #4]
 8006c22:	f1c0 0320 	rsb	r3, r0, #32
 8006c26:	fa02 f303 	lsl.w	r3, r2, r3
 8006c2a:	430b      	orrs	r3, r1
 8006c2c:	40c2      	lsrs	r2, r0
 8006c2e:	6163      	str	r3, [r4, #20]
 8006c30:	9201      	str	r2, [sp, #4]
 8006c32:	9b01      	ldr	r3, [sp, #4]
 8006c34:	61a3      	str	r3, [r4, #24]
 8006c36:	2b00      	cmp	r3, #0
 8006c38:	bf14      	ite	ne
 8006c3a:	2202      	movne	r2, #2
 8006c3c:	2201      	moveq	r2, #1
 8006c3e:	6122      	str	r2, [r4, #16]
 8006c40:	b1d5      	cbz	r5, 8006c78 <__d2b+0x98>
 8006c42:	f2a5 4533 	subw	r5, r5, #1075	; 0x433
 8006c46:	4405      	add	r5, r0
 8006c48:	f8c9 5000 	str.w	r5, [r9]
 8006c4c:	f1c0 0035 	rsb	r0, r0, #53	; 0x35
 8006c50:	f8c8 0000 	str.w	r0, [r8]
 8006c54:	4620      	mov	r0, r4
 8006c56:	b003      	add	sp, #12
 8006c58:	e8bd 83f0 	ldmia.w	sp!, {r4, r5, r6, r7, r8, r9, pc}
 8006c5c:	f443 1380 	orr.w	r3, r3, #1048576	; 0x100000
 8006c60:	e7d5      	b.n	8006c0e <__d2b+0x2e>
 8006c62:	6161      	str	r1, [r4, #20]
 8006c64:	e7e5      	b.n	8006c32 <__d2b+0x52>
 8006c66:	a801      	add	r0, sp, #4
 8006c68:	f7ff fce8 	bl	800663c <__lo0bits>
 8006c6c:	9b01      	ldr	r3, [sp, #4]
 8006c6e:	6163      	str	r3, [r4, #20]
 8006c70:	2201      	movs	r2, #1
 8006c72:	6122      	str	r2, [r4, #16]
 8006c74:	3020      	adds	r0, #32
 8006c76:	e7e3      	b.n	8006c40 <__d2b+0x60>
 8006c78:	eb04 0382 	add.w	r3, r4, r2, lsl #2
 8006c7c:	f2a0 4032 	subw	r0, r0, #1074	; 0x432
 8006c80:	f8c9 0000 	str.w	r0, [r9]
 8006c84:	6918      	ldr	r0, [r3, #16]
 8006c86:	f7ff fcb9 	bl	80065fc <__hi0bits>
 8006c8a:	ebc0 1042 	rsb	r0, r0, r2, lsl #5
 8006c8e:	e7df      	b.n	8006c50 <__d2b+0x70>
 8006c90:	0800829c 	.word	0x0800829c
 8006c94:	0800832c 	.word	0x0800832c

08006c98 <__ratio>:
 8006c98:	e92d 4ff7 	stmdb	sp!, {r0, r1, r2, r4, r5, r6, r7, r8, r9, sl, fp, lr}
 8006c9c:	4688      	mov	r8, r1
 8006c9e:	4669      	mov	r1, sp
 8006ca0:	4681      	mov	r9, r0
 8006ca2:	f7ff ff4d 	bl	8006b40 <__b2d>
 8006ca6:	a901      	add	r1, sp, #4
 8006ca8:	4640      	mov	r0, r8
 8006caa:	ec55 4b10 	vmov	r4, r5, d0
 8006cae:	f7ff ff47 	bl	8006b40 <__b2d>
 8006cb2:	f8d9 3010 	ldr.w	r3, [r9, #16]
 8006cb6:	f8d8 2010 	ldr.w	r2, [r8, #16]
 8006cba:	eba3 0c02 	sub.w	ip, r3, r2
 8006cbe:	e9dd 3200 	ldrd	r3, r2, [sp]
 8006cc2:	1a9b      	subs	r3, r3, r2
 8006cc4:	eb03 134c 	add.w	r3, r3, ip, lsl #5
 8006cc8:	ec51 0b10 	vmov	r0, r1, d0
 8006ccc:	2b00      	cmp	r3, #0
 8006cce:	bfd6      	itet	le
 8006cd0:	460a      	movle	r2, r1
 8006cd2:	462a      	movgt	r2, r5
 8006cd4:	ebc3 3303 	rsble	r3, r3, r3, lsl #12
 8006cd8:	468b      	mov	fp, r1
 8006cda:	462f      	mov	r7, r5
 8006cdc:	bfd4      	ite	le
 8006cde:	eb02 5b03 	addle.w	fp, r2, r3, lsl #20
 8006ce2:	eb02 5703 	addgt.w	r7, r2, r3, lsl #20
 8006ce6:	4620      	mov	r0, r4
 8006ce8:	ee10 2a10 	vmov	r2, s0
 8006cec:	465b      	mov	r3, fp
 8006cee:	4639      	mov	r1, r7
 8006cf0:	f7f9 fdb4 	bl	800085c <__aeabi_ddiv>
 8006cf4:	ec41 0b10 	vmov	d0, r0, r1
 8006cf8:	b003      	add	sp, #12
 8006cfa:	e8bd 8ff0 	ldmia.w	sp!, {r4, r5, r6, r7, r8, r9, sl, fp, pc}

08006cfe <__copybits>:
 8006cfe:	3901      	subs	r1, #1
 8006d00:	b570      	push	{r4, r5, r6, lr}
 8006d02:	1149      	asrs	r1, r1, #5
 8006d04:	6914      	ldr	r4, [r2, #16]
 8006d06:	3101      	adds	r1, #1
 8006d08:	f102 0314 	add.w	r3, r2, #20
 8006d0c:	eb00 0181 	add.w	r1, r0, r1, lsl #2
 8006d10:	eb03 0484 	add.w	r4, r3, r4, lsl #2
 8006d14:	1f05      	subs	r5, r0, #4
 8006d16:	42a3      	cmp	r3, r4
 8006d18:	d30c      	bcc.n	8006d34 <__copybits+0x36>
 8006d1a:	1aa3      	subs	r3, r4, r2
 8006d1c:	3b11      	subs	r3, #17
 8006d1e:	f023 0303 	bic.w	r3, r3, #3
 8006d22:	3211      	adds	r2, #17
 8006d24:	42a2      	cmp	r2, r4
 8006d26:	bf88      	it	hi
 8006d28:	2300      	movhi	r3, #0
 8006d2a:	4418      	add	r0, r3
 8006d2c:	2300      	movs	r3, #0
 8006d2e:	4288      	cmp	r0, r1
 8006d30:	d305      	bcc.n	8006d3e <__copybits+0x40>
 8006d32:	bd70      	pop	{r4, r5, r6, pc}
 8006d34:	f853 6b04 	ldr.w	r6, [r3], #4
 8006d38:	f845 6f04 	str.w	r6, [r5, #4]!
 8006d3c:	e7eb      	b.n	8006d16 <__copybits+0x18>
 8006d3e:	f840 3b04 	str.w	r3, [r0], #4
 8006d42:	e7f4      	b.n	8006d2e <__copybits+0x30>

08006d44 <__any_on>:
 8006d44:	f100 0214 	add.w	r2, r0, #20
 8006d48:	6900      	ldr	r0, [r0, #16]
 8006d4a:	114b      	asrs	r3, r1, #5
 8006d4c:	4298      	cmp	r0, r3
 8006d4e:	b510      	push	{r4, lr}
 8006d50:	db11      	blt.n	8006d76 <__any_on+0x32>
 8006d52:	dd0a      	ble.n	8006d6a <__any_on+0x26>
 8006d54:	f011 011f 	ands.w	r1, r1, #31
 8006d58:	d007      	beq.n	8006d6a <__any_on+0x26>
 8006d5a:	f852 4023 	ldr.w	r4, [r2, r3, lsl #2]
 8006d5e:	fa24 f001 	lsr.w	r0, r4, r1
 8006d62:	fa00 f101 	lsl.w	r1, r0, r1
 8006d66:	428c      	cmp	r4, r1
 8006d68:	d10b      	bne.n	8006d82 <__any_on+0x3e>
 8006d6a:	eb02 0383 	add.w	r3, r2, r3, lsl #2
 8006d6e:	4293      	cmp	r3, r2
 8006d70:	d803      	bhi.n	8006d7a <__any_on+0x36>
 8006d72:	2000      	movs	r0, #0
 8006d74:	bd10      	pop	{r4, pc}
 8006d76:	4603      	mov	r3, r0
 8006d78:	e7f7      	b.n	8006d6a <__any_on+0x26>
 8006d7a:	f853 1d04 	ldr.w	r1, [r3, #-4]!
 8006d7e:	2900      	cmp	r1, #0
 8006d80:	d0f5      	beq.n	8006d6e <__any_on+0x2a>
 8006d82:	2001      	movs	r0, #1
 8006d84:	e7f6      	b.n	8006d74 <__any_on+0x30>

08006d86 <_calloc_r>:
 8006d86:	b513      	push	{r0, r1, r4, lr}
 8006d88:	434a      	muls	r2, r1
 8006d8a:	4611      	mov	r1, r2
 8006d8c:	9201      	str	r2, [sp, #4]
 8006d8e:	f000 f859 	bl	8006e44 <_malloc_r>
 8006d92:	4604      	mov	r4, r0
 8006d94:	b118      	cbz	r0, 8006d9e <_calloc_r+0x18>
 8006d96:	9a01      	ldr	r2, [sp, #4]
 8006d98:	2100      	movs	r1, #0
 8006d9a:	f7fc fb91 	bl	80034c0 <memset>
 8006d9e:	4620      	mov	r0, r4
 8006da0:	b002      	add	sp, #8
 8006da2:	bd10      	pop	{r4, pc}

08006da4 <_free_r>:
 8006da4:	b537      	push	{r0, r1, r2, r4, r5, lr}
 8006da6:	2900      	cmp	r1, #0
 8006da8:	d048      	beq.n	8006e3c <_free_r+0x98>
 8006daa:	f851 3c04 	ldr.w	r3, [r1, #-4]
 8006dae:	9001      	str	r0, [sp, #4]
 8006db0:	2b00      	cmp	r3, #0
 8006db2:	f1a1 0404 	sub.w	r4, r1, #4
 8006db6:	bfb8      	it	lt
 8006db8:	18e4      	addlt	r4, r4, r3
 8006dba:	f000 fa7b 	bl	80072b4 <__malloc_lock>
 8006dbe:	4a20      	ldr	r2, [pc, #128]	; (8006e40 <_free_r+0x9c>)
 8006dc0:	9801      	ldr	r0, [sp, #4]
 8006dc2:	6813      	ldr	r3, [r2, #0]
 8006dc4:	4615      	mov	r5, r2
 8006dc6:	b933      	cbnz	r3, 8006dd6 <_free_r+0x32>
 8006dc8:	6063      	str	r3, [r4, #4]
 8006dca:	6014      	str	r4, [r2, #0]
 8006dcc:	b003      	add	sp, #12
 8006dce:	e8bd 4030 	ldmia.w	sp!, {r4, r5, lr}
 8006dd2:	f000 ba75 	b.w	80072c0 <__malloc_unlock>
 8006dd6:	42a3      	cmp	r3, r4
 8006dd8:	d90b      	bls.n	8006df2 <_free_r+0x4e>
 8006dda:	6821      	ldr	r1, [r4, #0]
 8006ddc:	1862      	adds	r2, r4, r1
 8006dde:	4293      	cmp	r3, r2
 8006de0:	bf04      	itt	eq
 8006de2:	681a      	ldreq	r2, [r3, #0]
 8006de4:	685b      	ldreq	r3, [r3, #4]
 8006de6:	6063      	str	r3, [r4, #4]
 8006de8:	bf04      	itt	eq
 8006dea:	1852      	addeq	r2, r2, r1
 8006dec:	6022      	streq	r2, [r4, #0]
 8006dee:	602c      	str	r4, [r5, #0]
 8006df0:	e7ec      	b.n	8006dcc <_free_r+0x28>
 8006df2:	461a      	mov	r2, r3
 8006df4:	685b      	ldr	r3, [r3, #4]
 8006df6:	b10b      	cbz	r3, 8006dfc <_free_r+0x58>
 8006df8:	42a3      	cmp	r3, r4
 8006dfa:	d9fa      	bls.n	8006df2 <_free_r+0x4e>
 8006dfc:	6811      	ldr	r1, [r2, #0]
 8006dfe:	1855      	adds	r5, r2, r1
 8006e00:	42a5      	cmp	r5, r4
 8006e02:	d10b      	bne.n	8006e1c <_free_r+0x78>
 8006e04:	6824      	ldr	r4, [r4, #0]
 8006e06:	4421      	add	r1, r4
 8006e08:	1854      	adds	r4, r2, r1
 8006e0a:	42a3      	cmp	r3, r4
 8006e0c:	6011      	str	r1, [r2, #0]
 8006e0e:	d1dd      	bne.n	8006dcc <_free_r+0x28>
 8006e10:	681c      	ldr	r4, [r3, #0]
 8006e12:	685b      	ldr	r3, [r3, #4]
 8006e14:	6053      	str	r3, [r2, #4]
 8006e16:	4421      	add	r1, r4
 8006e18:	6011      	str	r1, [r2, #0]
 8006e1a:	e7d7      	b.n	8006dcc <_free_r+0x28>
 8006e1c:	d902      	bls.n	8006e24 <_free_r+0x80>
 8006e1e:	230c      	movs	r3, #12
 8006e20:	6003      	str	r3, [r0, #0]
 8006e22:	e7d3      	b.n	8006dcc <_free_r+0x28>
 8006e24:	6825      	ldr	r5, [r4, #0]
 8006e26:	1961      	adds	r1, r4, r5
 8006e28:	428b      	cmp	r3, r1
 8006e2a:	bf04      	itt	eq
 8006e2c:	6819      	ldreq	r1, [r3, #0]
 8006e2e:	685b      	ldreq	r3, [r3, #4]
 8006e30:	6063      	str	r3, [r4, #4]
 8006e32:	bf04      	itt	eq
 8006e34:	1949      	addeq	r1, r1, r5
 8006e36:	6021      	streq	r1, [r4, #0]
 8006e38:	6054      	str	r4, [r2, #4]
 8006e3a:	e7c7      	b.n	8006dcc <_free_r+0x28>
 8006e3c:	b003      	add	sp, #12
 8006e3e:	bd30      	pop	{r4, r5, pc}
 8006e40:	20000210 	.word	0x20000210

08006e44 <_malloc_r>:
 8006e44:	b5f8      	push	{r3, r4, r5, r6, r7, lr}
 8006e46:	1ccd      	adds	r5, r1, #3
 8006e48:	f025 0503 	bic.w	r5, r5, #3
 8006e4c:	3508      	adds	r5, #8
 8006e4e:	2d0c      	cmp	r5, #12
 8006e50:	bf38      	it	cc
 8006e52:	250c      	movcc	r5, #12
 8006e54:	2d00      	cmp	r5, #0
 8006e56:	4606      	mov	r6, r0
 8006e58:	db01      	blt.n	8006e5e <_malloc_r+0x1a>
 8006e5a:	42a9      	cmp	r1, r5
 8006e5c:	d903      	bls.n	8006e66 <_malloc_r+0x22>
 8006e5e:	230c      	movs	r3, #12
 8006e60:	6033      	str	r3, [r6, #0]
 8006e62:	2000      	movs	r0, #0
 8006e64:	bdf8      	pop	{r3, r4, r5, r6, r7, pc}
 8006e66:	f000 fa25 	bl	80072b4 <__malloc_lock>
 8006e6a:	4921      	ldr	r1, [pc, #132]	; (8006ef0 <_malloc_r+0xac>)
 8006e6c:	680a      	ldr	r2, [r1, #0]
 8006e6e:	4614      	mov	r4, r2
 8006e70:	b99c      	cbnz	r4, 8006e9a <_malloc_r+0x56>
 8006e72:	4f20      	ldr	r7, [pc, #128]	; (8006ef4 <_malloc_r+0xb0>)
 8006e74:	683b      	ldr	r3, [r7, #0]
 8006e76:	b923      	cbnz	r3, 8006e82 <_malloc_r+0x3e>
 8006e78:	4621      	mov	r1, r4
 8006e7a:	4630      	mov	r0, r6
 8006e7c:	f000 f9a0 	bl	80071c0 <_sbrk_r>
 8006e80:	6038      	str	r0, [r7, #0]
 8006e82:	4629      	mov	r1, r5
 8006e84:	4630      	mov	r0, r6
 8006e86:	f000 f99b 	bl	80071c0 <_sbrk_r>
 8006e8a:	1c43      	adds	r3, r0, #1
 8006e8c:	d123      	bne.n	8006ed6 <_malloc_r+0x92>
 8006e8e:	230c      	movs	r3, #12
 8006e90:	6033      	str	r3, [r6, #0]
 8006e92:	4630      	mov	r0, r6
 8006e94:	f000 fa14 	bl	80072c0 <__malloc_unlock>
 8006e98:	e7e3      	b.n	8006e62 <_malloc_r+0x1e>
 8006e9a:	6823      	ldr	r3, [r4, #0]
 8006e9c:	1b5b      	subs	r3, r3, r5
 8006e9e:	d417      	bmi.n	8006ed0 <_malloc_r+0x8c>
 8006ea0:	2b0b      	cmp	r3, #11
 8006ea2:	d903      	bls.n	8006eac <_malloc_r+0x68>
 8006ea4:	6023      	str	r3, [r4, #0]
 8006ea6:	441c      	add	r4, r3
 8006ea8:	6025      	str	r5, [r4, #0]
 8006eaa:	e004      	b.n	8006eb6 <_malloc_r+0x72>
 8006eac:	6863      	ldr	r3, [r4, #4]
 8006eae:	42a2      	cmp	r2, r4
 8006eb0:	bf0c      	ite	eq
 8006eb2:	600b      	streq	r3, [r1, #0]
 8006eb4:	6053      	strne	r3, [r2, #4]
 8006eb6:	4630      	mov	r0, r6
 8006eb8:	f000 fa02 	bl	80072c0 <__malloc_unlock>
 8006ebc:	f104 000b 	add.w	r0, r4, #11
 8006ec0:	1d23      	adds	r3, r4, #4
 8006ec2:	f020 0007 	bic.w	r0, r0, #7
 8006ec6:	1ac2      	subs	r2, r0, r3
 8006ec8:	d0cc      	beq.n	8006e64 <_malloc_r+0x20>
 8006eca:	1a1b      	subs	r3, r3, r0
 8006ecc:	50a3      	str	r3, [r4, r2]
 8006ece:	e7c9      	b.n	8006e64 <_malloc_r+0x20>
 8006ed0:	4622      	mov	r2, r4
 8006ed2:	6864      	ldr	r4, [r4, #4]
 8006ed4:	e7cc      	b.n	8006e70 <_malloc_r+0x2c>
 8006ed6:	1cc4      	adds	r4, r0, #3
 8006ed8:	f024 0403 	bic.w	r4, r4, #3
 8006edc:	42a0      	cmp	r0, r4
 8006ede:	d0e3      	beq.n	8006ea8 <_malloc_r+0x64>
 8006ee0:	1a21      	subs	r1, r4, r0
 8006ee2:	4630      	mov	r0, r6
 8006ee4:	f000 f96c 	bl	80071c0 <_sbrk_r>
 8006ee8:	3001      	adds	r0, #1
 8006eea:	d1dd      	bne.n	8006ea8 <_malloc_r+0x64>
 8006eec:	e7cf      	b.n	8006e8e <_malloc_r+0x4a>
 8006eee:	bf00      	nop
 8006ef0:	20000210 	.word	0x20000210
 8006ef4:	20000214 	.word	0x20000214

08006ef8 <__ssputs_r>:
 8006ef8:	e92d 47f0 	stmdb	sp!, {r4, r5, r6, r7, r8, r9, sl, lr}
 8006efc:	688e      	ldr	r6, [r1, #8]
 8006efe:	429e      	cmp	r6, r3
 8006f00:	4682      	mov	sl, r0
 8006f02:	460c      	mov	r4, r1
 8006f04:	4690      	mov	r8, r2
 8006f06:	461f      	mov	r7, r3
 8006f08:	d838      	bhi.n	8006f7c <__ssputs_r+0x84>
 8006f0a:	898a      	ldrh	r2, [r1, #12]
 8006f0c:	f412 6f90 	tst.w	r2, #1152	; 0x480
 8006f10:	d032      	beq.n	8006f78 <__ssputs_r+0x80>
 8006f12:	6825      	ldr	r5, [r4, #0]
 8006f14:	6909      	ldr	r1, [r1, #16]
 8006f16:	eba5 0901 	sub.w	r9, r5, r1
 8006f1a:	6965      	ldr	r5, [r4, #20]
 8006f1c:	eb05 0545 	add.w	r5, r5, r5, lsl #1
 8006f20:	eb05 75d5 	add.w	r5, r5, r5, lsr #31
 8006f24:	3301      	adds	r3, #1
 8006f26:	444b      	add	r3, r9
 8006f28:	106d      	asrs	r5, r5, #1
 8006f2a:	429d      	cmp	r5, r3
 8006f2c:	bf38      	it	cc
 8006f2e:	461d      	movcc	r5, r3
 8006f30:	0553      	lsls	r3, r2, #21
 8006f32:	d531      	bpl.n	8006f98 <__ssputs_r+0xa0>
 8006f34:	4629      	mov	r1, r5
 8006f36:	f7ff ff85 	bl	8006e44 <_malloc_r>
 8006f3a:	4606      	mov	r6, r0
 8006f3c:	b950      	cbnz	r0, 8006f54 <__ssputs_r+0x5c>
 8006f3e:	230c      	movs	r3, #12
 8006f40:	f8ca 3000 	str.w	r3, [sl]
 8006f44:	89a3      	ldrh	r3, [r4, #12]
 8006f46:	f043 0340 	orr.w	r3, r3, #64	; 0x40
 8006f4a:	81a3      	strh	r3, [r4, #12]
 8006f4c:	f04f 30ff 	mov.w	r0, #4294967295
 8006f50:	e8bd 87f0 	ldmia.w	sp!, {r4, r5, r6, r7, r8, r9, sl, pc}
 8006f54:	6921      	ldr	r1, [r4, #16]
 8006f56:	464a      	mov	r2, r9
 8006f58:	f7ff fa4c 	bl	80063f4 <memcpy>
 8006f5c:	89a3      	ldrh	r3, [r4, #12]
 8006f5e:	f423 6390 	bic.w	r3, r3, #1152	; 0x480
 8006f62:	f043 0380 	orr.w	r3, r3, #128	; 0x80
 8006f66:	81a3      	strh	r3, [r4, #12]
 8006f68:	6126      	str	r6, [r4, #16]
 8006f6a:	6165      	str	r5, [r4, #20]
 8006f6c:	444e      	add	r6, r9
 8006f6e:	eba5 0509 	sub.w	r5, r5, r9
 8006f72:	6026      	str	r6, [r4, #0]
 8006f74:	60a5      	str	r5, [r4, #8]
 8006f76:	463e      	mov	r6, r7
 8006f78:	42be      	cmp	r6, r7
 8006f7a:	d900      	bls.n	8006f7e <__ssputs_r+0x86>
 8006f7c:	463e      	mov	r6, r7
 8006f7e:	4632      	mov	r2, r6
 8006f80:	6820      	ldr	r0, [r4, #0]
 8006f82:	4641      	mov	r1, r8
 8006f84:	f000 f97c 	bl	8007280 <memmove>
 8006f88:	68a3      	ldr	r3, [r4, #8]
 8006f8a:	6822      	ldr	r2, [r4, #0]
 8006f8c:	1b9b      	subs	r3, r3, r6
 8006f8e:	4432      	add	r2, r6
 8006f90:	60a3      	str	r3, [r4, #8]
 8006f92:	6022      	str	r2, [r4, #0]
 8006f94:	2000      	movs	r0, #0
 8006f96:	e7db      	b.n	8006f50 <__ssputs_r+0x58>
 8006f98:	462a      	mov	r2, r5
 8006f9a:	f000 f997 	bl	80072cc <_realloc_r>
 8006f9e:	4606      	mov	r6, r0
 8006fa0:	2800      	cmp	r0, #0
 8006fa2:	d1e1      	bne.n	8006f68 <__ssputs_r+0x70>
 8006fa4:	6921      	ldr	r1, [r4, #16]
 8006fa6:	4650      	mov	r0, sl
 8006fa8:	f7ff fefc 	bl	8006da4 <_free_r>
 8006fac:	e7c7      	b.n	8006f3e <__ssputs_r+0x46>
	...

08006fb0 <_svfiprintf_r>:
 8006fb0:	e92d 4ff0 	stmdb	sp!, {r4, r5, r6, r7, r8, r9, sl, fp, lr}
 8006fb4:	4698      	mov	r8, r3
 8006fb6:	898b      	ldrh	r3, [r1, #12]
 8006fb8:	061b      	lsls	r3, r3, #24
 8006fba:	b09d      	sub	sp, #116	; 0x74
 8006fbc:	4607      	mov	r7, r0
 8006fbe:	460d      	mov	r5, r1
 8006fc0:	4614      	mov	r4, r2
 8006fc2:	d50e      	bpl.n	8006fe2 <_svfiprintf_r+0x32>
 8006fc4:	690b      	ldr	r3, [r1, #16]
 8006fc6:	b963      	cbnz	r3, 8006fe2 <_svfiprintf_r+0x32>
 8006fc8:	2140      	movs	r1, #64	; 0x40
 8006fca:	f7ff ff3b 	bl	8006e44 <_malloc_r>
 8006fce:	6028      	str	r0, [r5, #0]
 8006fd0:	6128      	str	r0, [r5, #16]
 8006fd2:	b920      	cbnz	r0, 8006fde <_svfiprintf_r+0x2e>
 8006fd4:	230c      	movs	r3, #12
 8006fd6:	603b      	str	r3, [r7, #0]
 8006fd8:	f04f 30ff 	mov.w	r0, #4294967295
 8006fdc:	e0d1      	b.n	8007182 <_svfiprintf_r+0x1d2>
 8006fde:	2340      	movs	r3, #64	; 0x40
 8006fe0:	616b      	str	r3, [r5, #20]
 8006fe2:	2300      	movs	r3, #0
 8006fe4:	9309      	str	r3, [sp, #36]	; 0x24
 8006fe6:	2320      	movs	r3, #32
 8006fe8:	f88d 3029 	strb.w	r3, [sp, #41]	; 0x29
 8006fec:	f8cd 800c 	str.w	r8, [sp, #12]
 8006ff0:	2330      	movs	r3, #48	; 0x30
 8006ff2:	f8df 81a8 	ldr.w	r8, [pc, #424]	; 800719c <_svfiprintf_r+0x1ec>
 8006ff6:	f88d 302a 	strb.w	r3, [sp, #42]	; 0x2a
 8006ffa:	f04f 0901 	mov.w	r9, #1
 8006ffe:	4623      	mov	r3, r4
 8007000:	469a      	mov	sl, r3
 8007002:	f813 2b01 	ldrb.w	r2, [r3], #1
 8007006:	b10a      	cbz	r2, 800700c <_svfiprintf_r+0x5c>
 8007008:	2a25      	cmp	r2, #37	; 0x25
 800700a:	d1f9      	bne.n	8007000 <_svfiprintf_r+0x50>
 800700c:	ebba 0b04 	subs.w	fp, sl, r4
 8007010:	d00b      	beq.n	800702a <_svfiprintf_r+0x7a>
 8007012:	465b      	mov	r3, fp
 8007014:	4622      	mov	r2, r4
 8007016:	4629      	mov	r1, r5
 8007018:	4638      	mov	r0, r7
 800701a:	f7ff ff6d 	bl	8006ef8 <__ssputs_r>
 800701e:	3001      	adds	r0, #1
 8007020:	f000 80aa 	beq.w	8007178 <_svfiprintf_r+0x1c8>
 8007024:	9a09      	ldr	r2, [sp, #36]	; 0x24
 8007026:	445a      	add	r2, fp
 8007028:	9209      	str	r2, [sp, #36]	; 0x24
 800702a:	f89a 3000 	ldrb.w	r3, [sl]
 800702e:	2b00      	cmp	r3, #0
 8007030:	f000 80a2 	beq.w	8007178 <_svfiprintf_r+0x1c8>
 8007034:	2300      	movs	r3, #0
 8007036:	f04f 32ff 	mov.w	r2, #4294967295
 800703a:	e9cd 2305 	strd	r2, r3, [sp, #20]
 800703e:	f10a 0a01 	add.w	sl, sl, #1
 8007042:	9304      	str	r3, [sp, #16]
 8007044:	9307      	str	r3, [sp, #28]
 8007046:	f88d 3053 	strb.w	r3, [sp, #83]	; 0x53
 800704a:	931a      	str	r3, [sp, #104]	; 0x68
 800704c:	4654      	mov	r4, sl
 800704e:	2205      	movs	r2, #5
 8007050:	f814 1b01 	ldrb.w	r1, [r4], #1
 8007054:	4851      	ldr	r0, [pc, #324]	; (800719c <_svfiprintf_r+0x1ec>)
 8007056:	f7f9 f8cb 	bl	80001f0 <memchr>
 800705a:	9a04      	ldr	r2, [sp, #16]
 800705c:	b9d8      	cbnz	r0, 8007096 <_svfiprintf_r+0xe6>
 800705e:	06d0      	lsls	r0, r2, #27
 8007060:	bf44      	itt	mi
 8007062:	2320      	movmi	r3, #32
 8007064:	f88d 3053 	strbmi.w	r3, [sp, #83]	; 0x53
 8007068:	0711      	lsls	r1, r2, #28
 800706a:	bf44      	itt	mi
 800706c:	232b      	movmi	r3, #43	; 0x2b
 800706e:	f88d 3053 	strbmi.w	r3, [sp, #83]	; 0x53
 8007072:	f89a 3000 	ldrb.w	r3, [sl]
 8007076:	2b2a      	cmp	r3, #42	; 0x2a
 8007078:	d015      	beq.n	80070a6 <_svfiprintf_r+0xf6>
 800707a:	9a07      	ldr	r2, [sp, #28]
 800707c:	4654      	mov	r4, sl
 800707e:	2000      	movs	r0, #0
 8007080:	f04f 0c0a 	mov.w	ip, #10
 8007084:	4621      	mov	r1, r4
 8007086:	f811 3b01 	ldrb.w	r3, [r1], #1
 800708a:	3b30      	subs	r3, #48	; 0x30
 800708c:	2b09      	cmp	r3, #9
 800708e:	d94e      	bls.n	800712e <_svfiprintf_r+0x17e>
 8007090:	b1b0      	cbz	r0, 80070c0 <_svfiprintf_r+0x110>
 8007092:	9207      	str	r2, [sp, #28]
 8007094:	e014      	b.n	80070c0 <_svfiprintf_r+0x110>
 8007096:	eba0 0308 	sub.w	r3, r0, r8
 800709a:	fa09 f303 	lsl.w	r3, r9, r3
 800709e:	4313      	orrs	r3, r2
 80070a0:	9304      	str	r3, [sp, #16]
 80070a2:	46a2      	mov	sl, r4
 80070a4:	e7d2      	b.n	800704c <_svfiprintf_r+0x9c>
 80070a6:	9b03      	ldr	r3, [sp, #12]
 80070a8:	1d19      	adds	r1, r3, #4
 80070aa:	681b      	ldr	r3, [r3, #0]
 80070ac:	9103      	str	r1, [sp, #12]
 80070ae:	2b00      	cmp	r3, #0
 80070b0:	bfbb      	ittet	lt
 80070b2:	425b      	neglt	r3, r3
 80070b4:	f042 0202 	orrlt.w	r2, r2, #2
 80070b8:	9307      	strge	r3, [sp, #28]
 80070ba:	9307      	strlt	r3, [sp, #28]
 80070bc:	bfb8      	it	lt
 80070be:	9204      	strlt	r2, [sp, #16]
 80070c0:	7823      	ldrb	r3, [r4, #0]
 80070c2:	2b2e      	cmp	r3, #46	; 0x2e
 80070c4:	d10c      	bne.n	80070e0 <_svfiprintf_r+0x130>
 80070c6:	7863      	ldrb	r3, [r4, #1]
 80070c8:	2b2a      	cmp	r3, #42	; 0x2a
 80070ca:	d135      	bne.n	8007138 <_svfiprintf_r+0x188>
 80070cc:	9b03      	ldr	r3, [sp, #12]
 80070ce:	1d1a      	adds	r2, r3, #4
 80070d0:	681b      	ldr	r3, [r3, #0]
 80070d2:	9203      	str	r2, [sp, #12]
 80070d4:	2b00      	cmp	r3, #0
 80070d6:	bfb8      	it	lt
 80070d8:	f04f 33ff 	movlt.w	r3, #4294967295
 80070dc:	3402      	adds	r4, #2
 80070de:	9305      	str	r3, [sp, #20]
 80070e0:	f8df a0c8 	ldr.w	sl, [pc, #200]	; 80071ac <_svfiprintf_r+0x1fc>
 80070e4:	7821      	ldrb	r1, [r4, #0]
 80070e6:	2203      	movs	r2, #3
 80070e8:	4650      	mov	r0, sl
 80070ea:	f7f9 f881 	bl	80001f0 <memchr>
 80070ee:	b140      	cbz	r0, 8007102 <_svfiprintf_r+0x152>
 80070f0:	2340      	movs	r3, #64	; 0x40
 80070f2:	eba0 000a 	sub.w	r0, r0, sl
 80070f6:	fa03 f000 	lsl.w	r0, r3, r0
 80070fa:	9b04      	ldr	r3, [sp, #16]
 80070fc:	4303      	orrs	r3, r0
 80070fe:	3401      	adds	r4, #1
 8007100:	9304      	str	r3, [sp, #16]
 8007102:	f814 1b01 	ldrb.w	r1, [r4], #1
 8007106:	4826      	ldr	r0, [pc, #152]	; (80071a0 <_svfiprintf_r+0x1f0>)
 8007108:	f88d 1028 	strb.w	r1, [sp, #40]	; 0x28
 800710c:	2206      	movs	r2, #6
 800710e:	f7f9 f86f 	bl	80001f0 <memchr>
 8007112:	2800      	cmp	r0, #0
 8007114:	d038      	beq.n	8007188 <_svfiprintf_r+0x1d8>
 8007116:	4b23      	ldr	r3, [pc, #140]	; (80071a4 <_svfiprintf_r+0x1f4>)
 8007118:	bb1b      	cbnz	r3, 8007162 <_svfiprintf_r+0x1b2>
 800711a:	9b03      	ldr	r3, [sp, #12]
 800711c:	3307      	adds	r3, #7
 800711e:	f023 0307 	bic.w	r3, r3, #7
 8007122:	3308      	adds	r3, #8
 8007124:	9303      	str	r3, [sp, #12]
 8007126:	9b09      	ldr	r3, [sp, #36]	; 0x24
 8007128:	4433      	add	r3, r6
 800712a:	9309      	str	r3, [sp, #36]	; 0x24
 800712c:	e767      	b.n	8006ffe <_svfiprintf_r+0x4e>
 800712e:	fb0c 3202 	mla	r2, ip, r2, r3
 8007132:	460c      	mov	r4, r1
 8007134:	2001      	movs	r0, #1
 8007136:	e7a5      	b.n	8007084 <_svfiprintf_r+0xd4>
 8007138:	2300      	movs	r3, #0
 800713a:	3401      	adds	r4, #1
 800713c:	9305      	str	r3, [sp, #20]
 800713e:	4619      	mov	r1, r3
 8007140:	f04f 0c0a 	mov.w	ip, #10
 8007144:	4620      	mov	r0, r4
 8007146:	f810 2b01 	ldrb.w	r2, [r0], #1
 800714a:	3a30      	subs	r2, #48	; 0x30
 800714c:	2a09      	cmp	r2, #9
 800714e:	d903      	bls.n	8007158 <_svfiprintf_r+0x1a8>
 8007150:	2b00      	cmp	r3, #0
 8007152:	d0c5      	beq.n	80070e0 <_svfiprintf_r+0x130>
 8007154:	9105      	str	r1, [sp, #20]
 8007156:	e7c3      	b.n	80070e0 <_svfiprintf_r+0x130>
 8007158:	fb0c 2101 	mla	r1, ip, r1, r2
 800715c:	4604      	mov	r4, r0
 800715e:	2301      	movs	r3, #1
 8007160:	e7f0      	b.n	8007144 <_svfiprintf_r+0x194>
 8007162:	ab03      	add	r3, sp, #12
 8007164:	9300      	str	r3, [sp, #0]
 8007166:	462a      	mov	r2, r5
 8007168:	4b0f      	ldr	r3, [pc, #60]	; (80071a8 <_svfiprintf_r+0x1f8>)
 800716a:	a904      	add	r1, sp, #16
 800716c:	4638      	mov	r0, r7
 800716e:	f7fc fa4f 	bl	8003610 <_printf_float>
 8007172:	1c42      	adds	r2, r0, #1
 8007174:	4606      	mov	r6, r0
 8007176:	d1d6      	bne.n	8007126 <_svfiprintf_r+0x176>
 8007178:	89ab      	ldrh	r3, [r5, #12]
 800717a:	065b      	lsls	r3, r3, #25
 800717c:	f53f af2c 	bmi.w	8006fd8 <_svfiprintf_r+0x28>
 8007180:	9809      	ldr	r0, [sp, #36]	; 0x24
 8007182:	b01d      	add	sp, #116	; 0x74
 8007184:	e8bd 8ff0 	ldmia.w	sp!, {r4, r5, r6, r7, r8, r9, sl, fp, pc}
 8007188:	ab03      	add	r3, sp, #12
 800718a:	9300      	str	r3, [sp, #0]
 800718c:	462a      	mov	r2, r5
 800718e:	4b06      	ldr	r3, [pc, #24]	; (80071a8 <_svfiprintf_r+0x1f8>)
 8007190:	a904      	add	r1, sp, #16
 8007192:	4638      	mov	r0, r7
 8007194:	f7fc fce0 	bl	8003b58 <_printf_i>
 8007198:	e7eb      	b.n	8007172 <_svfiprintf_r+0x1c2>
 800719a:	bf00      	nop
 800719c:	0800848c 	.word	0x0800848c
 80071a0:	08008496 	.word	0x08008496
 80071a4:	08003611 	.word	0x08003611
 80071a8:	08006ef9 	.word	0x08006ef9
 80071ac:	08008492 	.word	0x08008492

080071b0 <nan>:
 80071b0:	ed9f 0b01 	vldr	d0, [pc, #4]	; 80071b8 <nan+0x8>
 80071b4:	4770      	bx	lr
 80071b6:	bf00      	nop
 80071b8:	00000000 	.word	0x00000000
 80071bc:	7ff80000 	.word	0x7ff80000

080071c0 <_sbrk_r>:
 80071c0:	b538      	push	{r3, r4, r5, lr}
 80071c2:	4d06      	ldr	r5, [pc, #24]	; (80071dc <_sbrk_r+0x1c>)
 80071c4:	2300      	movs	r3, #0
 80071c6:	4604      	mov	r4, r0
 80071c8:	4608      	mov	r0, r1
 80071ca:	602b      	str	r3, [r5, #0]
 80071cc:	f7fc f890 	bl	80032f0 <_sbrk>
 80071d0:	1c43      	adds	r3, r0, #1
 80071d2:	d102      	bne.n	80071da <_sbrk_r+0x1a>
 80071d4:	682b      	ldr	r3, [r5, #0]
 80071d6:	b103      	cbz	r3, 80071da <_sbrk_r+0x1a>
 80071d8:	6023      	str	r3, [r4, #0]
 80071da:	bd38      	pop	{r3, r4, r5, pc}
 80071dc:	2000030c 	.word	0x2000030c

080071e0 <strncmp>:
 80071e0:	b510      	push	{r4, lr}
 80071e2:	b16a      	cbz	r2, 8007200 <strncmp+0x20>
 80071e4:	3901      	subs	r1, #1
 80071e6:	1884      	adds	r4, r0, r2
 80071e8:	f810 3b01 	ldrb.w	r3, [r0], #1
 80071ec:	f811 2f01 	ldrb.w	r2, [r1, #1]!
 80071f0:	4293      	cmp	r3, r2
 80071f2:	d103      	bne.n	80071fc <strncmp+0x1c>
 80071f4:	42a0      	cmp	r0, r4
 80071f6:	d001      	beq.n	80071fc <strncmp+0x1c>
 80071f8:	2b00      	cmp	r3, #0
 80071fa:	d1f5      	bne.n	80071e8 <strncmp+0x8>
 80071fc:	1a98      	subs	r0, r3, r2
 80071fe:	bd10      	pop	{r4, pc}
 8007200:	4610      	mov	r0, r2
 8007202:	e7fc      	b.n	80071fe <strncmp+0x1e>

08007204 <__ascii_wctomb>:
 8007204:	b149      	cbz	r1, 800721a <__ascii_wctomb+0x16>
 8007206:	2aff      	cmp	r2, #255	; 0xff
 8007208:	bf85      	ittet	hi
 800720a:	238a      	movhi	r3, #138	; 0x8a
 800720c:	6003      	strhi	r3, [r0, #0]
 800720e:	700a      	strbls	r2, [r1, #0]
 8007210:	f04f 30ff 	movhi.w	r0, #4294967295
 8007214:	bf98      	it	ls
 8007216:	2001      	movls	r0, #1
 8007218:	4770      	bx	lr
 800721a:	4608      	mov	r0, r1
 800721c:	4770      	bx	lr
	...

08007220 <__assert_func>:
 8007220:	b51f      	push	{r0, r1, r2, r3, r4, lr}
 8007222:	4614      	mov	r4, r2
 8007224:	461a      	mov	r2, r3
 8007226:	4b09      	ldr	r3, [pc, #36]	; (800724c <__assert_func+0x2c>)
 8007228:	681b      	ldr	r3, [r3, #0]
 800722a:	4605      	mov	r5, r0
 800722c:	68d8      	ldr	r0, [r3, #12]
 800722e:	b14c      	cbz	r4, 8007244 <__assert_func+0x24>
 8007230:	4b07      	ldr	r3, [pc, #28]	; (8007250 <__assert_func+0x30>)
 8007232:	9100      	str	r1, [sp, #0]
 8007234:	e9cd 3401 	strd	r3, r4, [sp, #4]
 8007238:	4906      	ldr	r1, [pc, #24]	; (8007254 <__assert_func+0x34>)
 800723a:	462b      	mov	r3, r5
 800723c:	f000 f80e 	bl	800725c <fiprintf>
 8007240:	f000 fa84 	bl	800774c <abort>
 8007244:	4b04      	ldr	r3, [pc, #16]	; (8007258 <__assert_func+0x38>)
 8007246:	461c      	mov	r4, r3
 8007248:	e7f3      	b.n	8007232 <__assert_func+0x12>
 800724a:	bf00      	nop
 800724c:	2000000c 	.word	0x2000000c
 8007250:	0800849d 	.word	0x0800849d
 8007254:	080084aa 	.word	0x080084aa
 8007258:	08007e1f 	.word	0x08007e1f

0800725c <fiprintf>:
 800725c:	b40e      	push	{r1, r2, r3}
 800725e:	b503      	push	{r0, r1, lr}
 8007260:	4601      	mov	r1, r0
 8007262:	ab03      	add	r3, sp, #12
 8007264:	4805      	ldr	r0, [pc, #20]	; (800727c <fiprintf+0x20>)
 8007266:	f853 2b04 	ldr.w	r2, [r3], #4
 800726a:	6800      	ldr	r0, [r0, #0]
 800726c:	9301      	str	r3, [sp, #4]
 800726e:	f000 f87d 	bl	800736c <_vfiprintf_r>
 8007272:	b002      	add	sp, #8
 8007274:	f85d eb04 	ldr.w	lr, [sp], #4
 8007278:	b003      	add	sp, #12
 800727a:	4770      	bx	lr
 800727c:	2000000c 	.word	0x2000000c

08007280 <memmove>:
 8007280:	4288      	cmp	r0, r1
 8007282:	b510      	push	{r4, lr}
 8007284:	eb01 0402 	add.w	r4, r1, r2
 8007288:	d902      	bls.n	8007290 <memmove+0x10>
 800728a:	4284      	cmp	r4, r0
 800728c:	4623      	mov	r3, r4
 800728e:	d807      	bhi.n	80072a0 <memmove+0x20>
 8007290:	1e43      	subs	r3, r0, #1
 8007292:	42a1      	cmp	r1, r4
 8007294:	d008      	beq.n	80072a8 <memmove+0x28>
 8007296:	f811 2b01 	ldrb.w	r2, [r1], #1
 800729a:	f803 2f01 	strb.w	r2, [r3, #1]!
 800729e:	e7f8      	b.n	8007292 <memmove+0x12>
 80072a0:	4402      	add	r2, r0
 80072a2:	4601      	mov	r1, r0
 80072a4:	428a      	cmp	r2, r1
 80072a6:	d100      	bne.n	80072aa <memmove+0x2a>
 80072a8:	bd10      	pop	{r4, pc}
 80072aa:	f813 4d01 	ldrb.w	r4, [r3, #-1]!
 80072ae:	f802 4d01 	strb.w	r4, [r2, #-1]!
 80072b2:	e7f7      	b.n	80072a4 <memmove+0x24>

080072b4 <__malloc_lock>:
 80072b4:	4801      	ldr	r0, [pc, #4]	; (80072bc <__malloc_lock+0x8>)
 80072b6:	f000 bc09 	b.w	8007acc <__retarget_lock_acquire_recursive>
 80072ba:	bf00      	nop
 80072bc:	20000314 	.word	0x20000314

080072c0 <__malloc_unlock>:
 80072c0:	4801      	ldr	r0, [pc, #4]	; (80072c8 <__malloc_unlock+0x8>)
 80072c2:	f000 bc04 	b.w	8007ace <__retarget_lock_release_recursive>
 80072c6:	bf00      	nop
 80072c8:	20000314 	.word	0x20000314

080072cc <_realloc_r>:
 80072cc:	b5f8      	push	{r3, r4, r5, r6, r7, lr}
 80072ce:	4607      	mov	r7, r0
 80072d0:	4614      	mov	r4, r2
 80072d2:	460e      	mov	r6, r1
 80072d4:	b921      	cbnz	r1, 80072e0 <_realloc_r+0x14>
 80072d6:	e8bd 40f8 	ldmia.w	sp!, {r3, r4, r5, r6, r7, lr}
 80072da:	4611      	mov	r1, r2
 80072dc:	f7ff bdb2 	b.w	8006e44 <_malloc_r>
 80072e0:	b922      	cbnz	r2, 80072ec <_realloc_r+0x20>
 80072e2:	f7ff fd5f 	bl	8006da4 <_free_r>
 80072e6:	4625      	mov	r5, r4
 80072e8:	4628      	mov	r0, r5
 80072ea:	bdf8      	pop	{r3, r4, r5, r6, r7, pc}
 80072ec:	f000 fc54 	bl	8007b98 <_malloc_usable_size_r>
 80072f0:	42a0      	cmp	r0, r4
 80072f2:	d20f      	bcs.n	8007314 <_realloc_r+0x48>
 80072f4:	4621      	mov	r1, r4
 80072f6:	4638      	mov	r0, r7
 80072f8:	f7ff fda4 	bl	8006e44 <_malloc_r>
 80072fc:	4605      	mov	r5, r0
 80072fe:	2800      	cmp	r0, #0
 8007300:	d0f2      	beq.n	80072e8 <_realloc_r+0x1c>
 8007302:	4631      	mov	r1, r6
 8007304:	4622      	mov	r2, r4
 8007306:	f7ff f875 	bl	80063f4 <memcpy>
 800730a:	4631      	mov	r1, r6
 800730c:	4638      	mov	r0, r7
 800730e:	f7ff fd49 	bl	8006da4 <_free_r>
 8007312:	e7e9      	b.n	80072e8 <_realloc_r+0x1c>
 8007314:	4635      	mov	r5, r6
 8007316:	e7e7      	b.n	80072e8 <_realloc_r+0x1c>

08007318 <__sfputc_r>:
 8007318:	6893      	ldr	r3, [r2, #8]
 800731a:	3b01      	subs	r3, #1
 800731c:	2b00      	cmp	r3, #0
 800731e:	b410      	push	{r4}
 8007320:	6093      	str	r3, [r2, #8]
 8007322:	da08      	bge.n	8007336 <__sfputc_r+0x1e>
 8007324:	6994      	ldr	r4, [r2, #24]
 8007326:	42a3      	cmp	r3, r4
 8007328:	db01      	blt.n	800732e <__sfputc_r+0x16>
 800732a:	290a      	cmp	r1, #10
 800732c:	d103      	bne.n	8007336 <__sfputc_r+0x1e>
 800732e:	f85d 4b04 	ldr.w	r4, [sp], #4
 8007332:	f000 b94b 	b.w	80075cc <__swbuf_r>
 8007336:	6813      	ldr	r3, [r2, #0]
 8007338:	1c58      	adds	r0, r3, #1
 800733a:	6010      	str	r0, [r2, #0]
 800733c:	7019      	strb	r1, [r3, #0]
 800733e:	4608      	mov	r0, r1
 8007340:	f85d 4b04 	ldr.w	r4, [sp], #4
 8007344:	4770      	bx	lr

08007346 <__sfputs_r>:
 8007346:	b5f8      	push	{r3, r4, r5, r6, r7, lr}
 8007348:	4606      	mov	r6, r0
 800734a:	460f      	mov	r7, r1
 800734c:	4614      	mov	r4, r2
 800734e:	18d5      	adds	r5, r2, r3
 8007350:	42ac      	cmp	r4, r5
 8007352:	d101      	bne.n	8007358 <__sfputs_r+0x12>
 8007354:	2000      	movs	r0, #0
 8007356:	e007      	b.n	8007368 <__sfputs_r+0x22>
 8007358:	f814 1b01 	ldrb.w	r1, [r4], #1
 800735c:	463a      	mov	r2, r7
 800735e:	4630      	mov	r0, r6
 8007360:	f7ff ffda 	bl	8007318 <__sfputc_r>
 8007364:	1c43      	adds	r3, r0, #1
 8007366:	d1f3      	bne.n	8007350 <__sfputs_r+0xa>
 8007368:	bdf8      	pop	{r3, r4, r5, r6, r7, pc}
	...

0800736c <_vfiprintf_r>:
 800736c:	e92d 4ff0 	stmdb	sp!, {r4, r5, r6, r7, r8, r9, sl, fp, lr}
 8007370:	460d      	mov	r5, r1
 8007372:	b09d      	sub	sp, #116	; 0x74
 8007374:	4614      	mov	r4, r2
 8007376:	4698      	mov	r8, r3
 8007378:	4606      	mov	r6, r0
 800737a:	b118      	cbz	r0, 8007384 <_vfiprintf_r+0x18>
 800737c:	6983      	ldr	r3, [r0, #24]
 800737e:	b90b      	cbnz	r3, 8007384 <_vfiprintf_r+0x18>
 8007380:	f000 fb06 	bl	8007990 <__sinit>
 8007384:	4b89      	ldr	r3, [pc, #548]	; (80075ac <_vfiprintf_r+0x240>)
 8007386:	429d      	cmp	r5, r3
 8007388:	d11b      	bne.n	80073c2 <_vfiprintf_r+0x56>
 800738a:	6875      	ldr	r5, [r6, #4]
 800738c:	6e6b      	ldr	r3, [r5, #100]	; 0x64
 800738e:	07d9      	lsls	r1, r3, #31
 8007390:	d405      	bmi.n	800739e <_vfiprintf_r+0x32>
 8007392:	89ab      	ldrh	r3, [r5, #12]
 8007394:	059a      	lsls	r2, r3, #22
 8007396:	d402      	bmi.n	800739e <_vfiprintf_r+0x32>
 8007398:	6da8      	ldr	r0, [r5, #88]	; 0x58
 800739a:	f000 fb97 	bl	8007acc <__retarget_lock_acquire_recursive>
 800739e:	89ab      	ldrh	r3, [r5, #12]
 80073a0:	071b      	lsls	r3, r3, #28
 80073a2:	d501      	bpl.n	80073a8 <_vfiprintf_r+0x3c>
 80073a4:	692b      	ldr	r3, [r5, #16]
 80073a6:	b9eb      	cbnz	r3, 80073e4 <_vfiprintf_r+0x78>
 80073a8:	4629      	mov	r1, r5
 80073aa:	4630      	mov	r0, r6
 80073ac:	f000 f960 	bl	8007670 <__swsetup_r>
 80073b0:	b1c0      	cbz	r0, 80073e4 <_vfiprintf_r+0x78>
 80073b2:	6e6b      	ldr	r3, [r5, #100]	; 0x64
 80073b4:	07dc      	lsls	r4, r3, #31
 80073b6:	d50e      	bpl.n	80073d6 <_vfiprintf_r+0x6a>
 80073b8:	f04f 30ff 	mov.w	r0, #4294967295
 80073bc:	b01d      	add	sp, #116	; 0x74
 80073be:	e8bd 8ff0 	ldmia.w	sp!, {r4, r5, r6, r7, r8, r9, sl, fp, pc}
 80073c2:	4b7b      	ldr	r3, [pc, #492]	; (80075b0 <_vfiprintf_r+0x244>)
 80073c4:	429d      	cmp	r5, r3
 80073c6:	d101      	bne.n	80073cc <_vfiprintf_r+0x60>
 80073c8:	68b5      	ldr	r5, [r6, #8]
 80073ca:	e7df      	b.n	800738c <_vfiprintf_r+0x20>
 80073cc:	4b79      	ldr	r3, [pc, #484]	; (80075b4 <_vfiprintf_r+0x248>)
 80073ce:	429d      	cmp	r5, r3
 80073d0:	bf08      	it	eq
 80073d2:	68f5      	ldreq	r5, [r6, #12]
 80073d4:	e7da      	b.n	800738c <_vfiprintf_r+0x20>
 80073d6:	89ab      	ldrh	r3, [r5, #12]
 80073d8:	0598      	lsls	r0, r3, #22
 80073da:	d4ed      	bmi.n	80073b8 <_vfiprintf_r+0x4c>
 80073dc:	6da8      	ldr	r0, [r5, #88]	; 0x58
 80073de:	f000 fb76 	bl	8007ace <__retarget_lock_release_recursive>
 80073e2:	e7e9      	b.n	80073b8 <_vfiprintf_r+0x4c>
 80073e4:	2300      	movs	r3, #0
 80073e6:	9309      	str	r3, [sp, #36]	; 0x24
 80073e8:	2320      	movs	r3, #32
 80073ea:	f88d 3029 	strb.w	r3, [sp, #41]	; 0x29
 80073ee:	f8cd 800c 	str.w	r8, [sp, #12]
 80073f2:	2330      	movs	r3, #48	; 0x30
 80073f4:	f8df 81c0 	ldr.w	r8, [pc, #448]	; 80075b8 <_vfiprintf_r+0x24c>
 80073f8:	f88d 302a 	strb.w	r3, [sp, #42]	; 0x2a
 80073fc:	f04f 0901 	mov.w	r9, #1
 8007400:	4623      	mov	r3, r4
 8007402:	469a      	mov	sl, r3
 8007404:	f813 2b01 	ldrb.w	r2, [r3], #1
 8007408:	b10a      	cbz	r2, 800740e <_vfiprintf_r+0xa2>
 800740a:	2a25      	cmp	r2, #37	; 0x25
 800740c:	d1f9      	bne.n	8007402 <_vfiprintf_r+0x96>
 800740e:	ebba 0b04 	subs.w	fp, sl, r4
 8007412:	d00b      	beq.n	800742c <_vfiprintf_r+0xc0>
 8007414:	465b      	mov	r3, fp
 8007416:	4622      	mov	r2, r4
 8007418:	4629      	mov	r1, r5
 800741a:	4630      	mov	r0, r6
 800741c:	f7ff ff93 	bl	8007346 <__sfputs_r>
 8007420:	3001      	adds	r0, #1
 8007422:	f000 80aa 	beq.w	800757a <_vfiprintf_r+0x20e>
 8007426:	9a09      	ldr	r2, [sp, #36]	; 0x24
 8007428:	445a      	add	r2, fp
 800742a:	9209      	str	r2, [sp, #36]	; 0x24
 800742c:	f89a 3000 	ldrb.w	r3, [sl]
 8007430:	2b00      	cmp	r3, #0
 8007432:	f000 80a2 	beq.w	800757a <_vfiprintf_r+0x20e>
 8007436:	2300      	movs	r3, #0
 8007438:	f04f 32ff 	mov.w	r2, #4294967295
 800743c:	e9cd 2305 	strd	r2, r3, [sp, #20]
 8007440:	f10a 0a01 	add.w	sl, sl, #1
 8007444:	9304      	str	r3, [sp, #16]
 8007446:	9307      	str	r3, [sp, #28]
 8007448:	f88d 3053 	strb.w	r3, [sp, #83]	; 0x53
 800744c:	931a      	str	r3, [sp, #104]	; 0x68
 800744e:	4654      	mov	r4, sl
 8007450:	2205      	movs	r2, #5
 8007452:	f814 1b01 	ldrb.w	r1, [r4], #1
 8007456:	4858      	ldr	r0, [pc, #352]	; (80075b8 <_vfiprintf_r+0x24c>)
 8007458:	f7f8 feca 	bl	80001f0 <memchr>
 800745c:	9a04      	ldr	r2, [sp, #16]
 800745e:	b9d8      	cbnz	r0, 8007498 <_vfiprintf_r+0x12c>
 8007460:	06d1      	lsls	r1, r2, #27
 8007462:	bf44      	itt	mi
 8007464:	2320      	movmi	r3, #32
 8007466:	f88d 3053 	strbmi.w	r3, [sp, #83]	; 0x53
 800746a:	0713      	lsls	r3, r2, #28
 800746c:	bf44      	itt	mi
 800746e:	232b      	movmi	r3, #43	; 0x2b
 8007470:	f88d 3053 	strbmi.w	r3, [sp, #83]	; 0x53
 8007474:	f89a 3000 	ldrb.w	r3, [sl]
 8007478:	2b2a      	cmp	r3, #42	; 0x2a
 800747a:	d015      	beq.n	80074a8 <_vfiprintf_r+0x13c>
 800747c:	9a07      	ldr	r2, [sp, #28]
 800747e:	4654      	mov	r4, sl
 8007480:	2000      	movs	r0, #0
 8007482:	f04f 0c0a 	mov.w	ip, #10
 8007486:	4621      	mov	r1, r4
 8007488:	f811 3b01 	ldrb.w	r3, [r1], #1
 800748c:	3b30      	subs	r3, #48	; 0x30
 800748e:	2b09      	cmp	r3, #9
 8007490:	d94e      	bls.n	8007530 <_vfiprintf_r+0x1c4>
 8007492:	b1b0      	cbz	r0, 80074c2 <_vfiprintf_r+0x156>
 8007494:	9207      	str	r2, [sp, #28]
 8007496:	e014      	b.n	80074c2 <_vfiprintf_r+0x156>
 8007498:	eba0 0308 	sub.w	r3, r0, r8
 800749c:	fa09 f303 	lsl.w	r3, r9, r3
 80074a0:	4313      	orrs	r3, r2
 80074a2:	9304      	str	r3, [sp, #16]
 80074a4:	46a2      	mov	sl, r4
 80074a6:	e7d2      	b.n	800744e <_vfiprintf_r+0xe2>
 80074a8:	9b03      	ldr	r3, [sp, #12]
 80074aa:	1d19      	adds	r1, r3, #4
 80074ac:	681b      	ldr	r3, [r3, #0]
 80074ae:	9103      	str	r1, [sp, #12]
 80074b0:	2b00      	cmp	r3, #0
 80074b2:	bfbb      	ittet	lt
 80074b4:	425b      	neglt	r3, r3
 80074b6:	f042 0202 	orrlt.w	r2, r2, #2
 80074ba:	9307      	strge	r3, [sp, #28]
 80074bc:	9307      	strlt	r3, [sp, #28]
 80074be:	bfb8      	it	lt
 80074c0:	9204      	strlt	r2, [sp, #16]
 80074c2:	7823      	ldrb	r3, [r4, #0]
 80074c4:	2b2e      	cmp	r3, #46	; 0x2e
 80074c6:	d10c      	bne.n	80074e2 <_vfiprintf_r+0x176>
 80074c8:	7863      	ldrb	r3, [r4, #1]
 80074ca:	2b2a      	cmp	r3, #42	; 0x2a
 80074cc:	d135      	bne.n	800753a <_vfiprintf_r+0x1ce>
 80074ce:	9b03      	ldr	r3, [sp, #12]
 80074d0:	1d1a      	adds	r2, r3, #4
 80074d2:	681b      	ldr	r3, [r3, #0]
 80074d4:	9203      	str	r2, [sp, #12]
 80074d6:	2b00      	cmp	r3, #0
 80074d8:	bfb8      	it	lt
 80074da:	f04f 33ff 	movlt.w	r3, #4294967295
 80074de:	3402      	adds	r4, #2
 80074e0:	9305      	str	r3, [sp, #20]
 80074e2:	f8df a0e4 	ldr.w	sl, [pc, #228]	; 80075c8 <_vfiprintf_r+0x25c>
 80074e6:	7821      	ldrb	r1, [r4, #0]
 80074e8:	2203      	movs	r2, #3
 80074ea:	4650      	mov	r0, sl
 80074ec:	f7f8 fe80 	bl	80001f0 <memchr>
 80074f0:	b140      	cbz	r0, 8007504 <_vfiprintf_r+0x198>
 80074f2:	2340      	movs	r3, #64	; 0x40
 80074f4:	eba0 000a 	sub.w	r0, r0, sl
 80074f8:	fa03 f000 	lsl.w	r0, r3, r0
 80074fc:	9b04      	ldr	r3, [sp, #16]
 80074fe:	4303      	orrs	r3, r0
 8007500:	3401      	adds	r4, #1
 8007502:	9304      	str	r3, [sp, #16]
 8007504:	f814 1b01 	ldrb.w	r1, [r4], #1
 8007508:	482c      	ldr	r0, [pc, #176]	; (80075bc <_vfiprintf_r+0x250>)
 800750a:	f88d 1028 	strb.w	r1, [sp, #40]	; 0x28
 800750e:	2206      	movs	r2, #6
 8007510:	f7f8 fe6e 	bl	80001f0 <memchr>
 8007514:	2800      	cmp	r0, #0
 8007516:	d03f      	beq.n	8007598 <_vfiprintf_r+0x22c>
 8007518:	4b29      	ldr	r3, [pc, #164]	; (80075c0 <_vfiprintf_r+0x254>)
 800751a:	bb1b      	cbnz	r3, 8007564 <_vfiprintf_r+0x1f8>
 800751c:	9b03      	ldr	r3, [sp, #12]
 800751e:	3307      	adds	r3, #7
 8007520:	f023 0307 	bic.w	r3, r3, #7
 8007524:	3308      	adds	r3, #8
 8007526:	9303      	str	r3, [sp, #12]
 8007528:	9b09      	ldr	r3, [sp, #36]	; 0x24
 800752a:	443b      	add	r3, r7
 800752c:	9309      	str	r3, [sp, #36]	; 0x24
 800752e:	e767      	b.n	8007400 <_vfiprintf_r+0x94>
 8007530:	fb0c 3202 	mla	r2, ip, r2, r3
 8007534:	460c      	mov	r4, r1
 8007536:	2001      	movs	r0, #1
 8007538:	e7a5      	b.n	8007486 <_vfiprintf_r+0x11a>
 800753a:	2300      	movs	r3, #0
 800753c:	3401      	adds	r4, #1
 800753e:	9305      	str	r3, [sp, #20]
 8007540:	4619      	mov	r1, r3
 8007542:	f04f 0c0a 	mov.w	ip, #10
 8007546:	4620      	mov	r0, r4
 8007548:	f810 2b01 	ldrb.w	r2, [r0], #1
 800754c:	3a30      	subs	r2, #48	; 0x30
 800754e:	2a09      	cmp	r2, #9
 8007550:	d903      	bls.n	800755a <_vfiprintf_r+0x1ee>
 8007552:	2b00      	cmp	r3, #0
 8007554:	d0c5      	beq.n	80074e2 <_vfiprintf_r+0x176>
 8007556:	9105      	str	r1, [sp, #20]
 8007558:	e7c3      	b.n	80074e2 <_vfiprintf_r+0x176>
 800755a:	fb0c 2101 	mla	r1, ip, r1, r2
 800755e:	4604      	mov	r4, r0
 8007560:	2301      	movs	r3, #1
 8007562:	e7f0      	b.n	8007546 <_vfiprintf_r+0x1da>
 8007564:	ab03      	add	r3, sp, #12
 8007566:	9300      	str	r3, [sp, #0]
 8007568:	462a      	mov	r2, r5
 800756a:	4b16      	ldr	r3, [pc, #88]	; (80075c4 <_vfiprintf_r+0x258>)
 800756c:	a904      	add	r1, sp, #16
 800756e:	4630      	mov	r0, r6
 8007570:	f7fc f84e 	bl	8003610 <_printf_float>
 8007574:	4607      	mov	r7, r0
 8007576:	1c78      	adds	r0, r7, #1
 8007578:	d1d6      	bne.n	8007528 <_vfiprintf_r+0x1bc>
 800757a:	6e6b      	ldr	r3, [r5, #100]	; 0x64
 800757c:	07d9      	lsls	r1, r3, #31
 800757e:	d405      	bmi.n	800758c <_vfiprintf_r+0x220>
 8007580:	89ab      	ldrh	r3, [r5, #12]
 8007582:	059a      	lsls	r2, r3, #22
 8007584:	d402      	bmi.n	800758c <_vfiprintf_r+0x220>
 8007586:	6da8      	ldr	r0, [r5, #88]	; 0x58
 8007588:	f000 faa1 	bl	8007ace <__retarget_lock_release_recursive>
 800758c:	89ab      	ldrh	r3, [r5, #12]
 800758e:	065b      	lsls	r3, r3, #25
 8007590:	f53f af12 	bmi.w	80073b8 <_vfiprintf_r+0x4c>
 8007594:	9809      	ldr	r0, [sp, #36]	; 0x24
 8007596:	e711      	b.n	80073bc <_vfiprintf_r+0x50>
 8007598:	ab03      	add	r3, sp, #12
 800759a:	9300      	str	r3, [sp, #0]
 800759c:	462a      	mov	r2, r5
 800759e:	4b09      	ldr	r3, [pc, #36]	; (80075c4 <_vfiprintf_r+0x258>)
 80075a0:	a904      	add	r1, sp, #16
 80075a2:	4630      	mov	r0, r6
 80075a4:	f7fc fad8 	bl	8003b58 <_printf_i>
 80075a8:	e7e4      	b.n	8007574 <_vfiprintf_r+0x208>
 80075aa:	bf00      	nop
 80075ac:	080084fc 	.word	0x080084fc
 80075b0:	0800851c 	.word	0x0800851c
 80075b4:	080084dc 	.word	0x080084dc
 80075b8:	0800848c 	.word	0x0800848c
 80075bc:	08008496 	.word	0x08008496
 80075c0:	08003611 	.word	0x08003611
 80075c4:	08007347 	.word	0x08007347
 80075c8:	08008492 	.word	0x08008492

080075cc <__swbuf_r>:
 80075cc:	b5f8      	push	{r3, r4, r5, r6, r7, lr}
 80075ce:	460e      	mov	r6, r1
 80075d0:	4614      	mov	r4, r2
 80075d2:	4605      	mov	r5, r0
 80075d4:	b118      	cbz	r0, 80075de <__swbuf_r+0x12>
 80075d6:	6983      	ldr	r3, [r0, #24]
 80075d8:	b90b      	cbnz	r3, 80075de <__swbuf_r+0x12>
 80075da:	f000 f9d9 	bl	8007990 <__sinit>
 80075de:	4b21      	ldr	r3, [pc, #132]	; (8007664 <__swbuf_r+0x98>)
 80075e0:	429c      	cmp	r4, r3
 80075e2:	d12b      	bne.n	800763c <__swbuf_r+0x70>
 80075e4:	686c      	ldr	r4, [r5, #4]
 80075e6:	69a3      	ldr	r3, [r4, #24]
 80075e8:	60a3      	str	r3, [r4, #8]
 80075ea:	89a3      	ldrh	r3, [r4, #12]
 80075ec:	071a      	lsls	r2, r3, #28
 80075ee:	d52f      	bpl.n	8007650 <__swbuf_r+0x84>
 80075f0:	6923      	ldr	r3, [r4, #16]
 80075f2:	b36b      	cbz	r3, 8007650 <__swbuf_r+0x84>
 80075f4:	6923      	ldr	r3, [r4, #16]
 80075f6:	6820      	ldr	r0, [r4, #0]
 80075f8:	1ac0      	subs	r0, r0, r3
 80075fa:	6963      	ldr	r3, [r4, #20]
 80075fc:	b2f6      	uxtb	r6, r6
 80075fe:	4283      	cmp	r3, r0
 8007600:	4637      	mov	r7, r6
 8007602:	dc04      	bgt.n	800760e <__swbuf_r+0x42>
 8007604:	4621      	mov	r1, r4
 8007606:	4628      	mov	r0, r5
 8007608:	f000 f92e 	bl	8007868 <_fflush_r>
 800760c:	bb30      	cbnz	r0, 800765c <__swbuf_r+0x90>
 800760e:	68a3      	ldr	r3, [r4, #8]
 8007610:	3b01      	subs	r3, #1
 8007612:	60a3      	str	r3, [r4, #8]
 8007614:	6823      	ldr	r3, [r4, #0]
 8007616:	1c5a      	adds	r2, r3, #1
 8007618:	6022      	str	r2, [r4, #0]
 800761a:	701e      	strb	r6, [r3, #0]
 800761c:	6963      	ldr	r3, [r4, #20]
 800761e:	3001      	adds	r0, #1
 8007620:	4283      	cmp	r3, r0
 8007622:	d004      	beq.n	800762e <__swbuf_r+0x62>
 8007624:	89a3      	ldrh	r3, [r4, #12]
 8007626:	07db      	lsls	r3, r3, #31
 8007628:	d506      	bpl.n	8007638 <__swbuf_r+0x6c>
 800762a:	2e0a      	cmp	r6, #10
 800762c:	d104      	bne.n	8007638 <__swbuf_r+0x6c>
 800762e:	4621      	mov	r1, r4
 8007630:	4628      	mov	r0, r5
 8007632:	f000 f919 	bl	8007868 <_fflush_r>
 8007636:	b988      	cbnz	r0, 800765c <__swbuf_r+0x90>
 8007638:	4638      	mov	r0, r7
 800763a:	bdf8      	pop	{r3, r4, r5, r6, r7, pc}
 800763c:	4b0a      	ldr	r3, [pc, #40]	; (8007668 <__swbuf_r+0x9c>)
 800763e:	429c      	cmp	r4, r3
 8007640:	d101      	bne.n	8007646 <__swbuf_r+0x7a>
 8007642:	68ac      	ldr	r4, [r5, #8]
 8007644:	e7cf      	b.n	80075e6 <__swbuf_r+0x1a>
 8007646:	4b09      	ldr	r3, [pc, #36]	; (800766c <__swbuf_r+0xa0>)
 8007648:	429c      	cmp	r4, r3
 800764a:	bf08      	it	eq
 800764c:	68ec      	ldreq	r4, [r5, #12]
 800764e:	e7ca      	b.n	80075e6 <__swbuf_r+0x1a>
 8007650:	4621      	mov	r1, r4
 8007652:	4628      	mov	r0, r5
 8007654:	f000 f80c 	bl	8007670 <__swsetup_r>
 8007658:	2800      	cmp	r0, #0
 800765a:	d0cb      	beq.n	80075f4 <__swbuf_r+0x28>
 800765c:	f04f 37ff 	mov.w	r7, #4294967295
 8007660:	e7ea      	b.n	8007638 <__swbuf_r+0x6c>
 8007662:	bf00      	nop
 8007664:	080084fc 	.word	0x080084fc
 8007668:	0800851c 	.word	0x0800851c
 800766c:	080084dc 	.word	0x080084dc

08007670 <__swsetup_r>:
 8007670:	4b32      	ldr	r3, [pc, #200]	; (800773c <__swsetup_r+0xcc>)
 8007672:	b570      	push	{r4, r5, r6, lr}
 8007674:	681d      	ldr	r5, [r3, #0]
 8007676:	4606      	mov	r6, r0
 8007678:	460c      	mov	r4, r1
 800767a:	b125      	cbz	r5, 8007686 <__swsetup_r+0x16>
 800767c:	69ab      	ldr	r3, [r5, #24]
 800767e:	b913      	cbnz	r3, 8007686 <__swsetup_r+0x16>
 8007680:	4628      	mov	r0, r5
 8007682:	f000 f985 	bl	8007990 <__sinit>
 8007686:	4b2e      	ldr	r3, [pc, #184]	; (8007740 <__swsetup_r+0xd0>)
 8007688:	429c      	cmp	r4, r3
 800768a:	d10f      	bne.n	80076ac <__swsetup_r+0x3c>
 800768c:	686c      	ldr	r4, [r5, #4]
 800768e:	89a3      	ldrh	r3, [r4, #12]
 8007690:	f9b4 200c 	ldrsh.w	r2, [r4, #12]
 8007694:	0719      	lsls	r1, r3, #28
 8007696:	d42c      	bmi.n	80076f2 <__swsetup_r+0x82>
 8007698:	06dd      	lsls	r5, r3, #27
 800769a:	d411      	bmi.n	80076c0 <__swsetup_r+0x50>
 800769c:	2309      	movs	r3, #9
 800769e:	6033      	str	r3, [r6, #0]
 80076a0:	f042 0340 	orr.w	r3, r2, #64	; 0x40
 80076a4:	81a3      	strh	r3, [r4, #12]
 80076a6:	f04f 30ff 	mov.w	r0, #4294967295
 80076aa:	e03e      	b.n	800772a <__swsetup_r+0xba>
 80076ac:	4b25      	ldr	r3, [pc, #148]	; (8007744 <__swsetup_r+0xd4>)
 80076ae:	429c      	cmp	r4, r3
 80076b0:	d101      	bne.n	80076b6 <__swsetup_r+0x46>
 80076b2:	68ac      	ldr	r4, [r5, #8]
 80076b4:	e7eb      	b.n	800768e <__swsetup_r+0x1e>
 80076b6:	4b24      	ldr	r3, [pc, #144]	; (8007748 <__swsetup_r+0xd8>)
 80076b8:	429c      	cmp	r4, r3
 80076ba:	bf08      	it	eq
 80076bc:	68ec      	ldreq	r4, [r5, #12]
 80076be:	e7e6      	b.n	800768e <__swsetup_r+0x1e>
 80076c0:	0758      	lsls	r0, r3, #29
 80076c2:	d512      	bpl.n	80076ea <__swsetup_r+0x7a>
 80076c4:	6b61      	ldr	r1, [r4, #52]	; 0x34
 80076c6:	b141      	cbz	r1, 80076da <__swsetup_r+0x6a>
 80076c8:	f104 0344 	add.w	r3, r4, #68	; 0x44
 80076cc:	4299      	cmp	r1, r3
 80076ce:	d002      	beq.n	80076d6 <__swsetup_r+0x66>
 80076d0:	4630      	mov	r0, r6
 80076d2:	f7ff fb67 	bl	8006da4 <_free_r>
 80076d6:	2300      	movs	r3, #0
 80076d8:	6363      	str	r3, [r4, #52]	; 0x34
 80076da:	89a3      	ldrh	r3, [r4, #12]
 80076dc:	f023 0324 	bic.w	r3, r3, #36	; 0x24
 80076e0:	81a3      	strh	r3, [r4, #12]
 80076e2:	2300      	movs	r3, #0
 80076e4:	6063      	str	r3, [r4, #4]
 80076e6:	6923      	ldr	r3, [r4, #16]
 80076e8:	6023      	str	r3, [r4, #0]
 80076ea:	89a3      	ldrh	r3, [r4, #12]
 80076ec:	f043 0308 	orr.w	r3, r3, #8
 80076f0:	81a3      	strh	r3, [r4, #12]
 80076f2:	6923      	ldr	r3, [r4, #16]
 80076f4:	b94b      	cbnz	r3, 800770a <__swsetup_r+0x9a>
 80076f6:	89a3      	ldrh	r3, [r4, #12]
 80076f8:	f403 7320 	and.w	r3, r3, #640	; 0x280
 80076fc:	f5b3 7f00 	cmp.w	r3, #512	; 0x200
 8007700:	d003      	beq.n	800770a <__swsetup_r+0x9a>
 8007702:	4621      	mov	r1, r4
 8007704:	4630      	mov	r0, r6
 8007706:	f000 fa07 	bl	8007b18 <__smakebuf_r>
 800770a:	89a0      	ldrh	r0, [r4, #12]
 800770c:	f9b4 200c 	ldrsh.w	r2, [r4, #12]
 8007710:	f010 0301 	ands.w	r3, r0, #1
 8007714:	d00a      	beq.n	800772c <__swsetup_r+0xbc>
 8007716:	2300      	movs	r3, #0
 8007718:	60a3      	str	r3, [r4, #8]
 800771a:	6963      	ldr	r3, [r4, #20]
 800771c:	425b      	negs	r3, r3
 800771e:	61a3      	str	r3, [r4, #24]
 8007720:	6923      	ldr	r3, [r4, #16]
 8007722:	b943      	cbnz	r3, 8007736 <__swsetup_r+0xc6>
 8007724:	f010 0080 	ands.w	r0, r0, #128	; 0x80
 8007728:	d1ba      	bne.n	80076a0 <__swsetup_r+0x30>
 800772a:	bd70      	pop	{r4, r5, r6, pc}
 800772c:	0781      	lsls	r1, r0, #30
 800772e:	bf58      	it	pl
 8007730:	6963      	ldrpl	r3, [r4, #20]
 8007732:	60a3      	str	r3, [r4, #8]
 8007734:	e7f4      	b.n	8007720 <__swsetup_r+0xb0>
 8007736:	2000      	movs	r0, #0
 8007738:	e7f7      	b.n	800772a <__swsetup_r+0xba>
 800773a:	bf00      	nop
 800773c:	2000000c 	.word	0x2000000c
 8007740:	080084fc 	.word	0x080084fc
 8007744:	0800851c 	.word	0x0800851c
 8007748:	080084dc 	.word	0x080084dc

0800774c <abort>:
 800774c:	b508      	push	{r3, lr}
 800774e:	2006      	movs	r0, #6
 8007750:	f000 fa52 	bl	8007bf8 <raise>
 8007754:	2001      	movs	r0, #1
 8007756:	f7fb fd9f 	bl	8003298 <_exit>
	...

0800775c <__sflush_r>:
 800775c:	898a      	ldrh	r2, [r1, #12]
 800775e:	e92d 41f0 	stmdb	sp!, {r4, r5, r6, r7, r8, lr}
 8007762:	4605      	mov	r5, r0
 8007764:	0710      	lsls	r0, r2, #28
 8007766:	460c      	mov	r4, r1
 8007768:	d458      	bmi.n	800781c <__sflush_r+0xc0>
 800776a:	684b      	ldr	r3, [r1, #4]
 800776c:	2b00      	cmp	r3, #0
 800776e:	dc05      	bgt.n	800777c <__sflush_r+0x20>
 8007770:	6c0b      	ldr	r3, [r1, #64]	; 0x40
 8007772:	2b00      	cmp	r3, #0
 8007774:	dc02      	bgt.n	800777c <__sflush_r+0x20>
 8007776:	2000      	movs	r0, #0
 8007778:	e8bd 81f0 	ldmia.w	sp!, {r4, r5, r6, r7, r8, pc}
 800777c:	6ae6      	ldr	r6, [r4, #44]	; 0x2c
 800777e:	2e00      	cmp	r6, #0
 8007780:	d0f9      	beq.n	8007776 <__sflush_r+0x1a>
 8007782:	2300      	movs	r3, #0
 8007784:	f412 5280 	ands.w	r2, r2, #4096	; 0x1000
 8007788:	682f      	ldr	r7, [r5, #0]
 800778a:	602b      	str	r3, [r5, #0]
 800778c:	d032      	beq.n	80077f4 <__sflush_r+0x98>
 800778e:	6d60      	ldr	r0, [r4, #84]	; 0x54
 8007790:	89a3      	ldrh	r3, [r4, #12]
 8007792:	075a      	lsls	r2, r3, #29
 8007794:	d505      	bpl.n	80077a2 <__sflush_r+0x46>
 8007796:	6863      	ldr	r3, [r4, #4]
 8007798:	1ac0      	subs	r0, r0, r3
 800779a:	6b63      	ldr	r3, [r4, #52]	; 0x34
 800779c:	b10b      	cbz	r3, 80077a2 <__sflush_r+0x46>
 800779e:	6c23      	ldr	r3, [r4, #64]	; 0x40
 80077a0:	1ac0      	subs	r0, r0, r3
 80077a2:	2300      	movs	r3, #0
 80077a4:	4602      	mov	r2, r0
 80077a6:	6ae6      	ldr	r6, [r4, #44]	; 0x2c
 80077a8:	6a21      	ldr	r1, [r4, #32]
 80077aa:	4628      	mov	r0, r5
 80077ac:	47b0      	blx	r6
 80077ae:	1c43      	adds	r3, r0, #1
 80077b0:	89a3      	ldrh	r3, [r4, #12]
 80077b2:	d106      	bne.n	80077c2 <__sflush_r+0x66>
 80077b4:	6829      	ldr	r1, [r5, #0]
 80077b6:	291d      	cmp	r1, #29
 80077b8:	d82c      	bhi.n	8007814 <__sflush_r+0xb8>
 80077ba:	4a2a      	ldr	r2, [pc, #168]	; (8007864 <__sflush_r+0x108>)
 80077bc:	40ca      	lsrs	r2, r1
 80077be:	07d6      	lsls	r6, r2, #31
 80077c0:	d528      	bpl.n	8007814 <__sflush_r+0xb8>
 80077c2:	2200      	movs	r2, #0
 80077c4:	6062      	str	r2, [r4, #4]
 80077c6:	04d9      	lsls	r1, r3, #19
 80077c8:	6922      	ldr	r2, [r4, #16]
 80077ca:	6022      	str	r2, [r4, #0]
 80077cc:	d504      	bpl.n	80077d8 <__sflush_r+0x7c>
 80077ce:	1c42      	adds	r2, r0, #1
 80077d0:	d101      	bne.n	80077d6 <__sflush_r+0x7a>
 80077d2:	682b      	ldr	r3, [r5, #0]
 80077d4:	b903      	cbnz	r3, 80077d8 <__sflush_r+0x7c>
 80077d6:	6560      	str	r0, [r4, #84]	; 0x54
 80077d8:	6b61      	ldr	r1, [r4, #52]	; 0x34
 80077da:	602f      	str	r7, [r5, #0]
 80077dc:	2900      	cmp	r1, #0
 80077de:	d0ca      	beq.n	8007776 <__sflush_r+0x1a>
 80077e0:	f104 0344 	add.w	r3, r4, #68	; 0x44
 80077e4:	4299      	cmp	r1, r3
 80077e6:	d002      	beq.n	80077ee <__sflush_r+0x92>
 80077e8:	4628      	mov	r0, r5
 80077ea:	f7ff fadb 	bl	8006da4 <_free_r>
 80077ee:	2000      	movs	r0, #0
 80077f0:	6360      	str	r0, [r4, #52]	; 0x34
 80077f2:	e7c1      	b.n	8007778 <__sflush_r+0x1c>
 80077f4:	6a21      	ldr	r1, [r4, #32]
 80077f6:	2301      	movs	r3, #1
 80077f8:	4628      	mov	r0, r5
 80077fa:	47b0      	blx	r6
 80077fc:	1c41      	adds	r1, r0, #1
 80077fe:	d1c7      	bne.n	8007790 <__sflush_r+0x34>
 8007800:	682b      	ldr	r3, [r5, #0]
 8007802:	2b00      	cmp	r3, #0
 8007804:	d0c4      	beq.n	8007790 <__sflush_r+0x34>
 8007806:	2b1d      	cmp	r3, #29
 8007808:	d001      	beq.n	800780e <__sflush_r+0xb2>
 800780a:	2b16      	cmp	r3, #22
 800780c:	d101      	bne.n	8007812 <__sflush_r+0xb6>
 800780e:	602f      	str	r7, [r5, #0]
 8007810:	e7b1      	b.n	8007776 <__sflush_r+0x1a>
 8007812:	89a3      	ldrh	r3, [r4, #12]
 8007814:	f043 0340 	orr.w	r3, r3, #64	; 0x40
 8007818:	81a3      	strh	r3, [r4, #12]
 800781a:	e7ad      	b.n	8007778 <__sflush_r+0x1c>
 800781c:	690f      	ldr	r7, [r1, #16]
 800781e:	2f00      	cmp	r7, #0
 8007820:	d0a9      	beq.n	8007776 <__sflush_r+0x1a>
 8007822:	0793      	lsls	r3, r2, #30
 8007824:	680e      	ldr	r6, [r1, #0]
 8007826:	bf08      	it	eq
 8007828:	694b      	ldreq	r3, [r1, #20]
 800782a:	600f      	str	r7, [r1, #0]
 800782c:	bf18      	it	ne
 800782e:	2300      	movne	r3, #0
 8007830:	eba6 0807 	sub.w	r8, r6, r7
 8007834:	608b      	str	r3, [r1, #8]
 8007836:	f1b8 0f00 	cmp.w	r8, #0
 800783a:	dd9c      	ble.n	8007776 <__sflush_r+0x1a>
 800783c:	6a21      	ldr	r1, [r4, #32]
 800783e:	6aa6      	ldr	r6, [r4, #40]	; 0x28
 8007840:	4643      	mov	r3, r8
 8007842:	463a      	mov	r2, r7
 8007844:	4628      	mov	r0, r5
 8007846:	47b0      	blx	r6
 8007848:	2800      	cmp	r0, #0
 800784a:	dc06      	bgt.n	800785a <__sflush_r+0xfe>
 800784c:	89a3      	ldrh	r3, [r4, #12]
 800784e:	f043 0340 	orr.w	r3, r3, #64	; 0x40
 8007852:	81a3      	strh	r3, [r4, #12]
 8007854:	f04f 30ff 	mov.w	r0, #4294967295
 8007858:	e78e      	b.n	8007778 <__sflush_r+0x1c>
 800785a:	4407      	add	r7, r0
 800785c:	eba8 0800 	sub.w	r8, r8, r0
 8007860:	e7e9      	b.n	8007836 <__sflush_r+0xda>
 8007862:	bf00      	nop
 8007864:	20400001 	.word	0x20400001

08007868 <_fflush_r>:
 8007868:	b538      	push	{r3, r4, r5, lr}
 800786a:	690b      	ldr	r3, [r1, #16]
 800786c:	4605      	mov	r5, r0
 800786e:	460c      	mov	r4, r1
 8007870:	b913      	cbnz	r3, 8007878 <_fflush_r+0x10>
 8007872:	2500      	movs	r5, #0
 8007874:	4628      	mov	r0, r5
 8007876:	bd38      	pop	{r3, r4, r5, pc}
 8007878:	b118      	cbz	r0, 8007882 <_fflush_r+0x1a>
 800787a:	6983      	ldr	r3, [r0, #24]
 800787c:	b90b      	cbnz	r3, 8007882 <_fflush_r+0x1a>
 800787e:	f000 f887 	bl	8007990 <__sinit>
 8007882:	4b14      	ldr	r3, [pc, #80]	; (80078d4 <_fflush_r+0x6c>)
 8007884:	429c      	cmp	r4, r3
 8007886:	d11b      	bne.n	80078c0 <_fflush_r+0x58>
 8007888:	686c      	ldr	r4, [r5, #4]
 800788a:	f9b4 300c 	ldrsh.w	r3, [r4, #12]
 800788e:	2b00      	cmp	r3, #0
 8007890:	d0ef      	beq.n	8007872 <_fflush_r+0xa>
 8007892:	6e62      	ldr	r2, [r4, #100]	; 0x64
 8007894:	07d0      	lsls	r0, r2, #31
 8007896:	d404      	bmi.n	80078a2 <_fflush_r+0x3a>
 8007898:	0599      	lsls	r1, r3, #22
 800789a:	d402      	bmi.n	80078a2 <_fflush_r+0x3a>
 800789c:	6da0      	ldr	r0, [r4, #88]	; 0x58
 800789e:	f000 f915 	bl	8007acc <__retarget_lock_acquire_recursive>
 80078a2:	4628      	mov	r0, r5
 80078a4:	4621      	mov	r1, r4
 80078a6:	f7ff ff59 	bl	800775c <__sflush_r>
 80078aa:	6e63      	ldr	r3, [r4, #100]	; 0x64
 80078ac:	07da      	lsls	r2, r3, #31
 80078ae:	4605      	mov	r5, r0
 80078b0:	d4e0      	bmi.n	8007874 <_fflush_r+0xc>
 80078b2:	89a3      	ldrh	r3, [r4, #12]
 80078b4:	059b      	lsls	r3, r3, #22
 80078b6:	d4dd      	bmi.n	8007874 <_fflush_r+0xc>
 80078b8:	6da0      	ldr	r0, [r4, #88]	; 0x58
 80078ba:	f000 f908 	bl	8007ace <__retarget_lock_release_recursive>
 80078be:	e7d9      	b.n	8007874 <_fflush_r+0xc>
 80078c0:	4b05      	ldr	r3, [pc, #20]	; (80078d8 <_fflush_r+0x70>)
 80078c2:	429c      	cmp	r4, r3
 80078c4:	d101      	bne.n	80078ca <_fflush_r+0x62>
 80078c6:	68ac      	ldr	r4, [r5, #8]
 80078c8:	e7df      	b.n	800788a <_fflush_r+0x22>
 80078ca:	4b04      	ldr	r3, [pc, #16]	; (80078dc <_fflush_r+0x74>)
 80078cc:	429c      	cmp	r4, r3
 80078ce:	bf08      	it	eq
 80078d0:	68ec      	ldreq	r4, [r5, #12]
 80078d2:	e7da      	b.n	800788a <_fflush_r+0x22>
 80078d4:	080084fc 	.word	0x080084fc
 80078d8:	0800851c 	.word	0x0800851c
 80078dc:	080084dc 	.word	0x080084dc

080078e0 <std>:
 80078e0:	2300      	movs	r3, #0
 80078e2:	b510      	push	{r4, lr}
 80078e4:	4604      	mov	r4, r0
 80078e6:	e9c0 3300 	strd	r3, r3, [r0]
 80078ea:	e9c0 3304 	strd	r3, r3, [r0, #16]
 80078ee:	6083      	str	r3, [r0, #8]
 80078f0:	8181      	strh	r1, [r0, #12]
 80078f2:	6643      	str	r3, [r0, #100]	; 0x64
 80078f4:	81c2      	strh	r2, [r0, #14]
 80078f6:	6183      	str	r3, [r0, #24]
 80078f8:	4619      	mov	r1, r3
 80078fa:	2208      	movs	r2, #8
 80078fc:	305c      	adds	r0, #92	; 0x5c
 80078fe:	f7fb fddf 	bl	80034c0 <memset>
 8007902:	4b05      	ldr	r3, [pc, #20]	; (8007918 <std+0x38>)
 8007904:	6263      	str	r3, [r4, #36]	; 0x24
 8007906:	4b05      	ldr	r3, [pc, #20]	; (800791c <std+0x3c>)
 8007908:	62a3      	str	r3, [r4, #40]	; 0x28
 800790a:	4b05      	ldr	r3, [pc, #20]	; (8007920 <std+0x40>)
 800790c:	62e3      	str	r3, [r4, #44]	; 0x2c
 800790e:	4b05      	ldr	r3, [pc, #20]	; (8007924 <std+0x44>)
 8007910:	6224      	str	r4, [r4, #32]
 8007912:	6323      	str	r3, [r4, #48]	; 0x30
 8007914:	bd10      	pop	{r4, pc}
 8007916:	bf00      	nop
 8007918:	08007c31 	.word	0x08007c31
 800791c:	08007c53 	.word	0x08007c53
 8007920:	08007c8b 	.word	0x08007c8b
 8007924:	08007caf 	.word	0x08007caf

08007928 <_cleanup_r>:
 8007928:	4901      	ldr	r1, [pc, #4]	; (8007930 <_cleanup_r+0x8>)
 800792a:	f000 b8af 	b.w	8007a8c <_fwalk_reent>
 800792e:	bf00      	nop
 8007930:	08007869 	.word	0x08007869

08007934 <__sfmoreglue>:
 8007934:	b570      	push	{r4, r5, r6, lr}
 8007936:	1e4a      	subs	r2, r1, #1
 8007938:	2568      	movs	r5, #104	; 0x68
 800793a:	4355      	muls	r5, r2
 800793c:	460e      	mov	r6, r1
 800793e:	f105 0174 	add.w	r1, r5, #116	; 0x74
 8007942:	f7ff fa7f 	bl	8006e44 <_malloc_r>
 8007946:	4604      	mov	r4, r0
 8007948:	b140      	cbz	r0, 800795c <__sfmoreglue+0x28>
 800794a:	2100      	movs	r1, #0
 800794c:	e9c0 1600 	strd	r1, r6, [r0]
 8007950:	300c      	adds	r0, #12
 8007952:	60a0      	str	r0, [r4, #8]
 8007954:	f105 0268 	add.w	r2, r5, #104	; 0x68
 8007958:	f7fb fdb2 	bl	80034c0 <memset>
 800795c:	4620      	mov	r0, r4
 800795e:	bd70      	pop	{r4, r5, r6, pc}

08007960 <__sfp_lock_acquire>:
 8007960:	4801      	ldr	r0, [pc, #4]	; (8007968 <__sfp_lock_acquire+0x8>)
 8007962:	f000 b8b3 	b.w	8007acc <__retarget_lock_acquire_recursive>
 8007966:	bf00      	nop
 8007968:	20000318 	.word	0x20000318

0800796c <__sfp_lock_release>:
 800796c:	4801      	ldr	r0, [pc, #4]	; (8007974 <__sfp_lock_release+0x8>)
 800796e:	f000 b8ae 	b.w	8007ace <__retarget_lock_release_recursive>
 8007972:	bf00      	nop
 8007974:	20000318 	.word	0x20000318

08007978 <__sinit_lock_acquire>:
 8007978:	4801      	ldr	r0, [pc, #4]	; (8007980 <__sinit_lock_acquire+0x8>)
 800797a:	f000 b8a7 	b.w	8007acc <__retarget_lock_acquire_recursive>
 800797e:	bf00      	nop
 8007980:	20000313 	.word	0x20000313

08007984 <__sinit_lock_release>:
 8007984:	4801      	ldr	r0, [pc, #4]	; (800798c <__sinit_lock_release+0x8>)
 8007986:	f000 b8a2 	b.w	8007ace <__retarget_lock_release_recursive>
 800798a:	bf00      	nop
 800798c:	20000313 	.word	0x20000313

08007990 <__sinit>:
 8007990:	b510      	push	{r4, lr}
 8007992:	4604      	mov	r4, r0
 8007994:	f7ff fff0 	bl	8007978 <__sinit_lock_acquire>
 8007998:	69a3      	ldr	r3, [r4, #24]
 800799a:	b11b      	cbz	r3, 80079a4 <__sinit+0x14>
 800799c:	e8bd 4010 	ldmia.w	sp!, {r4, lr}
 80079a0:	f7ff bff0 	b.w	8007984 <__sinit_lock_release>
 80079a4:	e9c4 3312 	strd	r3, r3, [r4, #72]	; 0x48
 80079a8:	6523      	str	r3, [r4, #80]	; 0x50
 80079aa:	4b13      	ldr	r3, [pc, #76]	; (80079f8 <__sinit+0x68>)
 80079ac:	4a13      	ldr	r2, [pc, #76]	; (80079fc <__sinit+0x6c>)
 80079ae:	681b      	ldr	r3, [r3, #0]
 80079b0:	62a2      	str	r2, [r4, #40]	; 0x28
 80079b2:	42a3      	cmp	r3, r4
 80079b4:	bf04      	itt	eq
 80079b6:	2301      	moveq	r3, #1
 80079b8:	61a3      	streq	r3, [r4, #24]
 80079ba:	4620      	mov	r0, r4
 80079bc:	f000 f820 	bl	8007a00 <__sfp>
 80079c0:	6060      	str	r0, [r4, #4]
 80079c2:	4620      	mov	r0, r4
 80079c4:	f000 f81c 	bl	8007a00 <__sfp>
 80079c8:	60a0      	str	r0, [r4, #8]
 80079ca:	4620      	mov	r0, r4
 80079cc:	f000 f818 	bl	8007a00 <__sfp>
 80079d0:	2200      	movs	r2, #0
 80079d2:	60e0      	str	r0, [r4, #12]
 80079d4:	2104      	movs	r1, #4
 80079d6:	6860      	ldr	r0, [r4, #4]
 80079d8:	f7ff ff82 	bl	80078e0 <std>
 80079dc:	68a0      	ldr	r0, [r4, #8]
 80079de:	2201      	movs	r2, #1
 80079e0:	2109      	movs	r1, #9
 80079e2:	f7ff ff7d 	bl	80078e0 <std>
 80079e6:	68e0      	ldr	r0, [r4, #12]
 80079e8:	2202      	movs	r2, #2
 80079ea:	2112      	movs	r1, #18
 80079ec:	f7ff ff78 	bl	80078e0 <std>
 80079f0:	2301      	movs	r3, #1
 80079f2:	61a3      	str	r3, [r4, #24]
 80079f4:	e7d2      	b.n	800799c <__sinit+0xc>
 80079f6:	bf00      	nop
 80079f8:	08008084 	.word	0x08008084
 80079fc:	08007929 	.word	0x08007929

08007a00 <__sfp>:
 8007a00:	b5f8      	push	{r3, r4, r5, r6, r7, lr}
 8007a02:	4607      	mov	r7, r0
 8007a04:	f7ff ffac 	bl	8007960 <__sfp_lock_acquire>
 8007a08:	4b1e      	ldr	r3, [pc, #120]	; (8007a84 <__sfp+0x84>)
 8007a0a:	681e      	ldr	r6, [r3, #0]
 8007a0c:	69b3      	ldr	r3, [r6, #24]
 8007a0e:	b913      	cbnz	r3, 8007a16 <__sfp+0x16>
 8007a10:	4630      	mov	r0, r6
 8007a12:	f7ff ffbd 	bl	8007990 <__sinit>
 8007a16:	3648      	adds	r6, #72	; 0x48
 8007a18:	e9d6 3401 	ldrd	r3, r4, [r6, #4]
 8007a1c:	3b01      	subs	r3, #1
 8007a1e:	d503      	bpl.n	8007a28 <__sfp+0x28>
 8007a20:	6833      	ldr	r3, [r6, #0]
 8007a22:	b30b      	cbz	r3, 8007a68 <__sfp+0x68>
 8007a24:	6836      	ldr	r6, [r6, #0]
 8007a26:	e7f7      	b.n	8007a18 <__sfp+0x18>
 8007a28:	f9b4 500c 	ldrsh.w	r5, [r4, #12]
 8007a2c:	b9d5      	cbnz	r5, 8007a64 <__sfp+0x64>
 8007a2e:	4b16      	ldr	r3, [pc, #88]	; (8007a88 <__sfp+0x88>)
 8007a30:	60e3      	str	r3, [r4, #12]
 8007a32:	f104 0058 	add.w	r0, r4, #88	; 0x58
 8007a36:	6665      	str	r5, [r4, #100]	; 0x64
 8007a38:	f000 f847 	bl	8007aca <__retarget_lock_init_recursive>
 8007a3c:	f7ff ff96 	bl	800796c <__sfp_lock_release>
 8007a40:	e9c4 5501 	strd	r5, r5, [r4, #4]
 8007a44:	e9c4 5504 	strd	r5, r5, [r4, #16]
 8007a48:	6025      	str	r5, [r4, #0]
 8007a4a:	61a5      	str	r5, [r4, #24]
 8007a4c:	2208      	movs	r2, #8
 8007a4e:	4629      	mov	r1, r5
 8007a50:	f104 005c 	add.w	r0, r4, #92	; 0x5c
 8007a54:	f7fb fd34 	bl	80034c0 <memset>
 8007a58:	e9c4 550d 	strd	r5, r5, [r4, #52]	; 0x34
 8007a5c:	e9c4 5512 	strd	r5, r5, [r4, #72]	; 0x48
 8007a60:	4620      	mov	r0, r4
 8007a62:	bdf8      	pop	{r3, r4, r5, r6, r7, pc}
 8007a64:	3468      	adds	r4, #104	; 0x68
 8007a66:	e7d9      	b.n	8007a1c <__sfp+0x1c>
 8007a68:	2104      	movs	r1, #4
 8007a6a:	4638      	mov	r0, r7
 8007a6c:	f7ff ff62 	bl	8007934 <__sfmoreglue>
 8007a70:	4604      	mov	r4, r0
 8007a72:	6030      	str	r0, [r6, #0]
 8007a74:	2800      	cmp	r0, #0
 8007a76:	d1d5      	bne.n	8007a24 <__sfp+0x24>
 8007a78:	f7ff ff78 	bl	800796c <__sfp_lock_release>
 8007a7c:	230c      	movs	r3, #12
 8007a7e:	603b      	str	r3, [r7, #0]
 8007a80:	e7ee      	b.n	8007a60 <__sfp+0x60>
 8007a82:	bf00      	nop
 8007a84:	08008084 	.word	0x08008084
 8007a88:	ffff0001 	.word	0xffff0001

08007a8c <_fwalk_reent>:
 8007a8c:	e92d 43f8 	stmdb	sp!, {r3, r4, r5, r6, r7, r8, r9, lr}
 8007a90:	4606      	mov	r6, r0
 8007a92:	4688      	mov	r8, r1
 8007a94:	f100 0448 	add.w	r4, r0, #72	; 0x48
 8007a98:	2700      	movs	r7, #0
 8007a9a:	e9d4 9501 	ldrd	r9, r5, [r4, #4]
 8007a9e:	f1b9 0901 	subs.w	r9, r9, #1
 8007aa2:	d505      	bpl.n	8007ab0 <_fwalk_reent+0x24>
 8007aa4:	6824      	ldr	r4, [r4, #0]
 8007aa6:	2c00      	cmp	r4, #0
 8007aa8:	d1f7      	bne.n	8007a9a <_fwalk_reent+0xe>
 8007aaa:	4638      	mov	r0, r7
 8007aac:	e8bd 83f8 	ldmia.w	sp!, {r3, r4, r5, r6, r7, r8, r9, pc}
 8007ab0:	89ab      	ldrh	r3, [r5, #12]
 8007ab2:	2b01      	cmp	r3, #1
 8007ab4:	d907      	bls.n	8007ac6 <_fwalk_reent+0x3a>
 8007ab6:	f9b5 300e 	ldrsh.w	r3, [r5, #14]
 8007aba:	3301      	adds	r3, #1
 8007abc:	d003      	beq.n	8007ac6 <_fwalk_reent+0x3a>
 8007abe:	4629      	mov	r1, r5
 8007ac0:	4630      	mov	r0, r6
 8007ac2:	47c0      	blx	r8
 8007ac4:	4307      	orrs	r7, r0
 8007ac6:	3568      	adds	r5, #104	; 0x68
 8007ac8:	e7e9      	b.n	8007a9e <_fwalk_reent+0x12>

08007aca <__retarget_lock_init_recursive>:
 8007aca:	4770      	bx	lr

08007acc <__retarget_lock_acquire_recursive>:
 8007acc:	4770      	bx	lr

08007ace <__retarget_lock_release_recursive>:
 8007ace:	4770      	bx	lr

08007ad0 <__swhatbuf_r>:
 8007ad0:	b570      	push	{r4, r5, r6, lr}
 8007ad2:	460e      	mov	r6, r1
 8007ad4:	f9b1 100e 	ldrsh.w	r1, [r1, #14]
 8007ad8:	2900      	cmp	r1, #0
 8007ada:	b096      	sub	sp, #88	; 0x58
 8007adc:	4614      	mov	r4, r2
 8007ade:	461d      	mov	r5, r3
 8007ae0:	da07      	bge.n	8007af2 <__swhatbuf_r+0x22>
 8007ae2:	2300      	movs	r3, #0
 8007ae4:	602b      	str	r3, [r5, #0]
 8007ae6:	89b3      	ldrh	r3, [r6, #12]
 8007ae8:	061a      	lsls	r2, r3, #24
 8007aea:	d410      	bmi.n	8007b0e <__swhatbuf_r+0x3e>
 8007aec:	f44f 6380 	mov.w	r3, #1024	; 0x400
 8007af0:	e00e      	b.n	8007b10 <__swhatbuf_r+0x40>
 8007af2:	466a      	mov	r2, sp
 8007af4:	f000 f902 	bl	8007cfc <_fstat_r>
 8007af8:	2800      	cmp	r0, #0
 8007afa:	dbf2      	blt.n	8007ae2 <__swhatbuf_r+0x12>
 8007afc:	9a01      	ldr	r2, [sp, #4]
 8007afe:	f402 4270 	and.w	r2, r2, #61440	; 0xf000
 8007b02:	f5a2 5300 	sub.w	r3, r2, #8192	; 0x2000
 8007b06:	425a      	negs	r2, r3
 8007b08:	415a      	adcs	r2, r3
 8007b0a:	602a      	str	r2, [r5, #0]
 8007b0c:	e7ee      	b.n	8007aec <__swhatbuf_r+0x1c>
 8007b0e:	2340      	movs	r3, #64	; 0x40
 8007b10:	2000      	movs	r0, #0
 8007b12:	6023      	str	r3, [r4, #0]
 8007b14:	b016      	add	sp, #88	; 0x58
 8007b16:	bd70      	pop	{r4, r5, r6, pc}

08007b18 <__smakebuf_r>:
 8007b18:	898b      	ldrh	r3, [r1, #12]
 8007b1a:	b573      	push	{r0, r1, r4, r5, r6, lr}
 8007b1c:	079d      	lsls	r5, r3, #30
 8007b1e:	4606      	mov	r6, r0
 8007b20:	460c      	mov	r4, r1
 8007b22:	d507      	bpl.n	8007b34 <__smakebuf_r+0x1c>
 8007b24:	f104 0347 	add.w	r3, r4, #71	; 0x47
 8007b28:	6023      	str	r3, [r4, #0]
 8007b2a:	6123      	str	r3, [r4, #16]
 8007b2c:	2301      	movs	r3, #1
 8007b2e:	6163      	str	r3, [r4, #20]
 8007b30:	b002      	add	sp, #8
 8007b32:	bd70      	pop	{r4, r5, r6, pc}
 8007b34:	ab01      	add	r3, sp, #4
 8007b36:	466a      	mov	r2, sp
 8007b38:	f7ff ffca 	bl	8007ad0 <__swhatbuf_r>
 8007b3c:	9900      	ldr	r1, [sp, #0]
 8007b3e:	4605      	mov	r5, r0
 8007b40:	4630      	mov	r0, r6
 8007b42:	f7ff f97f 	bl	8006e44 <_malloc_r>
 8007b46:	b948      	cbnz	r0, 8007b5c <__smakebuf_r+0x44>
 8007b48:	f9b4 300c 	ldrsh.w	r3, [r4, #12]
 8007b4c:	059a      	lsls	r2, r3, #22
 8007b4e:	d4ef      	bmi.n	8007b30 <__smakebuf_r+0x18>
 8007b50:	f023 0303 	bic.w	r3, r3, #3
 8007b54:	f043 0302 	orr.w	r3, r3, #2
 8007b58:	81a3      	strh	r3, [r4, #12]
 8007b5a:	e7e3      	b.n	8007b24 <__smakebuf_r+0xc>
 8007b5c:	4b0d      	ldr	r3, [pc, #52]	; (8007b94 <__smakebuf_r+0x7c>)
 8007b5e:	62b3      	str	r3, [r6, #40]	; 0x28
 8007b60:	89a3      	ldrh	r3, [r4, #12]
 8007b62:	6020      	str	r0, [r4, #0]
 8007b64:	f043 0380 	orr.w	r3, r3, #128	; 0x80
 8007b68:	81a3      	strh	r3, [r4, #12]
 8007b6a:	9b00      	ldr	r3, [sp, #0]
 8007b6c:	6163      	str	r3, [r4, #20]
 8007b6e:	9b01      	ldr	r3, [sp, #4]
 8007b70:	6120      	str	r0, [r4, #16]
 8007b72:	b15b      	cbz	r3, 8007b8c <__smakebuf_r+0x74>
 8007b74:	f9b4 100e 	ldrsh.w	r1, [r4, #14]
 8007b78:	4630      	mov	r0, r6
 8007b7a:	f000 f8d1 	bl	8007d20 <_isatty_r>
 8007b7e:	b128      	cbz	r0, 8007b8c <__smakebuf_r+0x74>
 8007b80:	89a3      	ldrh	r3, [r4, #12]
 8007b82:	f023 0303 	bic.w	r3, r3, #3
 8007b86:	f043 0301 	orr.w	r3, r3, #1
 8007b8a:	81a3      	strh	r3, [r4, #12]
 8007b8c:	89a0      	ldrh	r0, [r4, #12]
 8007b8e:	4305      	orrs	r5, r0
 8007b90:	81a5      	strh	r5, [r4, #12]
 8007b92:	e7cd      	b.n	8007b30 <__smakebuf_r+0x18>
 8007b94:	08007929 	.word	0x08007929

08007b98 <_malloc_usable_size_r>:
 8007b98:	f851 3c04 	ldr.w	r3, [r1, #-4]
 8007b9c:	1f18      	subs	r0, r3, #4
 8007b9e:	2b00      	cmp	r3, #0
 8007ba0:	bfbc      	itt	lt
 8007ba2:	580b      	ldrlt	r3, [r1, r0]
 8007ba4:	18c0      	addlt	r0, r0, r3
 8007ba6:	4770      	bx	lr

08007ba8 <_raise_r>:
 8007ba8:	291f      	cmp	r1, #31
 8007baa:	b538      	push	{r3, r4, r5, lr}
 8007bac:	4604      	mov	r4, r0
 8007bae:	460d      	mov	r5, r1
 8007bb0:	d904      	bls.n	8007bbc <_raise_r+0x14>
 8007bb2:	2316      	movs	r3, #22
 8007bb4:	6003      	str	r3, [r0, #0]
 8007bb6:	f04f 30ff 	mov.w	r0, #4294967295
 8007bba:	bd38      	pop	{r3, r4, r5, pc}
 8007bbc:	6c42      	ldr	r2, [r0, #68]	; 0x44
 8007bbe:	b112      	cbz	r2, 8007bc6 <_raise_r+0x1e>
 8007bc0:	f852 3021 	ldr.w	r3, [r2, r1, lsl #2]
 8007bc4:	b94b      	cbnz	r3, 8007bda <_raise_r+0x32>
 8007bc6:	4620      	mov	r0, r4
 8007bc8:	f000 f830 	bl	8007c2c <_getpid_r>
 8007bcc:	462a      	mov	r2, r5
 8007bce:	4601      	mov	r1, r0
 8007bd0:	4620      	mov	r0, r4
 8007bd2:	e8bd 4038 	ldmia.w	sp!, {r3, r4, r5, lr}
 8007bd6:	f000 b817 	b.w	8007c08 <_kill_r>
 8007bda:	2b01      	cmp	r3, #1
 8007bdc:	d00a      	beq.n	8007bf4 <_raise_r+0x4c>
 8007bde:	1c59      	adds	r1, r3, #1
 8007be0:	d103      	bne.n	8007bea <_raise_r+0x42>
 8007be2:	2316      	movs	r3, #22
 8007be4:	6003      	str	r3, [r0, #0]
 8007be6:	2001      	movs	r0, #1
 8007be8:	e7e7      	b.n	8007bba <_raise_r+0x12>
 8007bea:	2400      	movs	r4, #0
 8007bec:	f842 4025 	str.w	r4, [r2, r5, lsl #2]
 8007bf0:	4628      	mov	r0, r5
 8007bf2:	4798      	blx	r3
 8007bf4:	2000      	movs	r0, #0
 8007bf6:	e7e0      	b.n	8007bba <_raise_r+0x12>

08007bf8 <raise>:
 8007bf8:	4b02      	ldr	r3, [pc, #8]	; (8007c04 <raise+0xc>)
 8007bfa:	4601      	mov	r1, r0
 8007bfc:	6818      	ldr	r0, [r3, #0]
 8007bfe:	f7ff bfd3 	b.w	8007ba8 <_raise_r>
 8007c02:	bf00      	nop
 8007c04:	2000000c 	.word	0x2000000c

08007c08 <_kill_r>:
 8007c08:	b538      	push	{r3, r4, r5, lr}
 8007c0a:	4d07      	ldr	r5, [pc, #28]	; (8007c28 <_kill_r+0x20>)
 8007c0c:	2300      	movs	r3, #0
 8007c0e:	4604      	mov	r4, r0
 8007c10:	4608      	mov	r0, r1
 8007c12:	4611      	mov	r1, r2
 8007c14:	602b      	str	r3, [r5, #0]
 8007c16:	f7fb fb37 	bl	8003288 <_kill>
 8007c1a:	1c43      	adds	r3, r0, #1
 8007c1c:	d102      	bne.n	8007c24 <_kill_r+0x1c>
 8007c1e:	682b      	ldr	r3, [r5, #0]
 8007c20:	b103      	cbz	r3, 8007c24 <_kill_r+0x1c>
 8007c22:	6023      	str	r3, [r4, #0]
 8007c24:	bd38      	pop	{r3, r4, r5, pc}
 8007c26:	bf00      	nop
 8007c28:	2000030c 	.word	0x2000030c

08007c2c <_getpid_r>:
 8007c2c:	f7fb bb2a 	b.w	8003284 <_getpid>

08007c30 <__sread>:
 8007c30:	b510      	push	{r4, lr}
 8007c32:	460c      	mov	r4, r1
 8007c34:	f9b1 100e 	ldrsh.w	r1, [r1, #14]
 8007c38:	f000 f894 	bl	8007d64 <_read_r>
 8007c3c:	2800      	cmp	r0, #0
 8007c3e:	bfab      	itete	ge
 8007c40:	6d63      	ldrge	r3, [r4, #84]	; 0x54
 8007c42:	89a3      	ldrhlt	r3, [r4, #12]
 8007c44:	181b      	addge	r3, r3, r0
 8007c46:	f423 5380 	biclt.w	r3, r3, #4096	; 0x1000
 8007c4a:	bfac      	ite	ge
 8007c4c:	6563      	strge	r3, [r4, #84]	; 0x54
 8007c4e:	81a3      	strhlt	r3, [r4, #12]
 8007c50:	bd10      	pop	{r4, pc}

08007c52 <__swrite>:
 8007c52:	e92d 41f0 	stmdb	sp!, {r4, r5, r6, r7, r8, lr}
 8007c56:	461f      	mov	r7, r3
 8007c58:	898b      	ldrh	r3, [r1, #12]
 8007c5a:	05db      	lsls	r3, r3, #23
 8007c5c:	4605      	mov	r5, r0
 8007c5e:	460c      	mov	r4, r1
 8007c60:	4616      	mov	r6, r2
 8007c62:	d505      	bpl.n	8007c70 <__swrite+0x1e>
 8007c64:	f9b1 100e 	ldrsh.w	r1, [r1, #14]
 8007c68:	2302      	movs	r3, #2
 8007c6a:	2200      	movs	r2, #0
 8007c6c:	f000 f868 	bl	8007d40 <_lseek_r>
 8007c70:	89a3      	ldrh	r3, [r4, #12]
 8007c72:	f9b4 100e 	ldrsh.w	r1, [r4, #14]
 8007c76:	f423 5380 	bic.w	r3, r3, #4096	; 0x1000
 8007c7a:	81a3      	strh	r3, [r4, #12]
 8007c7c:	4632      	mov	r2, r6
 8007c7e:	463b      	mov	r3, r7
 8007c80:	4628      	mov	r0, r5
 8007c82:	e8bd 41f0 	ldmia.w	sp!, {r4, r5, r6, r7, r8, lr}
 8007c86:	f000 b817 	b.w	8007cb8 <_write_r>

08007c8a <__sseek>:
 8007c8a:	b510      	push	{r4, lr}
 8007c8c:	460c      	mov	r4, r1
 8007c8e:	f9b1 100e 	ldrsh.w	r1, [r1, #14]
 8007c92:	f000 f855 	bl	8007d40 <_lseek_r>
 8007c96:	1c43      	adds	r3, r0, #1
 8007c98:	89a3      	ldrh	r3, [r4, #12]
 8007c9a:	bf15      	itete	ne
 8007c9c:	6560      	strne	r0, [r4, #84]	; 0x54
 8007c9e:	f423 5380 	biceq.w	r3, r3, #4096	; 0x1000
 8007ca2:	f443 5380 	orrne.w	r3, r3, #4096	; 0x1000
 8007ca6:	81a3      	strheq	r3, [r4, #12]
 8007ca8:	bf18      	it	ne
 8007caa:	81a3      	strhne	r3, [r4, #12]
 8007cac:	bd10      	pop	{r4, pc}

08007cae <__sclose>:
 8007cae:	f9b1 100e 	ldrsh.w	r1, [r1, #14]
 8007cb2:	f000 b813 	b.w	8007cdc <_close_r>
	...

08007cb8 <_write_r>:
 8007cb8:	b538      	push	{r3, r4, r5, lr}
 8007cba:	4d07      	ldr	r5, [pc, #28]	; (8007cd8 <_write_r+0x20>)
 8007cbc:	4604      	mov	r4, r0
 8007cbe:	4608      	mov	r0, r1
 8007cc0:	4611      	mov	r1, r2
 8007cc2:	2200      	movs	r2, #0
 8007cc4:	602a      	str	r2, [r5, #0]
 8007cc6:	461a      	mov	r2, r3
 8007cc8:	f7fb faf9 	bl	80032be <_write>
 8007ccc:	1c43      	adds	r3, r0, #1
 8007cce:	d102      	bne.n	8007cd6 <_write_r+0x1e>
 8007cd0:	682b      	ldr	r3, [r5, #0]
 8007cd2:	b103      	cbz	r3, 8007cd6 <_write_r+0x1e>
 8007cd4:	6023      	str	r3, [r4, #0]
 8007cd6:	bd38      	pop	{r3, r4, r5, pc}
 8007cd8:	2000030c 	.word	0x2000030c

08007cdc <_close_r>:
 8007cdc:	b538      	push	{r3, r4, r5, lr}
 8007cde:	4d06      	ldr	r5, [pc, #24]	; (8007cf8 <_close_r+0x1c>)
 8007ce0:	2300      	movs	r3, #0
 8007ce2:	4604      	mov	r4, r0
 8007ce4:	4608      	mov	r0, r1
 8007ce6:	602b      	str	r3, [r5, #0]
 8007ce8:	f7fb faf6 	bl	80032d8 <_close>
 8007cec:	1c43      	adds	r3, r0, #1
 8007cee:	d102      	bne.n	8007cf6 <_close_r+0x1a>
 8007cf0:	682b      	ldr	r3, [r5, #0]
 8007cf2:	b103      	cbz	r3, 8007cf6 <_close_r+0x1a>
 8007cf4:	6023      	str	r3, [r4, #0]
 8007cf6:	bd38      	pop	{r3, r4, r5, pc}
 8007cf8:	2000030c 	.word	0x2000030c

08007cfc <_fstat_r>:
 8007cfc:	b538      	push	{r3, r4, r5, lr}
 8007cfe:	4d07      	ldr	r5, [pc, #28]	; (8007d1c <_fstat_r+0x20>)
 8007d00:	2300      	movs	r3, #0
 8007d02:	4604      	mov	r4, r0
 8007d04:	4608      	mov	r0, r1
 8007d06:	4611      	mov	r1, r2
 8007d08:	602b      	str	r3, [r5, #0]
 8007d0a:	f7fb fae8 	bl	80032de <_fstat>
 8007d0e:	1c43      	adds	r3, r0, #1
 8007d10:	d102      	bne.n	8007d18 <_fstat_r+0x1c>
 8007d12:	682b      	ldr	r3, [r5, #0]
 8007d14:	b103      	cbz	r3, 8007d18 <_fstat_r+0x1c>
 8007d16:	6023      	str	r3, [r4, #0]
 8007d18:	bd38      	pop	{r3, r4, r5, pc}
 8007d1a:	bf00      	nop
 8007d1c:	2000030c 	.word	0x2000030c

08007d20 <_isatty_r>:
 8007d20:	b538      	push	{r3, r4, r5, lr}
 8007d22:	4d06      	ldr	r5, [pc, #24]	; (8007d3c <_isatty_r+0x1c>)
 8007d24:	2300      	movs	r3, #0
 8007d26:	4604      	mov	r4, r0
 8007d28:	4608      	mov	r0, r1
 8007d2a:	602b      	str	r3, [r5, #0]
 8007d2c:	f7fb fadc 	bl	80032e8 <_isatty>
 8007d30:	1c43      	adds	r3, r0, #1
 8007d32:	d102      	bne.n	8007d3a <_isatty_r+0x1a>
 8007d34:	682b      	ldr	r3, [r5, #0]
 8007d36:	b103      	cbz	r3, 8007d3a <_isatty_r+0x1a>
 8007d38:	6023      	str	r3, [r4, #0]
 8007d3a:	bd38      	pop	{r3, r4, r5, pc}
 8007d3c:	2000030c 	.word	0x2000030c

08007d40 <_lseek_r>:
 8007d40:	b538      	push	{r3, r4, r5, lr}
 8007d42:	4d07      	ldr	r5, [pc, #28]	; (8007d60 <_lseek_r+0x20>)
 8007d44:	4604      	mov	r4, r0
 8007d46:	4608      	mov	r0, r1
 8007d48:	4611      	mov	r1, r2
 8007d4a:	2200      	movs	r2, #0
 8007d4c:	602a      	str	r2, [r5, #0]
 8007d4e:	461a      	mov	r2, r3
 8007d50:	f7fb facc 	bl	80032ec <_lseek>
 8007d54:	1c43      	adds	r3, r0, #1
 8007d56:	d102      	bne.n	8007d5e <_lseek_r+0x1e>
 8007d58:	682b      	ldr	r3, [r5, #0]
 8007d5a:	b103      	cbz	r3, 8007d5e <_lseek_r+0x1e>
 8007d5c:	6023      	str	r3, [r4, #0]
 8007d5e:	bd38      	pop	{r3, r4, r5, pc}
 8007d60:	2000030c 	.word	0x2000030c

08007d64 <_read_r>:
 8007d64:	b538      	push	{r3, r4, r5, lr}
 8007d66:	4d07      	ldr	r5, [pc, #28]	; (8007d84 <_read_r+0x20>)
 8007d68:	4604      	mov	r4, r0
 8007d6a:	4608      	mov	r0, r1
 8007d6c:	4611      	mov	r1, r2
 8007d6e:	2200      	movs	r2, #0
 8007d70:	602a      	str	r2, [r5, #0]
 8007d72:	461a      	mov	r2, r3
 8007d74:	f7fb fa96 	bl	80032a4 <_read>
 8007d78:	1c43      	adds	r3, r0, #1
 8007d7a:	d102      	bne.n	8007d82 <_read_r+0x1e>
 8007d7c:	682b      	ldr	r3, [r5, #0]
 8007d7e:	b103      	cbz	r3, 8007d82 <_read_r+0x1e>
 8007d80:	6023      	str	r3, [r4, #0]
 8007d82:	bd38      	pop	{r3, r4, r5, pc}
 8007d84:	2000030c 	.word	0x2000030c

08007d88 <_init>:
 8007d88:	b5f8      	push	{r3, r4, r5, r6, r7, lr}
 8007d8a:	bf00      	nop
 8007d8c:	bcf8      	pop	{r3, r4, r5, r6, r7}
 8007d8e:	bc08      	pop	{r3}
 8007d90:	469e      	mov	lr, r3
 8007d92:	4770      	bx	lr

08007d94 <_fini>:
 8007d94:	b5f8      	push	{r3, r4, r5, r6, r7, lr}
 8007d96:	bf00      	nop
 8007d98:	bcf8      	pop	{r3, r4, r5, r6, r7}
 8007d9a:	bc08      	pop	{r3}
 8007d9c:	469e      	mov	lr, r3
 8007d9e:	4770      	bx	lr
